0000000000053028 B __bss_start
                 U __cxa_allocate_exception@CXXABI_1.3
                 U __cxa_atexit@GLIBC_2.2.5
                 U __cxa_begin_catch@CXXABI_1.3
                 U __cxa_end_catch@CXXABI_1.3
                 w __cxa_finalize@GLIBC_2.2.5
                 U __cxa_free_exception@CXXABI_1.3
                 w __cxa_pure_virtual@CXXABI_1.3
                 U __cxa_rethrow@CXXABI_1.3
                 U __cxa_throw@CXXABI_1.3
0000000000053000 D __data_start
0000000000053000 W data_start
0000000000053008 D __dso_handle
0000000000053010 V DW.ref.__gxx_personality_v0
0000000000053018 V DW.ref._ZTIN10LinkerUtil15LinkerExceptionE
0000000000053020 V DW.ref._ZTISt9exception
0000000000053028 D _edata
00000000000534b8 B _end
                 U __errno_location@GLIBC_2.2.5
0000000000036cc4 T _fini
                 w __gmon_start__
                 U __gxx_personality_v0@CXXABI_1.3
0000000000004000 T _init
0000000000037000 R _IO_stdin_used
                 w _ITM_deregisterTMCloneTable
                 w _ITM_registerTMCloneTable
0000000000053040 B __libc_single_threaded@GLIBC_2.32
                 U __libc_start_main@GLIBC_2.34
000000000001da33 T main
                 U memcmp@GLIBC_2.2.5
                 U memmove@GLIBC_2.2.5
                 U memset@GLIBC_2.2.5
                 U __stack_chk_fail@GLIBC_2.4
0000000000004b90 T _start
                 U strcmp@GLIBC_2.2.5
                 U strlen@GLIBC_2.2.5
                 U strtol@GLIBC_2.2.5
                 U strtoul@GLIBC_2.2.5
0000000000053028 D __TMC_END__
                 U _Unwind_Resume@GCC_3.0
00000000000368e2 T _Z10StartsWithRNSt7__cxx1112basic_stringIcSt11char_traitsIcESaIcEEERKS4_
00000000000369b7 T _Z5SplitRNSt7__cxx1112basic_stringIcSt11char_traitsIcESaIcEEEc
0000000000036ba7 T _Z5StripNSt7__cxx1112basic_stringIcSt11char_traitsIcESaIcEEEc
0000000000053480 B _Z6CSRMapB5cxx11
0000000000053440 B _Z6GPRMapB5cxx11
0000000000036871 T _Z8ContainsRNSt7__cxx1112basic_stringIcSt11char_traitsIcESaIcEEEc
                 U _ZdlPvm@CXXABI_1.3.9
000000000000a8ff W _ZdlPvS_
0000000000030316 T _ZN10LinkerUtil15LinkerArguments14ParseArgumentsERSt6vectorINSt7__cxx1112basic_stringIcSt11char_traitsIcESaIcEEESaIS7_EE
000000000000b248 W _ZN10LinkerUtil15LinkerArgumentsC1ERKS0_
000000000001e126 W _ZN10LinkerUtil15LinkerArgumentsC1Ev
000000000000b248 W _ZN10LinkerUtil15LinkerArgumentsC2ERKS0_
000000000001e126 W _ZN10LinkerUtil15LinkerArgumentsC2Ev
000000000001e16a W _ZN10LinkerUtil15LinkerArgumentsD1Ev
000000000001e16a W _ZN10LinkerUtil15LinkerArgumentsD2Ev
000000000001e074 W _ZN10LinkerUtil15LinkerException4whatB5cxx11Ev
000000000000ab14 W _ZN10LinkerUtil15LinkerExceptionC1ENSt7__cxx1112basic_stringIcSt11char_traitsIcESaIcEEE
000000000000ab14 W _ZN10LinkerUtil15LinkerExceptionC2ENSt7__cxx1112basic_stringIcSt11char_traitsIcESaIcEEE
000000000001d088 W _ZN10LinkerUtil15LinkerExceptionD0Ev
000000000001d04a W _ZN10LinkerUtil15LinkerExceptionD1Ev
000000000001d04a W _ZN10LinkerUtil15LinkerExceptionD2Ev
000000000000abe8 W _ZN10LinkerUtil16SectionMergeData10AddSectionEiSt10shared_ptrIN12AssemblyUtil12SectionEntryEE
000000000001baa8 W _ZN10LinkerUtil16SectionMergeDataC1Ev
000000000001baa8 W _ZN10LinkerUtil16SectionMergeDataC2Ev
000000000001d976 W _ZN10LinkerUtil16SectionMergeDataD1Ev
000000000001d976 W _ZN10LinkerUtil16SectionMergeDataD2Ev
0000000000030100 T _ZN10LinkerUtil19UpdateSymbolsOffsetERSt6vectorISt10shared_ptrIN12AssemblyUtil16SymbolTableEntryEESaIS4_EERNSt7__cxx1112basic_stringIcSt11char_traitsIcESaIcEEEi
000000000003020b T _ZN10LinkerUtil23UpdateRelocationsOffsetERSt6vectorISt10shared_ptrIN12AssemblyUtil20RelocationTableEntryEESaIS4_EERNSt7__cxx1112basic_stringIcSt11char_traitsIcESaIcEEEi
000000000003191f T _ZN10ParserUtil15CSRStringToEnumENSt7__cxx1112basic_stringIcSt11char_traitsIcESaIcEEE
00000000000318f5 T _ZN10ParserUtil15GPRStringToEnumENSt7__cxx1112basic_stringIcSt11char_traitsIcESaIcEEE
000000000001ea05 T _ZN12AssemblyUtil10FindSymbolERSt6vectorISt10shared_ptrINS_16SymbolTableEntryEESaIS3_EERNSt7__cxx1112basic_stringIcSt11char_traitsIcESaIcEEE
0000000000021546 T _ZN12AssemblyUtil11Instruction18SetInstructionCodeEt
0000000000021656 T _ZN12AssemblyUtil11Instruction20GetInstructionVectorEv
0000000000021612 T _ZN12AssemblyUtil11Instruction21SetInstructionPayloadEt
000000000002157e T _ZN12AssemblyUtil11Instruction23SetInstructionRegisterAEt
00000000000215b0 T _ZN12AssemblyUtil11Instruction23SetInstructionRegisterBEt
00000000000215e2 T _ZN12AssemblyUtil11Instruction23SetInstructionRegisterCEt
0000000000021640 T _ZN12AssemblyUtil11Instruction9DoNothingEt
000000000002e30a W _ZN12AssemblyUtil11InstructionaSERKS0_
0000000000021490 T _ZN12AssemblyUtil11InstructionC1Ej
000000000002a754 W _ZN12AssemblyUtil11InstructionC1EOS0_
0000000000025f44 W _ZN12AssemblyUtil11InstructionC1ERKS0_
00000000000213dc T _ZN12AssemblyUtil11InstructionC1Ev
0000000000021490 T _ZN12AssemblyUtil11InstructionC2Ej
000000000002a754 W _ZN12AssemblyUtil11InstructionC2EOS0_
0000000000025f44 W _ZN12AssemblyUtil11InstructionC2ERKS0_
00000000000213dc T _ZN12AssemblyUtil11InstructionC2Ev
00000000000259c8 W _ZN12AssemblyUtil11InstructionD1Ev
00000000000259c8 W _ZN12AssemblyUtil11InstructionD2Ev
000000000001eb1d T _ZN12AssemblyUtil12InsertSymbolERSt6vectorISt10shared_ptrINS_16SymbolTableEntryEESaIS3_EES3_
000000000001b7e0 W _ZN12AssemblyUtil12SectionEntryC1Ev
000000000001b7e0 W _ZN12AssemblyUtil12SectionEntryC2Ev
000000000001d9e0 W _ZN12AssemblyUtil12SectionEntryD1Ev
000000000001d9e0 W _ZN12AssemblyUtil12SectionEntryD2Ev
000000000001f6dc T _ZN12AssemblyUtil14FindRelocationERSt6vectorISt10shared_ptrINS_20RelocationTableEntryEESaIS3_EERNSt7__cxx1112basic_stringIcSt11char_traitsIcESaIcEEE
000000000000aa70 W _ZN12AssemblyUtil16SymbolTableEntryC1ENSt7__cxx1112basic_stringIcSt11char_traitsIcESaIcEEES6_ibbi
000000000000aa70 W _ZN12AssemblyUtil16SymbolTableEntryC2ENSt7__cxx1112basic_stringIcSt11char_traitsIcESaIcEEES6_ibbi
000000000001d910 W _ZN12AssemblyUtil16SymbolTableEntryD1Ev
000000000001d910 W _ZN12AssemblyUtil16SymbolTableEntryD2Ev
000000000001fdc0 W _ZN12AssemblyUtil17AssemblyExceptionC1ENSt7__cxx1112basic_stringIcSt11char_traitsIcESaIcEEE
000000000001fdc0 W _ZN12AssemblyUtil17AssemblyExceptionC2ENSt7__cxx1112basic_stringIcSt11char_traitsIcESaIcEEE
00000000000210b6 W _ZN12AssemblyUtil17AssemblyExceptionD0Ev
0000000000021078 W _ZN12AssemblyUtil17AssemblyExceptionD1Ev
0000000000021078 W _ZN12AssemblyUtil17AssemblyExceptionD2Ev
000000000001f7f4 T _ZN12AssemblyUtil17CreateSymbolEntryENSt7__cxx1112basic_stringIcSt11char_traitsIcESaIcEEES5_ibbi
000000000001ebbf T _ZN12AssemblyUtil18UpdateSymbolOffsetERSt6vectorISt10shared_ptrINS_16SymbolTableEntryEESaIS3_EES3_i
000000000001f87a T _ZN12AssemblyUtil18WriteDataToSectionERSt6vectorISt10shared_ptrINS_12SectionEntryEESaIS3_EERNSt7__cxx1112basic_stringIcSt11char_traitsIcESaIcEEEjiii
000000000001f552 T _ZN12AssemblyUtil18WriteDataToSectionESt10shared_ptrINS_12SectionEntryEEjii
000000000001ee1f T _ZN12AssemblyUtil18WriteDataToSectionESt10shared_ptrINS_12SectionEntryEERKSt6vectorIhSaIhEEi
000000000001f667 T _ZN12AssemblyUtil19AllocateSectionDataESt10shared_ptrINS_12SectionEntryEEi
000000000001eff6 T _ZN12AssemblyUtil19ReadDataFromSectionERSt6vectorISt10shared_ptrINS_12SectionEntryEESaIS3_EERNSt7__cxx1112basic_stringIcSt11char_traitsIcESaIcEEEii
000000000001ec83 T _ZN12AssemblyUtil19UpdateSymbolSectionERSt6vectorISt10shared_ptrINS_16SymbolTableEntryEESaIS3_EES3_NSt7__cxx1112basic_stringIcSt11char_traitsIcESaIcEEE
000000000001c2a0 W _ZN12AssemblyUtil20RelocationTableEntryC1Ev
000000000001c2a0 W _ZN12AssemblyUtil20RelocationTableEntryC2Ev
000000000001d8aa W _ZN12AssemblyUtil20RelocationTableEntryD1Ev
000000000001d8aa W _ZN12AssemblyUtil20RelocationTableEntryD2Ev
000000000001ed78 T _ZN12AssemblyUtil20UpdateSymbolLocalityERSt6vectorISt10shared_ptrINS_16SymbolTableEntryEESaIS3_EES3_b
00000000000210e5 T _ZN12EmulatorUtil4DumpEPh
0000000000025824 W _ZN15InstructionUtil14CodePopulationC1EMN12AssemblyUtil11InstructionEFvtENS_11eValueToUseE
0000000000025824 W _ZN15InstructionUtil14CodePopulationC2EMN12AssemblyUtil11InstructionEFvtENS_11eValueToUseE
000000000002260e T _ZN15InstructionUtil8CodesMap11AddMapEntryEv
0000000000022672 T _ZN15InstructionUtil8CodesMap11PopulateMapEv
0000000000022550 T _ZN15InstructionUtil8CodesMap11SetMapEntryEN10ParserUtil22eInstructionIdentifierENS1_12eOperandTypeENS1_15eAddressingTypeE
0000000000053380 B _ZN15InstructionUtil8CodesMap12currentEntryE
0000000000053370 B _ZN15InstructionUtil8CodesMap17currentIdentifierE
00000000000222dc T _ZN15InstructionUtil8CodesMap18AddInstructionPairEiSt6vectorISt4pairIMN12AssemblyUtil11InstructionEFvtENS_11eValueToUseEESaIS8_EE
0000000000053374 B _ZN15InstructionUtil8CodesMap18currentOperandTypeE
00000000000256ac T _ZN15InstructionUtil8CodesMap19GetInstructionCodesEN10ParserUtil22eInstructionIdentifierENS1_12eOperandTypeENS1_15eAddressingTypeE
0000000000025604 T _ZN15InstructionUtil8CodesMap19GetInstructionCountEN10ParserUtil22eInstructionIdentifierENS1_12eOperandTypeENS1_15eAddressingTypeE
0000000000053340 B _ZN15InstructionUtil8CodesMap19InstructionCodesMapE
0000000000053378 B _ZN15InstructionUtil8CodesMap21currentAddressingTypeE
0000000000004dd2 T _ZN6Linker11WriteOutputEv
0000000000004d7c T _ZN6Linker12StartLinkingEv
0000000000006964 T _ZN6Linker14ReadInputFilesEv
0000000000006ff2 T _ZN6Linker16ReadSectionsLineERNSt7__cxx1112basic_stringIcSt11char_traitsIcESaIcEEERSt6vectorISt10shared_ptrIN12AssemblyUtil12SectionEntryEESaISB_EE
00000000000055a8 T _ZN6Linker17HandleRelocationsEv
0000000000004e0e T _ZN6Linker17MergeSymbolTablesEv
0000000000007456 T _ZN6Linker19PrintHexProgramDataEv
0000000000005b48 T _ZN6Linker20MergeSectionsInOrderEv
00000000000071f2 T _ZN6Linker20ReadRelocationsEntryERNSt7__cxx1112basic_stringIcSt11char_traitsIcESaIcEEERSt6vectorISt10shared_ptrIN12AssemblyUtil20RelocationTableEntryEESaISB_EE
0000000000006e04 T _ZN6Linker20ReadSymbolTableEntryERNSt7__cxx1112basic_stringIcSt11char_traitsIcESaIcEEERSt6vectorISt10shared_ptrIN12AssemblyUtil16SymbolTableEntryEESaISB_EE
00000000000067ce T _ZN6Linker20UpdateSymbolPointersEv
0000000000005382 T _ZN6Linker21MergeRelocationTablesEv
0000000000006156 T _ZN6Linker23PopulateMergeDataVectorERSt6vectorISt10shared_ptrIN10LinkerUtil16SectionMergeDataEESaIS4_EE
000000000000659e T _ZN6Linker27HandleSymbolSecondEncounterESt10shared_ptrIN12AssemblyUtil16SymbolTableEntryEES3_
00000000000077e0 T _ZN6Linker27PrintRelocatableProgramDataEv
0000000000004c7a T _ZN6LinkerC1ERN10LinkerUtil15LinkerArgumentsE
0000000000004c7a T _ZN6LinkerC2ERN10LinkerUtil15LinkerArgumentsE
000000000001e1ae W _ZN6LinkerD1Ev
000000000001e1ae W _ZN6LinkerD2Ev
000000000000b783 W _ZN9__gnu_cxx11char_traitsIcE2eqERKcS3_
000000000000b7a8 W _ZN9__gnu_cxx11char_traitsIcE6lengthEPKc
000000000001a33e W _ZN9__gnu_cxx13new_allocatorIhE10deallocateEPhm
000000000001a278 W _ZN9__gnu_cxx13new_allocatorIhE8allocateEmPKv
0000000000016606 W _ZN9__gnu_cxx13new_allocatorIhE9constructIhJhEEEvPT_DpOT0_
0000000000020846 W _ZN9__gnu_cxx13new_allocatorIhE9constructIhJRKhEEEvPT_DpOT0_
00000000000220ce W _ZN9__gnu_cxx13new_allocatorIhEC1ERKS1_
000000000001ce7c W _ZN9__gnu_cxx13new_allocatorIhEC1Ev
00000000000220ce W _ZN9__gnu_cxx13new_allocatorIhEC2ERKS1_
000000000001ce7c W _ZN9__gnu_cxx13new_allocatorIhEC2Ev
000000000001cc04 W _ZN9__gnu_cxx13new_allocatorIhED1Ev
000000000001cc04 W _ZN9__gnu_cxx13new_allocatorIhED2Ev
000000000001d9aa W _ZN9__gnu_cxx13new_allocatorIN10LinkerUtil16SectionMergeDataEE7destroyIS2_EEvPT_
000000000001badc W _ZN9__gnu_cxx13new_allocatorIN10LinkerUtil16SectionMergeDataEE9constructIS2_JEEEvPT_DpOT0_
000000000001ac0e W _ZN9__gnu_cxx13new_allocatorIN10LinkerUtil16SectionMergeDataEEC1ERKS3_
0000000000012ace W _ZN9__gnu_cxx13new_allocatorIN10LinkerUtil16SectionMergeDataEEC1Ev
000000000001ac0e W _ZN9__gnu_cxx13new_allocatorIN10LinkerUtil16SectionMergeDataEEC2ERKS3_
0000000000012ace W _ZN9__gnu_cxx13new_allocatorIN10LinkerUtil16SectionMergeDataEEC2Ev
0000000000012ade W _ZN9__gnu_cxx13new_allocatorIN10LinkerUtil16SectionMergeDataEED1Ev
0000000000012ade W _ZN9__gnu_cxx13new_allocatorIN10LinkerUtil16SectionMergeDataEED2Ev
000000000001da10 W _ZN9__gnu_cxx13new_allocatorIN12AssemblyUtil12SectionEntryEE7destroyIS2_EEvPT_
000000000001b810 W _ZN9__gnu_cxx13new_allocatorIN12AssemblyUtil12SectionEntryEE9constructIS2_JEEEvPT_DpOT0_
000000000001a940 W _ZN9__gnu_cxx13new_allocatorIN12AssemblyUtil12SectionEntryEEC1ERKS3_
000000000001266a W _ZN9__gnu_cxx13new_allocatorIN12AssemblyUtil12SectionEntryEEC1Ev
000000000001a940 W _ZN9__gnu_cxx13new_allocatorIN12AssemblyUtil12SectionEntryEEC2ERKS3_
000000000001266a W _ZN9__gnu_cxx13new_allocatorIN12AssemblyUtil12SectionEntryEEC2Ev
000000000001267a W _ZN9__gnu_cxx13new_allocatorIN12AssemblyUtil12SectionEntryEED1Ev
000000000001267a W _ZN9__gnu_cxx13new_allocatorIN12AssemblyUtil12SectionEntryEED2Ev
000000000001d940 W _ZN9__gnu_cxx13new_allocatorIN12AssemblyUtil16SymbolTableEntryEE7destroyIS2_EEvPT_
000000000001bff6 W _ZN9__gnu_cxx13new_allocatorIN12AssemblyUtil16SymbolTableEntryEE9constructIS2_JEEEvPT_DpOT0_
0000000000020ea4 W _ZN9__gnu_cxx13new_allocatorIN12AssemblyUtil16SymbolTableEntryEE9constructIS2_JRNSt7__cxx1112basic_stringIcSt11char_traitsIcESaIcEEESB_RiRbSD_SC_EEEvPT_DpOT0_
000000000001b2ce W _ZN9__gnu_cxx13new_allocatorIN12AssemblyUtil16SymbolTableEntryEEC1ERKS3_
0000000000014210 W _ZN9__gnu_cxx13new_allocatorIN12AssemblyUtil16SymbolTableEntryEEC1Ev
000000000001b2ce W _ZN9__gnu_cxx13new_allocatorIN12AssemblyUtil16SymbolTableEntryEEC2ERKS3_
0000000000014210 W _ZN9__gnu_cxx13new_allocatorIN12AssemblyUtil16SymbolTableEntryEEC2Ev
0000000000014220 W _ZN9__gnu_cxx13new_allocatorIN12AssemblyUtil16SymbolTableEntryEED1Ev
0000000000014220 W _ZN9__gnu_cxx13new_allocatorIN12AssemblyUtil16SymbolTableEntryEED2Ev
000000000001d8da W _ZN9__gnu_cxx13new_allocatorIN12AssemblyUtil20RelocationTableEntryEE7destroyIS2_EEvPT_
000000000001c2d0 W _ZN9__gnu_cxx13new_allocatorIN12AssemblyUtil20RelocationTableEntryEE9constructIS2_JEEEvPT_DpOT0_
000000000001b4a4 W _ZN9__gnu_cxx13new_allocatorIN12AssemblyUtil20RelocationTableEntryEEC1ERKS3_
00000000000144b6 W _ZN9__gnu_cxx13new_allocatorIN12AssemblyUtil20RelocationTableEntryEEC1Ev
000000000001b4a4 W _ZN9__gnu_cxx13new_allocatorIN12AssemblyUtil20RelocationTableEntryEEC2ERKS3_
00000000000144b6 W _ZN9__gnu_cxx13new_allocatorIN12AssemblyUtil20RelocationTableEntryEEC2Ev
00000000000144c6 W _ZN9__gnu_cxx13new_allocatorIN12AssemblyUtil20RelocationTableEntryEED1Ev
00000000000144c6 W _ZN9__gnu_cxx13new_allocatorIN12AssemblyUtil20RelocationTableEntryEED2Ev
00000000000300ec W _ZN9__gnu_cxx13new_allocatorIN15InstructionUtil14CodePopulationEE7destroyIS2_EEvPT_
000000000002e5a6 W _ZN9__gnu_cxx13new_allocatorIN15InstructionUtil14CodePopulationEE9constructIS2_JRMN12AssemblyUtil11InstructionEFvtERNS1_11eValueToUseEEEEvPT_DpOT0_
000000000002e052 W _ZN9__gnu_cxx13new_allocatorIN15InstructionUtil14CodePopulationEEC1ERKS3_
00000000000282cc W _ZN9__gnu_cxx13new_allocatorIN15InstructionUtil14CodePopulationEEC1Ev
000000000002e052 W _ZN9__gnu_cxx13new_allocatorIN15InstructionUtil14CodePopulationEEC2ERKS3_
00000000000282cc W _ZN9__gnu_cxx13new_allocatorIN15InstructionUtil14CodePopulationEEC2Ev
00000000000282dc W _ZN9__gnu_cxx13new_allocatorIN15InstructionUtil14CodePopulationEED1Ev
00000000000282dc W _ZN9__gnu_cxx13new_allocatorIN15InstructionUtil14CodePopulationEED2Ev
0000000000016e1e W _ZN9__gnu_cxx13new_allocatorINSt7__cxx1112basic_stringIcSt11char_traitsIcESaIcEEEE10deallocateEPS6_m
000000000001e7f4 W _ZN9__gnu_cxx13new_allocatorINSt7__cxx1112basic_stringIcSt11char_traitsIcESaIcEEEE7destroyIS6_EEvPT_
0000000000018bca W _ZN9__gnu_cxx13new_allocatorINSt7__cxx1112basic_stringIcSt11char_traitsIcESaIcEEEE8allocateEmPKv
0000000000031476 W _ZN9__gnu_cxx13new_allocatorINSt7__cxx1112basic_stringIcSt11char_traitsIcESaIcEEEE9constructIS6_JRKS6_EEEvPT_DpOT0_
000000000001e5ba W _ZN9__gnu_cxx13new_allocatorINSt7__cxx1112basic_stringIcSt11char_traitsIcESaIcEEEE9constructIS6_JS6_EEEvPT_DpOT0_
0000000000016ddc W _ZN9__gnu_cxx13new_allocatorINSt7__cxx1112basic_stringIcSt11char_traitsIcESaIcEEEEC1ERKS7_
000000000001e3a6 W _ZN9__gnu_cxx13new_allocatorINSt7__cxx1112basic_stringIcSt11char_traitsIcESaIcEEEEC1Ev
0000000000016ddc W _ZN9__gnu_cxx13new_allocatorINSt7__cxx1112basic_stringIcSt11char_traitsIcESaIcEEEEC2ERKS7_
000000000001e3a6 W _ZN9__gnu_cxx13new_allocatorINSt7__cxx1112basic_stringIcSt11char_traitsIcESaIcEEEEC2Ev
0000000000011ffc W _ZN9__gnu_cxx13new_allocatorINSt7__cxx1112basic_stringIcSt11char_traitsIcESaIcEEEED1Ev
0000000000011ffc W _ZN9__gnu_cxx13new_allocatorINSt7__cxx1112basic_stringIcSt11char_traitsIcESaIcEEEED2Ev
0000000000035e16 W _ZN9__gnu_cxx13new_allocatorINSt8__detail10_Hash_nodeISt4pairIKNSt7__cxx1112basic_stringIcSt11char_traitsIcESaIcEEEN10ParserUtil4eCSREELb1EEEE10deallocateEPSE_m
0000000000035e54 W _ZN9__gnu_cxx13new_allocatorINSt8__detail10_Hash_nodeISt4pairIKNSt7__cxx1112basic_stringIcSt11char_traitsIcESaIcEEEN10ParserUtil4eCSREELb1EEEE7destroyISD_EEvPT_
0000000000035cda W _ZN9__gnu_cxx13new_allocatorINSt8__detail10_Hash_nodeISt4pairIKNSt7__cxx1112basic_stringIcSt11char_traitsIcESaIcEEEN10ParserUtil4eCSREELb1EEEE8allocateEmPKv
00000000000367aa W _ZN9__gnu_cxx13new_allocatorINSt8__detail10_Hash_nodeISt4pairIKNSt7__cxx1112basic_stringIcSt11char_traitsIcESaIcEEEN10ParserUtil4eCSREELb1EEEE9constructISD_JRKSD_EEEvPT_DpOT0_
0000000000035d4a W _ZN9__gnu_cxx13new_allocatorINSt8__detail10_Hash_nodeISt4pairIKNSt7__cxx1112basic_stringIcSt11char_traitsIcESaIcEEEN10ParserUtil4eCSREELb1EEEE9constructISD_JRKSt21piecewise_construct_tSt5tupleIJRSA_EESK_IJEEEEEvPT_DpOT0_
000000000003675e W _ZN9__gnu_cxx13new_allocatorINSt8__detail10_Hash_nodeISt4pairIKNSt7__cxx1112basic_stringIcSt11char_traitsIcESaIcEEEN10ParserUtil4eCSREELb1EEEEC1ERKSF_
00000000000361a2 W _ZN9__gnu_cxx13new_allocatorINSt8__detail10_Hash_nodeISt4pairIKNSt7__cxx1112basic_stringIcSt11char_traitsIcESaIcEEEN10ParserUtil4eCSREELb1EEEEC1Ev
000000000003675e W _ZN9__gnu_cxx13new_allocatorINSt8__detail10_Hash_nodeISt4pairIKNSt7__cxx1112basic_stringIcSt11char_traitsIcESaIcEEEN10ParserUtil4eCSREELb1EEEEC2ERKSF_
00000000000361a2 W _ZN9__gnu_cxx13new_allocatorINSt8__detail10_Hash_nodeISt4pairIKNSt7__cxx1112basic_stringIcSt11char_traitsIcESaIcEEEN10ParserUtil4eCSREELb1EEEEC2Ev
0000000000033c9e W _ZN9__gnu_cxx13new_allocatorINSt8__detail10_Hash_nodeISt4pairIKNSt7__cxx1112basic_stringIcSt11char_traitsIcESaIcEEEN10ParserUtil4eCSREELb1EEEED1Ev
0000000000033c9e W _ZN9__gnu_cxx13new_allocatorINSt8__detail10_Hash_nodeISt4pairIKNSt7__cxx1112basic_stringIcSt11char_traitsIcESaIcEEEN10ParserUtil4eCSREELb1EEEED2Ev
00000000000358a2 W _ZN9__gnu_cxx13new_allocatorINSt8__detail10_Hash_nodeISt4pairIKNSt7__cxx1112basic_stringIcSt11char_traitsIcESaIcEEEN10ParserUtil4eGPREELb1EEEE10deallocateEPSE_m
00000000000358e0 W _ZN9__gnu_cxx13new_allocatorINSt8__detail10_Hash_nodeISt4pairIKNSt7__cxx1112basic_stringIcSt11char_traitsIcESaIcEEEN10ParserUtil4eGPREELb1EEEE7destroyISD_EEvPT_
0000000000035766 W _ZN9__gnu_cxx13new_allocatorINSt8__detail10_Hash_nodeISt4pairIKNSt7__cxx1112basic_stringIcSt11char_traitsIcESaIcEEEN10ParserUtil4eGPREELb1EEEE8allocateEmPKv
00000000000366d6 W _ZN9__gnu_cxx13new_allocatorINSt8__detail10_Hash_nodeISt4pairIKNSt7__cxx1112basic_stringIcSt11char_traitsIcESaIcEEEN10ParserUtil4eGPREELb1EEEE9constructISD_JRKSD_EEEvPT_DpOT0_
00000000000357d6 W _ZN9__gnu_cxx13new_allocatorINSt8__detail10_Hash_nodeISt4pairIKNSt7__cxx1112basic_stringIcSt11char_traitsIcESaIcEEEN10ParserUtil4eGPREELb1EEEE9constructISD_JRKSt21piecewise_construct_tSt5tupleIJRSA_EESK_IJEEEEEvPT_DpOT0_
000000000003668a W _ZN9__gnu_cxx13new_allocatorINSt8__detail10_Hash_nodeISt4pairIKNSt7__cxx1112basic_stringIcSt11char_traitsIcESaIcEEEN10ParserUtil4eGPREELb1EEEEC1ERKSF_
0000000000035e96 W _ZN9__gnu_cxx13new_allocatorINSt8__detail10_Hash_nodeISt4pairIKNSt7__cxx1112basic_stringIcSt11char_traitsIcESaIcEEEN10ParserUtil4eGPREELb1EEEEC1Ev
000000000003668a W _ZN9__gnu_cxx13new_allocatorINSt8__detail10_Hash_nodeISt4pairIKNSt7__cxx1112basic_stringIcSt11char_traitsIcESaIcEEEN10ParserUtil4eGPREELb1EEEEC2ERKSF_
0000000000035e96 W _ZN9__gnu_cxx13new_allocatorINSt8__detail10_Hash_nodeISt4pairIKNSt7__cxx1112basic_stringIcSt11char_traitsIcESaIcEEEN10ParserUtil4eGPREELb1EEEEC2Ev
00000000000335e0 W _ZN9__gnu_cxx13new_allocatorINSt8__detail10_Hash_nodeISt4pairIKNSt7__cxx1112basic_stringIcSt11char_traitsIcESaIcEEEN10ParserUtil4eGPREELb1EEEED1Ev
00000000000335e0 W _ZN9__gnu_cxx13new_allocatorINSt8__detail10_Hash_nodeISt4pairIKNSt7__cxx1112basic_stringIcSt11char_traitsIcESaIcEEEN10ParserUtil4eGPREELb1EEEED2Ev
00000000000360f0 W _ZN9__gnu_cxx13new_allocatorIPNSt8__detail15_Hash_node_baseEE10deallocateEPS3_m
000000000003643c W _ZN9__gnu_cxx13new_allocatorIPNSt8__detail15_Hash_node_baseEE8allocateEmPKv
00000000000360d0 W _ZN9__gnu_cxx13new_allocatorIPNSt8__detail15_Hash_node_baseEEC1Ev
00000000000360d0 W _ZN9__gnu_cxx13new_allocatorIPNSt8__detail15_Hash_node_baseEEC2Ev
00000000000360e0 W _ZN9__gnu_cxx13new_allocatorIPNSt8__detail15_Hash_node_baseEED1Ev
00000000000360e0 W _ZN9__gnu_cxx13new_allocatorIPNSt8__detail15_Hash_node_baseEED2Ev
000000000001524e W _ZN9__gnu_cxx13new_allocatorISt10shared_ptrIN10LinkerUtil16SectionMergeDataEEE10deallocateEPS4_m
0000000000015aca W _ZN9__gnu_cxx13new_allocatorISt10shared_ptrIN10LinkerUtil16SectionMergeDataEEE7destroyIS4_EEvPT_
00000000000179bc W _ZN9__gnu_cxx13new_allocatorISt10shared_ptrIN10LinkerUtil16SectionMergeDataEEE8allocateEmPKv
000000000001319a W _ZN9__gnu_cxx13new_allocatorISt10shared_ptrIN10LinkerUtil16SectionMergeDataEEE9constructIS4_JRKS4_EEEvPT_DpOT0_
000000000001c87c W _ZN9__gnu_cxx13new_allocatorISt10shared_ptrIN10LinkerUtil16SectionMergeDataEEE9constructIS4_JS4_EEEvPT_DpOT0_
00000000000125e8 W _ZN9__gnu_cxx13new_allocatorISt10shared_ptrIN10LinkerUtil16SectionMergeDataEEEC1Ev
00000000000125e8 W _ZN9__gnu_cxx13new_allocatorISt10shared_ptrIN10LinkerUtil16SectionMergeDataEEEC2Ev
000000000000fd58 W _ZN9__gnu_cxx13new_allocatorISt10shared_ptrIN10LinkerUtil16SectionMergeDataEEED1Ev
000000000000fd58 W _ZN9__gnu_cxx13new_allocatorISt10shared_ptrIN10LinkerUtil16SectionMergeDataEEED2Ev
0000000000014b04 W _ZN9__gnu_cxx13new_allocatorISt10shared_ptrIN12AssemblyUtil12SectionEntryEEE10deallocateEPS4_m
00000000000153c6 W _ZN9__gnu_cxx13new_allocatorISt10shared_ptrIN12AssemblyUtil12SectionEntryEEE7destroyIS4_EEvPT_
0000000000017430 W _ZN9__gnu_cxx13new_allocatorISt10shared_ptrIN12AssemblyUtil12SectionEntryEEE8allocateEmPKv
00000000000126c6 W _ZN9__gnu_cxx13new_allocatorISt10shared_ptrIN12AssemblyUtil12SectionEntryEEE9constructIS4_JRKS4_EEEvPT_DpOT0_
000000000001c5c0 W _ZN9__gnu_cxx13new_allocatorISt10shared_ptrIN12AssemblyUtil12SectionEntryEEE9constructIS4_JS4_EEEvPT_DpOT0_
000000000001bda2 W _ZN9__gnu_cxx13new_allocatorISt10shared_ptrIN12AssemblyUtil12SectionEntryEEEC1ERKS5_
0000000000011c20 W _ZN9__gnu_cxx13new_allocatorISt10shared_ptrIN12AssemblyUtil12SectionEntryEEEC1Ev
000000000001bda2 W _ZN9__gnu_cxx13new_allocatorISt10shared_ptrIN12AssemblyUtil12SectionEntryEEEC2ERKS5_
0000000000011c20 W _ZN9__gnu_cxx13new_allocatorISt10shared_ptrIN12AssemblyUtil12SectionEntryEEEC2Ev
000000000000edea W _ZN9__gnu_cxx13new_allocatorISt10shared_ptrIN12AssemblyUtil12SectionEntryEEED1Ev
000000000000edea W _ZN9__gnu_cxx13new_allocatorISt10shared_ptrIN12AssemblyUtil12SectionEntryEEED2Ev
0000000000014a92 W _ZN9__gnu_cxx13new_allocatorISt10shared_ptrIN12AssemblyUtil16SymbolTableEntryEEE10deallocateEPS4_m
0000000000015154 W _ZN9__gnu_cxx13new_allocatorISt10shared_ptrIN12AssemblyUtil16SymbolTableEntryEEE7destroyIS4_EEvPT_
0000000000017000 W _ZN9__gnu_cxx13new_allocatorISt10shared_ptrIN12AssemblyUtil16SymbolTableEntryEEE8allocateEmPKv
000000000001217e W _ZN9__gnu_cxx13new_allocatorISt10shared_ptrIN12AssemblyUtil16SymbolTableEntryEEE9constructIS4_JRKS4_EEEvPT_DpOT0_
000000000001c422 W _ZN9__gnu_cxx13new_allocatorISt10shared_ptrIN12AssemblyUtil16SymbolTableEntryEEE9constructIS4_JS4_EEEvPT_DpOT0_
000000000001bcf8 W _ZN9__gnu_cxx13new_allocatorISt10shared_ptrIN12AssemblyUtil16SymbolTableEntryEEEC1ERKS5_
0000000000011bb4 W _ZN9__gnu_cxx13new_allocatorISt10shared_ptrIN12AssemblyUtil16SymbolTableEntryEEEC1Ev
000000000001bcf8 W _ZN9__gnu_cxx13new_allocatorISt10shared_ptrIN12AssemblyUtil16SymbolTableEntryEEEC2ERKS5_
0000000000011bb4 W _ZN9__gnu_cxx13new_allocatorISt10shared_ptrIN12AssemblyUtil16SymbolTableEntryEEEC2Ev
000000000000ed0e W _ZN9__gnu_cxx13new_allocatorISt10shared_ptrIN12AssemblyUtil16SymbolTableEntryEEED1Ev
000000000000ed0e W _ZN9__gnu_cxx13new_allocatorISt10shared_ptrIN12AssemblyUtil16SymbolTableEntryEEED2Ev
0000000000014b76 W _ZN9__gnu_cxx13new_allocatorISt10shared_ptrIN12AssemblyUtil20RelocationTableEntryEEE10deallocateEPS4_m
000000000001522a W _ZN9__gnu_cxx13new_allocatorISt10shared_ptrIN12AssemblyUtil20RelocationTableEntryEEE7destroyIS4_EEvPT_
0000000000017160 W _ZN9__gnu_cxx13new_allocatorISt10shared_ptrIN12AssemblyUtil20RelocationTableEntryEEE8allocateEmPKv
00000000000123bc W _ZN9__gnu_cxx13new_allocatorISt10shared_ptrIN12AssemblyUtil20RelocationTableEntryEEE9constructIS4_JRKS4_EEEvPT_DpOT0_
000000000001c480 W _ZN9__gnu_cxx13new_allocatorISt10shared_ptrIN12AssemblyUtil20RelocationTableEntryEEE9constructIS4_JS4_EEEvPT_DpOT0_
000000000001be4c W _ZN9__gnu_cxx13new_allocatorISt10shared_ptrIN12AssemblyUtil20RelocationTableEntryEEEC1ERKS5_
0000000000011c8c W _ZN9__gnu_cxx13new_allocatorISt10shared_ptrIN12AssemblyUtil20RelocationTableEntryEEEC1Ev
000000000001be4c W _ZN9__gnu_cxx13new_allocatorISt10shared_ptrIN12AssemblyUtil20RelocationTableEntryEEEC2ERKS5_
0000000000011c8c W _ZN9__gnu_cxx13new_allocatorISt10shared_ptrIN12AssemblyUtil20RelocationTableEntryEEEC2Ev
000000000000eec6 W _ZN9__gnu_cxx13new_allocatorISt10shared_ptrIN12AssemblyUtil20RelocationTableEntryEEED1Ev
000000000000eec6 W _ZN9__gnu_cxx13new_allocatorISt10shared_ptrIN12AssemblyUtil20RelocationTableEntryEEED2Ev
000000000002a1dc W _ZN9__gnu_cxx13new_allocatorISt10shared_ptrIN15InstructionUtil14CodePopulationEEE10deallocateEPS4_m
000000000002c0f8 W _ZN9__gnu_cxx13new_allocatorISt10shared_ptrIN15InstructionUtil14CodePopulationEEE7destroyIS4_EEvPT_
000000000002d082 W _ZN9__gnu_cxx13new_allocatorISt10shared_ptrIN15InstructionUtil14CodePopulationEEE8allocateEmPKv
000000000002a24e W _ZN9__gnu_cxx13new_allocatorISt10shared_ptrIN15InstructionUtil14CodePopulationEEE9constructIS4_JS4_EEEvPT_DpOT0_
000000000002d3ec W _ZN9__gnu_cxx13new_allocatorISt10shared_ptrIN15InstructionUtil14CodePopulationEEEC1ERKS5_
0000000000027fa4 W _ZN9__gnu_cxx13new_allocatorISt10shared_ptrIN15InstructionUtil14CodePopulationEEEC1Ev
000000000002d3ec W _ZN9__gnu_cxx13new_allocatorISt10shared_ptrIN15InstructionUtil14CodePopulationEEEC2ERKS5_
0000000000027fa4 W _ZN9__gnu_cxx13new_allocatorISt10shared_ptrIN15InstructionUtil14CodePopulationEEEC2Ev
0000000000026c34 W _ZN9__gnu_cxx13new_allocatorISt10shared_ptrIN15InstructionUtil14CodePopulationEEED1Ev
0000000000026c34 W _ZN9__gnu_cxx13new_allocatorISt10shared_ptrIN15InstructionUtil14CodePopulationEEED2Ev
000000000002daae W _ZN9__gnu_cxx13new_allocatorISt13_Rb_tree_nodeISt4pairIKN10ParserUtil12eOperandTypeESt3mapINS3_15eAddressingTypeESt6vectorIS2_IN12AssemblyUtil11InstructionES8_ISt10shared_ptrIN15InstructionUtil14CodePopulationEESaISE_EEESaISH_EESt4lessIS7_ESaIS2_IKS7_SJ_EEEEEE10deallocateEPSR_m
000000000002da8a W _ZN9__gnu_cxx13new_allocatorISt13_Rb_tree_nodeISt4pairIKN10ParserUtil12eOperandTypeESt3mapINS3_15eAddressingTypeESt6vectorIS2_IN12AssemblyUtil11InstructionES8_ISt10shared_ptrIN15InstructionUtil14CodePopulationEESaISE_EEESaISH_EESt4lessIS7_ESaIS2_IKS7_SJ_EEEEEE7destroyISQ_EEvPT_
000000000002d8b6 W _ZN9__gnu_cxx13new_allocatorISt13_Rb_tree_nodeISt4pairIKN10ParserUtil12eOperandTypeESt3mapINS3_15eAddressingTypeESt6vectorIS2_IN12AssemblyUtil11InstructionES8_ISt10shared_ptrIN15InstructionUtil14CodePopulationEESaISE_EEESaISH_EESt4lessIS7_ESaIS2_IKS7_SJ_EEEEEE8allocateEmPKv
000000000002d956 W _ZN9__gnu_cxx13new_allocatorISt13_Rb_tree_nodeISt4pairIKN10ParserUtil12eOperandTypeESt3mapINS3_15eAddressingTypeESt6vectorIS2_IN12AssemblyUtil11InstructionES8_ISt10shared_ptrIN15InstructionUtil14CodePopulationEESaISE_EEESaISH_EESt4lessIS7_ESaIS2_IKS7_SJ_EEEEEE9constructISQ_JRKSt21piecewise_construct_tSt5tupleIJRS5_EESX_IJEEEEEvPT_DpOT0_
000000000002f870 W _ZN9__gnu_cxx13new_allocatorISt13_Rb_tree_nodeISt4pairIKN10ParserUtil12eOperandTypeESt3mapINS3_15eAddressingTypeESt6vectorIS2_IN12AssemblyUtil11InstructionES8_ISt10shared_ptrIN15InstructionUtil14CodePopulationEESaISE_EEESaISH_EESt4lessIS7_ESaIS2_IKS7_SJ_EEEEEEC1Ev
000000000002f870 W _ZN9__gnu_cxx13new_allocatorISt13_Rb_tree_nodeISt4pairIKN10ParserUtil12eOperandTypeESt3mapINS3_15eAddressingTypeESt6vectorIS2_IN12AssemblyUtil11InstructionES8_ISt10shared_ptrIN15InstructionUtil14CodePopulationEESaISE_EEESaISH_EESt4lessIS7_ESaIS2_IKS7_SJ_EEEEEEC2Ev
000000000002ef4c W _ZN9__gnu_cxx13new_allocatorISt13_Rb_tree_nodeISt4pairIKN10ParserUtil12eOperandTypeESt3mapINS3_15eAddressingTypeESt6vectorIS2_IN12AssemblyUtil11InstructionES8_ISt10shared_ptrIN15InstructionUtil14CodePopulationEESaISE_EEESaISH_EESt4lessIS7_ESaIS2_IKS7_SJ_EEEEEED1Ev
000000000002ef4c W _ZN9__gnu_cxx13new_allocatorISt13_Rb_tree_nodeISt4pairIKN10ParserUtil12eOperandTypeESt3mapINS3_15eAddressingTypeESt6vectorIS2_IN12AssemblyUtil11InstructionES8_ISt10shared_ptrIN15InstructionUtil14CodePopulationEESaISE_EEESaISH_EESt4lessIS7_ESaIS2_IKS7_SJ_EEEEEED2Ev
000000000002dcd2 W _ZN9__gnu_cxx13new_allocatorISt13_Rb_tree_nodeISt4pairIKN10ParserUtil15eAddressingTypeESt6vectorIS2_IN12AssemblyUtil11InstructionES6_ISt10shared_ptrIN15InstructionUtil14CodePopulationEESaISC_EEESaISF_EEEEE10deallocateEPSJ_m
000000000002dcae W _ZN9__gnu_cxx13new_allocatorISt13_Rb_tree_nodeISt4pairIKN10ParserUtil15eAddressingTypeESt6vectorIS2_IN12AssemblyUtil11InstructionES6_ISt10shared_ptrIN15InstructionUtil14CodePopulationEESaISC_EEESaISF_EEEEE7destroyISI_EEvPT_
000000000002db0a W _ZN9__gnu_cxx13new_allocatorISt13_Rb_tree_nodeISt4pairIKN10ParserUtil15eAddressingTypeESt6vectorIS2_IN12AssemblyUtil11InstructionES6_ISt10shared_ptrIN15InstructionUtil14CodePopulationEESaISC_EEESaISF_EEEEE8allocateEmPKv
000000000002db9a W _ZN9__gnu_cxx13new_allocatorISt13_Rb_tree_nodeISt4pairIKN10ParserUtil15eAddressingTypeESt6vectorIS2_IN12AssemblyUtil11InstructionES6_ISt10shared_ptrIN15InstructionUtil14CodePopulationEESaISC_EEESaISF_EEEEE9constructISI_JRKSt21piecewise_construct_tSt5tupleIJRS5_EESP_IJEEEEEvPT_DpOT0_
000000000002f89e W _ZN9__gnu_cxx13new_allocatorISt13_Rb_tree_nodeISt4pairIKN10ParserUtil15eAddressingTypeESt6vectorIS2_IN12AssemblyUtil11InstructionES6_ISt10shared_ptrIN15InstructionUtil14CodePopulationEESaISC_EEESaISF_EEEEEC1Ev
000000000002f89e W _ZN9__gnu_cxx13new_allocatorISt13_Rb_tree_nodeISt4pairIKN10ParserUtil15eAddressingTypeESt6vectorIS2_IN12AssemblyUtil11InstructionES6_ISt10shared_ptrIN15InstructionUtil14CodePopulationEESaISC_EEESaISF_EEEEEC2Ev
000000000002f034 W _ZN9__gnu_cxx13new_allocatorISt13_Rb_tree_nodeISt4pairIKN10ParserUtil15eAddressingTypeESt6vectorIS2_IN12AssemblyUtil11InstructionES6_ISt10shared_ptrIN15InstructionUtil14CodePopulationEESaISC_EEESaISF_EEEEED1Ev
000000000002f034 W _ZN9__gnu_cxx13new_allocatorISt13_Rb_tree_nodeISt4pairIKN10ParserUtil15eAddressingTypeESt6vectorIS2_IN12AssemblyUtil11InstructionES6_ISt10shared_ptrIN15InstructionUtil14CodePopulationEESaISC_EEESaISF_EEEEED2Ev
000000000002cf62 W _ZN9__gnu_cxx13new_allocatorISt13_Rb_tree_nodeISt4pairIKN10ParserUtil22eInstructionIdentifierESt3mapINS3_12eOperandTypeES6_INS3_15eAddressingTypeESt6vectorIS2_IN12AssemblyUtil11InstructionES9_ISt10shared_ptrIN15InstructionUtil14CodePopulationEESaISF_EEESaISI_EESt4lessIS8_ESaIS2_IKS8_SK_EEESL_IS7_ESaIS2_IKS7_SQ_EEEEEE10deallocateEPSX_m
000000000002cf3e W _ZN9__gnu_cxx13new_allocatorISt13_Rb_tree_nodeISt4pairIKN10ParserUtil22eInstructionIdentifierESt3mapINS3_12eOperandTypeES6_INS3_15eAddressingTypeESt6vectorIS2_IN12AssemblyUtil11InstructionES9_ISt10shared_ptrIN15InstructionUtil14CodePopulationEESaISF_EEESaISI_EESt4lessIS8_ESaIS2_IKS8_SK_EEESL_IS7_ESaIS2_IKS7_SQ_EEEEEE7destroyISW_EEvPT_
000000000002d70e W _ZN9__gnu_cxx13new_allocatorISt13_Rb_tree_nodeISt4pairIKN10ParserUtil22eInstructionIdentifierESt3mapINS3_12eOperandTypeES6_INS3_15eAddressingTypeESt6vectorIS2_IN12AssemblyUtil11InstructionES9_ISt10shared_ptrIN15InstructionUtil14CodePopulationEESaISF_EEESaISI_EESt4lessIS8_ESaIS2_IKS8_SK_EEESL_IS7_ESaIS2_IKS7_SQ_EEEEEE8allocateEmPKv
000000000002d7ae W _ZN9__gnu_cxx13new_allocatorISt13_Rb_tree_nodeISt4pairIKN10ParserUtil22eInstructionIdentifierESt3mapINS3_12eOperandTypeES6_INS3_15eAddressingTypeESt6vectorIS2_IN12AssemblyUtil11InstructionES9_ISt10shared_ptrIN15InstructionUtil14CodePopulationEESaISF_EEESaISI_EESt4lessIS8_ESaIS2_IKS8_SK_EEESL_IS7_ESaIS2_IKS7_SQ_EEEEEE9constructISW_JRKSt21piecewise_construct_tSt5tupleIJRS5_EES13_IJEEEEEvPT_DpOT0_
0000000000027ed2 W _ZN9__gnu_cxx13new_allocatorISt13_Rb_tree_nodeISt4pairIKN10ParserUtil22eInstructionIdentifierESt3mapINS3_12eOperandTypeES6_INS3_15eAddressingTypeESt6vectorIS2_IN12AssemblyUtil11InstructionES9_ISt10shared_ptrIN15InstructionUtil14CodePopulationEESaISF_EEESaISI_EESt4lessIS8_ESaIS2_IKS8_SK_EEESL_IS7_ESaIS2_IKS7_SQ_EEEEEEC1Ev
0000000000027ed2 W _ZN9__gnu_cxx13new_allocatorISt13_Rb_tree_nodeISt4pairIKN10ParserUtil22eInstructionIdentifierESt3mapINS3_12eOperandTypeES6_INS3_15eAddressingTypeESt6vectorIS2_IN12AssemblyUtil11InstructionES9_ISt10shared_ptrIN15InstructionUtil14CodePopulationEESaISF_EEESaISI_EESt4lessIS8_ESaIS2_IKS8_SK_EEESL_IS7_ESaIS2_IKS7_SQ_EEEEEEC2Ev
0000000000026aae W _ZN9__gnu_cxx13new_allocatorISt13_Rb_tree_nodeISt4pairIKN10ParserUtil22eInstructionIdentifierESt3mapINS3_12eOperandTypeES6_INS3_15eAddressingTypeESt6vectorIS2_IN12AssemblyUtil11InstructionES9_ISt10shared_ptrIN15InstructionUtil14CodePopulationEESaISF_EEESaISI_EESt4lessIS8_ESaIS2_IKS8_SK_EEESL_IS7_ESaIS2_IKS7_SQ_EEEEEED1Ev
0000000000026aae W _ZN9__gnu_cxx13new_allocatorISt13_Rb_tree_nodeISt4pairIKN10ParserUtil22eInstructionIdentifierESt3mapINS3_12eOperandTypeES6_INS3_15eAddressingTypeESt6vectorIS2_IN12AssemblyUtil11InstructionES9_ISt10shared_ptrIN15InstructionUtil14CodePopulationEESaISF_EEESaISI_EESt4lessIS8_ESaIS2_IKS8_SK_EEESL_IS7_ESaIS2_IKS7_SQ_EEEEEED2Ev
0000000000019a6e W _ZN9__gnu_cxx13new_allocatorISt13_Rb_tree_nodeISt4pairIKNSt7__cxx1112basic_stringIcSt11char_traitsIcESaIcEEEN10LinkerUtil15eInputFileStateEEEE10deallocateEPSD_m
0000000000019a4a W _ZN9__gnu_cxx13new_allocatorISt13_Rb_tree_nodeISt4pairIKNSt7__cxx1112basic_stringIcSt11char_traitsIcESaIcEEEN10LinkerUtil15eInputFileStateEEEE7destroyISC_EEvPT_
00000000000198ea W _ZN9__gnu_cxx13new_allocatorISt13_Rb_tree_nodeISt4pairIKNSt7__cxx1112basic_stringIcSt11char_traitsIcESaIcEEEN10LinkerUtil15eInputFileStateEEEE8allocateEmPKv
000000000001c39a W _ZN9__gnu_cxx13new_allocatorISt13_Rb_tree_nodeISt4pairIKNSt7__cxx1112basic_stringIcSt11char_traitsIcESaIcEEEN10LinkerUtil15eInputFileStateEEEE9constructISC_JRKSC_EEEvPT_DpOT0_
000000000001995a W _ZN9__gnu_cxx13new_allocatorISt13_Rb_tree_nodeISt4pairIKNSt7__cxx1112basic_stringIcSt11char_traitsIcESaIcEEEN10LinkerUtil15eInputFileStateEEEE9constructISC_JRKSt21piecewise_construct_tSt5tupleIJRS9_EESJ_IJEEEEEvPT_DpOT0_
0000000000016a92 W _ZN9__gnu_cxx13new_allocatorISt13_Rb_tree_nodeISt4pairIKNSt7__cxx1112basic_stringIcSt11char_traitsIcESaIcEEEN10LinkerUtil15eInputFileStateEEEEC1ERKSE_
00000000000148a0 W _ZN9__gnu_cxx13new_allocatorISt13_Rb_tree_nodeISt4pairIKNSt7__cxx1112basic_stringIcSt11char_traitsIcESaIcEEEN10LinkerUtil15eInputFileStateEEEEC1Ev
0000000000016a92 W _ZN9__gnu_cxx13new_allocatorISt13_Rb_tree_nodeISt4pairIKNSt7__cxx1112basic_stringIcSt11char_traitsIcESaIcEEEN10LinkerUtil15eInputFileStateEEEEC2ERKSE_
00000000000148a0 W _ZN9__gnu_cxx13new_allocatorISt13_Rb_tree_nodeISt4pairIKNSt7__cxx1112basic_stringIcSt11char_traitsIcESaIcEEEN10LinkerUtil15eInputFileStateEEEEC2Ev
00000000000148b0 W _ZN9__gnu_cxx13new_allocatorISt13_Rb_tree_nodeISt4pairIKNSt7__cxx1112basic_stringIcSt11char_traitsIcESaIcEEEN10LinkerUtil15eInputFileStateEEEED1Ev
00000000000148b0 W _ZN9__gnu_cxx13new_allocatorISt13_Rb_tree_nodeISt4pairIKNSt7__cxx1112basic_stringIcSt11char_traitsIcESaIcEEEN10LinkerUtil15eInputFileStateEEEED2Ev
0000000000019210 W _ZN9__gnu_cxx13new_allocatorISt13_Rb_tree_nodeISt4pairIKNSt7__cxx1112basic_stringIcSt11char_traitsIcESaIcEEESt10shared_ptrIN10LinkerUtil16SectionMergeDataEEEEE10deallocateEPSF_m
00000000000191ec W _ZN9__gnu_cxx13new_allocatorISt13_Rb_tree_nodeISt4pairIKNSt7__cxx1112basic_stringIcSt11char_traitsIcESaIcEEESt10shared_ptrIN10LinkerUtil16SectionMergeDataEEEEE7destroyISE_EEvPT_
00000000000194a8 W _ZN9__gnu_cxx13new_allocatorISt13_Rb_tree_nodeISt4pairIKNSt7__cxx1112basic_stringIcSt11char_traitsIcESaIcEEESt10shared_ptrIN10LinkerUtil16SectionMergeDataEEEEE8allocateEmPKv
0000000000019542 W _ZN9__gnu_cxx13new_allocatorISt13_Rb_tree_nodeISt4pairIKNSt7__cxx1112basic_stringIcSt11char_traitsIcESaIcEEESt10shared_ptrIN10LinkerUtil16SectionMergeDataEEEEE9constructISE_JRKSt21piecewise_construct_tSt5tupleIJRS9_EESL_IJEEEEEvPT_DpOT0_
0000000000012930 W _ZN9__gnu_cxx13new_allocatorISt13_Rb_tree_nodeISt4pairIKNSt7__cxx1112basic_stringIcSt11char_traitsIcESaIcEEESt10shared_ptrIN10LinkerUtil16SectionMergeDataEEEEEC1Ev
0000000000012930 W _ZN9__gnu_cxx13new_allocatorISt13_Rb_tree_nodeISt4pairIKNSt7__cxx1112basic_stringIcSt11char_traitsIcESaIcEEESt10shared_ptrIN10LinkerUtil16SectionMergeDataEEEEEC2Ev
000000000001012e W _ZN9__gnu_cxx13new_allocatorISt13_Rb_tree_nodeISt4pairIKNSt7__cxx1112basic_stringIcSt11char_traitsIcESaIcEEESt10shared_ptrIN10LinkerUtil16SectionMergeDataEEEEED1Ev
000000000001012e W _ZN9__gnu_cxx13new_allocatorISt13_Rb_tree_nodeISt4pairIKNSt7__cxx1112basic_stringIcSt11char_traitsIcESaIcEEESt10shared_ptrIN10LinkerUtil16SectionMergeDataEEEEED2Ev
000000000001b9e0 W _ZN9__gnu_cxx13new_allocatorISt23_Sp_counted_ptr_inplaceIN10LinkerUtil16SectionMergeDataESaIS3_ELNS_12_Lock_policyE2EEE10deallocateEPS6_m
000000000001b95e W _ZN9__gnu_cxx13new_allocatorISt23_Sp_counted_ptr_inplaceIN10LinkerUtil16SectionMergeDataESaIS3_ELNS_12_Lock_policyE2EEE8allocateEmPKv
000000000001ab42 W _ZN9__gnu_cxx13new_allocatorISt23_Sp_counted_ptr_inplaceIN10LinkerUtil16SectionMergeDataESaIS3_ELNS_12_Lock_policyE2EEEC1Ev
000000000001ab42 W _ZN9__gnu_cxx13new_allocatorISt23_Sp_counted_ptr_inplaceIN10LinkerUtil16SectionMergeDataESaIS3_ELNS_12_Lock_policyE2EEEC2Ev
000000000001ab52 W _ZN9__gnu_cxx13new_allocatorISt23_Sp_counted_ptr_inplaceIN10LinkerUtil16SectionMergeDataESaIS3_ELNS_12_Lock_policyE2EEED1Ev
000000000001ab52 W _ZN9__gnu_cxx13new_allocatorISt23_Sp_counted_ptr_inplaceIN10LinkerUtil16SectionMergeDataESaIS3_ELNS_12_Lock_policyE2EEED2Ev
000000000001b718 W _ZN9__gnu_cxx13new_allocatorISt23_Sp_counted_ptr_inplaceIN12AssemblyUtil12SectionEntryESaIS3_ELNS_12_Lock_policyE2EEE10deallocateEPS6_m
000000000001b696 W _ZN9__gnu_cxx13new_allocatorISt23_Sp_counted_ptr_inplaceIN12AssemblyUtil12SectionEntryESaIS3_ELNS_12_Lock_policyE2EEE8allocateEmPKv
000000000001a874 W _ZN9__gnu_cxx13new_allocatorISt23_Sp_counted_ptr_inplaceIN12AssemblyUtil12SectionEntryESaIS3_ELNS_12_Lock_policyE2EEEC1Ev
000000000001a874 W _ZN9__gnu_cxx13new_allocatorISt23_Sp_counted_ptr_inplaceIN12AssemblyUtil12SectionEntryESaIS3_ELNS_12_Lock_policyE2EEEC2Ev
000000000001a884 W _ZN9__gnu_cxx13new_allocatorISt23_Sp_counted_ptr_inplaceIN12AssemblyUtil12SectionEntryESaIS3_ELNS_12_Lock_policyE2EEED1Ev
000000000001a884 W _ZN9__gnu_cxx13new_allocatorISt23_Sp_counted_ptr_inplaceIN12AssemblyUtil12SectionEntryESaIS3_ELNS_12_Lock_policyE2EEED2Ev
000000000001bf8e W _ZN9__gnu_cxx13new_allocatorISt23_Sp_counted_ptr_inplaceIN12AssemblyUtil16SymbolTableEntryESaIS3_ELNS_12_Lock_policyE2EEE10deallocateEPS6_m
000000000001bf0e W _ZN9__gnu_cxx13new_allocatorISt23_Sp_counted_ptr_inplaceIN12AssemblyUtil16SymbolTableEntryESaIS3_ELNS_12_Lock_policyE2EEE8allocateEmPKv
000000000001b202 W _ZN9__gnu_cxx13new_allocatorISt23_Sp_counted_ptr_inplaceIN12AssemblyUtil16SymbolTableEntryESaIS3_ELNS_12_Lock_policyE2EEEC1Ev
000000000001b202 W _ZN9__gnu_cxx13new_allocatorISt23_Sp_counted_ptr_inplaceIN12AssemblyUtil16SymbolTableEntryESaIS3_ELNS_12_Lock_policyE2EEEC2Ev
000000000001b212 W _ZN9__gnu_cxx13new_allocatorISt23_Sp_counted_ptr_inplaceIN12AssemblyUtil16SymbolTableEntryESaIS3_ELNS_12_Lock_policyE2EEED1Ev
000000000001b212 W _ZN9__gnu_cxx13new_allocatorISt23_Sp_counted_ptr_inplaceIN12AssemblyUtil16SymbolTableEntryESaIS3_ELNS_12_Lock_policyE2EEED2Ev
000000000001c238 W _ZN9__gnu_cxx13new_allocatorISt23_Sp_counted_ptr_inplaceIN12AssemblyUtil20RelocationTableEntryESaIS3_ELNS_12_Lock_policyE2EEE10deallocateEPS6_m
000000000001c1b8 W _ZN9__gnu_cxx13new_allocatorISt23_Sp_counted_ptr_inplaceIN12AssemblyUtil20RelocationTableEntryESaIS3_ELNS_12_Lock_policyE2EEE8allocateEmPKv
000000000001b3d8 W _ZN9__gnu_cxx13new_allocatorISt23_Sp_counted_ptr_inplaceIN12AssemblyUtil20RelocationTableEntryESaIS3_ELNS_12_Lock_policyE2EEEC1Ev
000000000001b3d8 W _ZN9__gnu_cxx13new_allocatorISt23_Sp_counted_ptr_inplaceIN12AssemblyUtil20RelocationTableEntryESaIS3_ELNS_12_Lock_policyE2EEEC2Ev
000000000001b3e8 W _ZN9__gnu_cxx13new_allocatorISt23_Sp_counted_ptr_inplaceIN12AssemblyUtil20RelocationTableEntryESaIS3_ELNS_12_Lock_policyE2EEED1Ev
000000000001b3e8 W _ZN9__gnu_cxx13new_allocatorISt23_Sp_counted_ptr_inplaceIN12AssemblyUtil20RelocationTableEntryESaIS3_ELNS_12_Lock_policyE2EEED2Ev
000000000002e53e W _ZN9__gnu_cxx13new_allocatorISt23_Sp_counted_ptr_inplaceIN15InstructionUtil14CodePopulationESaIS3_ELNS_12_Lock_policyE2EEE10deallocateEPS6_m
000000000002e4bc W _ZN9__gnu_cxx13new_allocatorISt23_Sp_counted_ptr_inplaceIN15InstructionUtil14CodePopulationESaIS3_ELNS_12_Lock_policyE2EEE8allocateEmPKv
000000000002df86 W _ZN9__gnu_cxx13new_allocatorISt23_Sp_counted_ptr_inplaceIN15InstructionUtil14CodePopulationESaIS3_ELNS_12_Lock_policyE2EEEC1Ev
000000000002df86 W _ZN9__gnu_cxx13new_allocatorISt23_Sp_counted_ptr_inplaceIN15InstructionUtil14CodePopulationESaIS3_ELNS_12_Lock_policyE2EEEC2Ev
000000000002df96 W _ZN9__gnu_cxx13new_allocatorISt23_Sp_counted_ptr_inplaceIN15InstructionUtil14CodePopulationESaIS3_ELNS_12_Lock_policyE2EEED1Ev
000000000002df96 W _ZN9__gnu_cxx13new_allocatorISt23_Sp_counted_ptr_inplaceIN15InstructionUtil14CodePopulationESaIS3_ELNS_12_Lock_policyE2EEED2Ev
0000000000018a7c W _ZN9__gnu_cxx13new_allocatorISt4pairIiSt10shared_ptrIN12AssemblyUtil12SectionEntryEEEE10deallocateEPS6_m
0000000000016a12 W _ZN9__gnu_cxx13new_allocatorISt4pairIiSt10shared_ptrIN12AssemblyUtil12SectionEntryEEEE7destroyIS6_EEvPT_
000000000001896a W _ZN9__gnu_cxx13new_allocatorISt4pairIiSt10shared_ptrIN12AssemblyUtil12SectionEntryEEEE8allocateEmPKv
000000000001458c W _ZN9__gnu_cxx13new_allocatorISt4pairIiSt10shared_ptrIN12AssemblyUtil12SectionEntryEEEE9constructIS6_JS6_EEEvPT_DpOT0_
000000000001ce8c W _ZN9__gnu_cxx13new_allocatorISt4pairIiSt10shared_ptrIN12AssemblyUtil12SectionEntryEEEEC1Ev
000000000001ce8c W _ZN9__gnu_cxx13new_allocatorISt4pairIiSt10shared_ptrIN12AssemblyUtil12SectionEntryEEEEC2Ev
000000000001cc66 W _ZN9__gnu_cxx13new_allocatorISt4pairIiSt10shared_ptrIN12AssemblyUtil12SectionEntryEEEED1Ev
000000000001cc66 W _ZN9__gnu_cxx13new_allocatorISt4pairIiSt10shared_ptrIN12AssemblyUtil12SectionEntryEEEED2Ev
0000000000011986 W _ZN9__gnu_cxx13new_allocatorISt4pairIKNSt7__cxx1112basic_stringIcSt11char_traitsIcESaIcEEEN10LinkerUtil15eInputFileStateEEEC1ERKSC_
000000000000ea80 W _ZN9__gnu_cxx13new_allocatorISt4pairIKNSt7__cxx1112basic_stringIcSt11char_traitsIcESaIcEEEN10LinkerUtil15eInputFileStateEEEC1Ev
0000000000011986 W _ZN9__gnu_cxx13new_allocatorISt4pairIKNSt7__cxx1112basic_stringIcSt11char_traitsIcESaIcEEEN10LinkerUtil15eInputFileStateEEEC2ERKSC_
000000000000ea80 W _ZN9__gnu_cxx13new_allocatorISt4pairIKNSt7__cxx1112basic_stringIcSt11char_traitsIcESaIcEEEN10LinkerUtil15eInputFileStateEEEC2Ev
000000000000ea90 W _ZN9__gnu_cxx13new_allocatorISt4pairIKNSt7__cxx1112basic_stringIcSt11char_traitsIcESaIcEEEN10LinkerUtil15eInputFileStateEEED1Ev
000000000000ea90 W _ZN9__gnu_cxx13new_allocatorISt4pairIKNSt7__cxx1112basic_stringIcSt11char_traitsIcESaIcEEEN10LinkerUtil15eInputFileStateEEED2Ev
0000000000032930 W _ZN9__gnu_cxx13new_allocatorISt4pairIKNSt7__cxx1112basic_stringIcSt11char_traitsIcESaIcEEEN10ParserUtil4eCSREEEC1Ev
0000000000032930 W _ZN9__gnu_cxx13new_allocatorISt4pairIKNSt7__cxx1112basic_stringIcSt11char_traitsIcESaIcEEEN10ParserUtil4eCSREEEC2Ev
0000000000032940 W _ZN9__gnu_cxx13new_allocatorISt4pairIKNSt7__cxx1112basic_stringIcSt11char_traitsIcESaIcEEEN10ParserUtil4eCSREEED1Ev
0000000000032940 W _ZN9__gnu_cxx13new_allocatorISt4pairIKNSt7__cxx1112basic_stringIcSt11char_traitsIcESaIcEEEN10ParserUtil4eCSREEED2Ev
00000000000326c2 W _ZN9__gnu_cxx13new_allocatorISt4pairIKNSt7__cxx1112basic_stringIcSt11char_traitsIcESaIcEEEN10ParserUtil4eGPREEEC1Ev
00000000000326c2 W _ZN9__gnu_cxx13new_allocatorISt4pairIKNSt7__cxx1112basic_stringIcSt11char_traitsIcESaIcEEEN10ParserUtil4eGPREEEC2Ev
00000000000326d2 W _ZN9__gnu_cxx13new_allocatorISt4pairIKNSt7__cxx1112basic_stringIcSt11char_traitsIcESaIcEEEN10ParserUtil4eGPREEED1Ev
00000000000326d2 W _ZN9__gnu_cxx13new_allocatorISt4pairIKNSt7__cxx1112basic_stringIcSt11char_traitsIcESaIcEEEN10ParserUtil4eGPREEED2Ev
000000000002bd6e W _ZN9__gnu_cxx13new_allocatorISt4pairIMN12AssemblyUtil11InstructionEFvtEN15InstructionUtil11eValueToUseEEE10deallocateEPS8_m
000000000002cd36 W _ZN9__gnu_cxx13new_allocatorISt4pairIMN12AssemblyUtil11InstructionEFvtEN15InstructionUtil11eValueToUseEEE8allocateEmPKv
000000000002ccec W _ZN9__gnu_cxx13new_allocatorISt4pairIMN12AssemblyUtil11InstructionEFvtEN15InstructionUtil11eValueToUseEEEC1ERKS9_
0000000000027c60 W _ZN9__gnu_cxx13new_allocatorISt4pairIMN12AssemblyUtil11InstructionEFvtEN15InstructionUtil11eValueToUseEEEC1Ev
000000000002ccec W _ZN9__gnu_cxx13new_allocatorISt4pairIMN12AssemblyUtil11InstructionEFvtEN15InstructionUtil11eValueToUseEEEC2ERKS9_
0000000000027c60 W _ZN9__gnu_cxx13new_allocatorISt4pairIMN12AssemblyUtil11InstructionEFvtEN15InstructionUtil11eValueToUseEEEC2Ev
0000000000027bd6 W _ZN9__gnu_cxx13new_allocatorISt4pairIMN12AssemblyUtil11InstructionEFvtEN15InstructionUtil11eValueToUseEEED1Ev
0000000000027bd6 W _ZN9__gnu_cxx13new_allocatorISt4pairIMN12AssemblyUtil11InstructionEFvtEN15InstructionUtil11eValueToUseEEED2Ev
000000000002a19e W _ZN9__gnu_cxx13new_allocatorISt4pairIN12AssemblyUtil11InstructionESt6vectorISt10shared_ptrIN15InstructionUtil14CodePopulationEESaIS8_EEEE10deallocateEPSB_m
000000000002c486 W _ZN9__gnu_cxx13new_allocatorISt4pairIN12AssemblyUtil11InstructionESt6vectorISt10shared_ptrIN15InstructionUtil14CodePopulationEESaIS8_EEEE7destroyISB_EEvPT_
000000000002ca28 W _ZN9__gnu_cxx13new_allocatorISt4pairIN12AssemblyUtil11InstructionESt6vectorISt10shared_ptrIN15InstructionUtil14CodePopulationEESaIS8_EEEE8allocateEmPKv
000000000002a826 W _ZN9__gnu_cxx13new_allocatorISt4pairIN12AssemblyUtil11InstructionESt6vectorISt10shared_ptrIN15InstructionUtil14CodePopulationEESaIS8_EEEE9constructISB_JSB_EEEvPT_DpOT0_
000000000002cdfe W _ZN9__gnu_cxx13new_allocatorISt4pairIN12AssemblyUtil11InstructionESt6vectorISt10shared_ptrIN15InstructionUtil14CodePopulationEESaIS8_EEEEC1ERKSC_
0000000000027f62 W _ZN9__gnu_cxx13new_allocatorISt4pairIN12AssemblyUtil11InstructionESt6vectorISt10shared_ptrIN15InstructionUtil14CodePopulationEESaIS8_EEEEC1Ev
000000000002cdfe W _ZN9__gnu_cxx13new_allocatorISt4pairIN12AssemblyUtil11InstructionESt6vectorISt10shared_ptrIN15InstructionUtil14CodePopulationEESaIS8_EEEEC2ERKSC_
0000000000027f62 W _ZN9__gnu_cxx13new_allocatorISt4pairIN12AssemblyUtil11InstructionESt6vectorISt10shared_ptrIN15InstructionUtil14CodePopulationEESaIS8_EEEEC2Ev
0000000000026b98 W _ZN9__gnu_cxx13new_allocatorISt4pairIN12AssemblyUtil11InstructionESt6vectorISt10shared_ptrIN15InstructionUtil14CodePopulationEESaIS8_EEEED1Ev
0000000000026b98 W _ZN9__gnu_cxx13new_allocatorISt4pairIN12AssemblyUtil11InstructionESt6vectorISt10shared_ptrIN15InstructionUtil14CodePopulationEESaIS8_EEEED2Ev
0000000000016c48 W _ZN9__gnu_cxx13new_allocatorISt4pairINSt7__cxx1112basic_stringIcSt11char_traitsIcESaIcEEEmEE10deallocateEPS8_m
00000000000316e4 W _ZN9__gnu_cxx13new_allocatorISt4pairINSt7__cxx1112basic_stringIcSt11char_traitsIcESaIcEEEmEE7destroyIS8_EEvPT_
0000000000018b1e W _ZN9__gnu_cxx13new_allocatorISt4pairINSt7__cxx1112basic_stringIcSt11char_traitsIcESaIcEEEmEE8allocateEmPKv
00000000000314ec W _ZN9__gnu_cxx13new_allocatorISt4pairINSt7__cxx1112basic_stringIcSt11char_traitsIcESaIcEEEmEE9constructIS8_JS8_EEEvPT_DpOT0_
0000000000016c06 W _ZN9__gnu_cxx13new_allocatorISt4pairINSt7__cxx1112basic_stringIcSt11char_traitsIcESaIcEEEmEEC1ERKS9_
000000000001e5aa W _ZN9__gnu_cxx13new_allocatorISt4pairINSt7__cxx1112basic_stringIcSt11char_traitsIcESaIcEEEmEEC1Ev
0000000000016c06 W _ZN9__gnu_cxx13new_allocatorISt4pairINSt7__cxx1112basic_stringIcSt11char_traitsIcESaIcEEEmEEC2ERKS9_
000000000001e5aa W _ZN9__gnu_cxx13new_allocatorISt4pairINSt7__cxx1112basic_stringIcSt11char_traitsIcESaIcEEEmEEC2Ev
0000000000011e68 W _ZN9__gnu_cxx13new_allocatorISt4pairINSt7__cxx1112basic_stringIcSt11char_traitsIcESaIcEEEmEED1Ev
0000000000011e68 W _ZN9__gnu_cxx13new_allocatorISt4pairINSt7__cxx1112basic_stringIcSt11char_traitsIcESaIcEEEmEED2Ev
0000000000014c62 W _ZN9__gnu_cxx13new_allocatorISt6vectorISt10shared_ptrIN12AssemblyUtil12SectionEntryEESaIS5_EEE10deallocateEPS7_m
0000000000016388 W _ZN9__gnu_cxx13new_allocatorISt6vectorISt10shared_ptrIN12AssemblyUtil12SectionEntryEESaIS5_EEE7destroyIS7_EEvPT_
00000000000181a8 W _ZN9__gnu_cxx13new_allocatorISt6vectorISt10shared_ptrIN12AssemblyUtil12SectionEntryEESaIS5_EEE8allocateEmPKv
0000000000013d5a W _ZN9__gnu_cxx13new_allocatorISt6vectorISt10shared_ptrIN12AssemblyUtil12SectionEntryEESaIS5_EEE9constructIS7_JRKS7_EEEvPT_DpOT0_
000000000001ca44 W _ZN9__gnu_cxx13new_allocatorISt6vectorISt10shared_ptrIN12AssemblyUtil12SectionEntryEESaIS5_EEE9constructIS7_JS7_EEEvPT_DpOT0_
0000000000011d64 W _ZN9__gnu_cxx13new_allocatorISt6vectorISt10shared_ptrIN12AssemblyUtil12SectionEntryEESaIS5_EEEC1Ev
0000000000011d64 W _ZN9__gnu_cxx13new_allocatorISt6vectorISt10shared_ptrIN12AssemblyUtil12SectionEntryEESaIS5_EEEC2Ev
000000000000f07e W _ZN9__gnu_cxx13new_allocatorISt6vectorISt10shared_ptrIN12AssemblyUtil12SectionEntryEESaIS5_EEED1Ev
000000000000f07e W _ZN9__gnu_cxx13new_allocatorISt6vectorISt10shared_ptrIN12AssemblyUtil12SectionEntryEESaIS5_EEED2Ev
0000000000014be8 W _ZN9__gnu_cxx13new_allocatorISt6vectorISt10shared_ptrIN12AssemblyUtil16SymbolTableEntryEESaIS5_EEE10deallocateEPS7_m
0000000000016182 W _ZN9__gnu_cxx13new_allocatorISt6vectorISt10shared_ptrIN12AssemblyUtil16SymbolTableEntryEESaIS5_EEE7destroyIS7_EEvPT_
0000000000017f54 W _ZN9__gnu_cxx13new_allocatorISt6vectorISt10shared_ptrIN12AssemblyUtil16SymbolTableEntryEESaIS5_EEE8allocateEmPKv
0000000000013af6 W _ZN9__gnu_cxx13new_allocatorISt6vectorISt10shared_ptrIN12AssemblyUtil16SymbolTableEntryEESaIS5_EEE9constructIS7_JRKS7_EEEvPT_DpOT0_
000000000001c992 W _ZN9__gnu_cxx13new_allocatorISt6vectorISt10shared_ptrIN12AssemblyUtil16SymbolTableEntryEESaIS5_EEE9constructIS7_JS7_EEEvPT_DpOT0_
0000000000011cf8 W _ZN9__gnu_cxx13new_allocatorISt6vectorISt10shared_ptrIN12AssemblyUtil16SymbolTableEntryEESaIS5_EEEC1Ev
0000000000011cf8 W _ZN9__gnu_cxx13new_allocatorISt6vectorISt10shared_ptrIN12AssemblyUtil16SymbolTableEntryEESaIS5_EEEC2Ev
000000000000efa2 W _ZN9__gnu_cxx13new_allocatorISt6vectorISt10shared_ptrIN12AssemblyUtil16SymbolTableEntryEESaIS5_EEED1Ev
000000000000efa2 W _ZN9__gnu_cxx13new_allocatorISt6vectorISt10shared_ptrIN12AssemblyUtil16SymbolTableEntryEESaIS5_EEED2Ev
0000000000014cdc W _ZN9__gnu_cxx13new_allocatorISt6vectorISt10shared_ptrIN12AssemblyUtil20RelocationTableEntryEESaIS5_EEE10deallocateEPS7_m
000000000001658e W _ZN9__gnu_cxx13new_allocatorISt6vectorISt10shared_ptrIN12AssemblyUtil20RelocationTableEntryEESaIS5_EEE7destroyIS7_EEvPT_
00000000000183fc W _ZN9__gnu_cxx13new_allocatorISt6vectorISt10shared_ptrIN12AssemblyUtil20RelocationTableEntryEESaIS5_EEE8allocateEmPKv
0000000000013fbe W _ZN9__gnu_cxx13new_allocatorISt6vectorISt10shared_ptrIN12AssemblyUtil20RelocationTableEntryEESaIS5_EEE9constructIS7_JRKS7_EEEvPT_DpOT0_
000000000001caf6 W _ZN9__gnu_cxx13new_allocatorISt6vectorISt10shared_ptrIN12AssemblyUtil20RelocationTableEntryEESaIS5_EEE9constructIS7_JS7_EEEvPT_DpOT0_
0000000000011dd0 W _ZN9__gnu_cxx13new_allocatorISt6vectorISt10shared_ptrIN12AssemblyUtil20RelocationTableEntryEESaIS5_EEEC1Ev
0000000000011dd0 W _ZN9__gnu_cxx13new_allocatorISt6vectorISt10shared_ptrIN12AssemblyUtil20RelocationTableEntryEESaIS5_EEEC2Ev
000000000000f15a W _ZN9__gnu_cxx13new_allocatorISt6vectorISt10shared_ptrIN12AssemblyUtil20RelocationTableEntryEESaIS5_EEED1Ev
000000000000f15a W _ZN9__gnu_cxx13new_allocatorISt6vectorISt10shared_ptrIN12AssemblyUtil20RelocationTableEntryEESaIS5_EEED2Ev
000000000000e692 W _ZN9__gnu_cxx14__alloc_traitsISaIcEcE17_S_select_on_copyERKS1_
00000000000259e7 W _ZN9__gnu_cxx14__alloc_traitsISaIhEhE15_S_always_equalEv
0000000000021b0f W _ZN9__gnu_cxx14__alloc_traitsISaIhEhE17_S_select_on_copyERKS1_
000000000002e915 W _ZN9__gnu_cxx14__alloc_traitsISaIhEhE27_S_propagate_on_copy_assignEv
000000000000f45f W _ZN9__gnu_cxx14__alloc_traitsISaINSt7__cxx1112basic_stringIcSt11char_traitsIcESaIcEEEES6_E17_S_select_on_copyERKS7_
0000000000018029 W _ZN9__gnu_cxx14__alloc_traitsISaISt10shared_ptrIN12AssemblyUtil12SectionEntryEEES4_E17_S_select_on_copyERKS5_
0000000000017dd6 W _ZN9__gnu_cxx14__alloc_traitsISaISt10shared_ptrIN12AssemblyUtil16SymbolTableEntryEEES4_E17_S_select_on_copyERKS5_
000000000001827d W _ZN9__gnu_cxx14__alloc_traitsISaISt10shared_ptrIN12AssemblyUtil20RelocationTableEntryEEES4_E17_S_select_on_copyERKS5_
00000000000259f6 W _ZN9__gnu_cxx14__alloc_traitsISaISt10shared_ptrIN15InstructionUtil14CodePopulationEEES4_E15_S_always_equalEv
0000000000028371 W _ZN9__gnu_cxx14__alloc_traitsISaISt10shared_ptrIN15InstructionUtil14CodePopulationEEES4_E17_S_select_on_copyERKS5_
000000000002ec23 W _ZN9__gnu_cxx14__alloc_traitsISaISt10shared_ptrIN15InstructionUtil14CodePopulationEEES4_E27_S_propagate_on_copy_assignEv
000000000002639b W _ZN9__gnu_cxx14__alloc_traitsISaISt4pairIN12AssemblyUtil11InstructionESt6vectorISt10shared_ptrIN15InstructionUtil14CodePopulationEESaIS8_EEEESB_E15_S_always_equalEv
0000000000027de7 W _ZN9__gnu_cxx14__alloc_traitsISaISt4pairIN12AssemblyUtil11InstructionESt6vectorISt10shared_ptrIN15InstructionUtil14CodePopulationEESaIS8_EEEESB_E17_S_select_on_copyERKSC_
000000000002638c W _ZN9__gnu_cxx14__alloc_traitsISaISt4pairIN12AssemblyUtil11InstructionESt6vectorISt10shared_ptrIN15InstructionUtil14CodePopulationEESaIS8_EEEESB_E27_S_propagate_on_copy_assignEv
000000000000f1e4 W _ZN9__gnu_cxx14__alloc_traitsISaISt4pairINSt7__cxx1112basic_stringIcSt11char_traitsIcESaIcEEEmEES8_E17_S_select_on_copyERKS9_
000000000001ac76 W _ZN9__gnu_cxx16__aligned_bufferIN10LinkerUtil16SectionMergeDataEE6_M_ptrEv
000000000001bb4c W _ZN9__gnu_cxx16__aligned_bufferIN10LinkerUtil16SectionMergeDataEE7_M_addrEv
000000000001a9dc W _ZN9__gnu_cxx16__aligned_bufferIN12AssemblyUtil12SectionEntryEE6_M_ptrEv
000000000001b880 W _ZN9__gnu_cxx16__aligned_bufferIN12AssemblyUtil12SectionEntryEE7_M_addrEv
000000000001b336 W _ZN9__gnu_cxx16__aligned_bufferIN12AssemblyUtil16SymbolTableEntryEE6_M_ptrEv
000000000001c170 W _ZN9__gnu_cxx16__aligned_bufferIN12AssemblyUtil16SymbolTableEntryEE7_M_addrEv
000000000001b50c W _ZN9__gnu_cxx16__aligned_bufferIN12AssemblyUtil20RelocationTableEntryEE6_M_ptrEv
000000000001c350 W _ZN9__gnu_cxx16__aligned_bufferIN12AssemblyUtil20RelocationTableEntryEE7_M_addrEv
000000000002e0e6 W _ZN9__gnu_cxx16__aligned_bufferIN15InstructionUtil14CodePopulationEE6_M_ptrEv
000000000002e624 W _ZN9__gnu_cxx16__aligned_bufferIN15InstructionUtil14CodePopulationEE7_M_addrEv
0000000000034fd2 W _ZN9__gnu_cxx16__aligned_bufferISt4pairIKNSt7__cxx1112basic_stringIcSt11char_traitsIcESaIcEEEN10ParserUtil4eCSREEE6_M_ptrEv
0000000000035c9e W _ZN9__gnu_cxx16__aligned_bufferISt4pairIKNSt7__cxx1112basic_stringIcSt11char_traitsIcESaIcEEEN10ParserUtil4eCSREEE7_M_addrEv
000000000003476c W _ZN9__gnu_cxx16__aligned_bufferISt4pairIKNSt7__cxx1112basic_stringIcSt11char_traitsIcESaIcEEEN10ParserUtil4eGPREEE6_M_ptrEv
000000000003572a W _ZN9__gnu_cxx16__aligned_bufferISt4pairIKNSt7__cxx1112basic_stringIcSt11char_traitsIcESaIcEEEN10ParserUtil4eGPREEE7_M_addrEv
000000000002b096 W _ZN9__gnu_cxx16__aligned_membufISt4pairIKN10ParserUtil12eOperandTypeESt3mapINS2_15eAddressingTypeESt6vectorIS1_IN12AssemblyUtil11InstructionES7_ISt10shared_ptrIN15InstructionUtil14CodePopulationEESaISD_EEESaISG_EESt4lessIS6_ESaIS1_IKS6_SI_EEEEE6_M_ptrEv
000000000002c63c W _ZN9__gnu_cxx16__aligned_membufISt4pairIKN10ParserUtil12eOperandTypeESt3mapINS2_15eAddressingTypeESt6vectorIS1_IN12AssemblyUtil11InstructionES7_ISt10shared_ptrIN15InstructionUtil14CodePopulationEESaISD_EEESaISG_EESt4lessIS6_ESaIS1_IKS6_SI_EEEEE7_M_addrEv
000000000002b63a W _ZN9__gnu_cxx16__aligned_membufISt4pairIKN10ParserUtil15eAddressingTypeESt6vectorIS1_IN12AssemblyUtil11InstructionES5_ISt10shared_ptrIN15InstructionUtil14CodePopulationEESaISB_EEESaISE_EEEE6_M_ptrEv
000000000002c83c W _ZN9__gnu_cxx16__aligned_membufISt4pairIKN10ParserUtil15eAddressingTypeESt6vectorIS1_IN12AssemblyUtil11InstructionES5_ISt10shared_ptrIN15InstructionUtil14CodePopulationEESaISB_EEESaISE_EEEE7_M_addrEv
000000000002ab84 W _ZN9__gnu_cxx16__aligned_membufISt4pairIKN10ParserUtil22eInstructionIdentifierESt3mapINS2_12eOperandTypeES5_INS2_15eAddressingTypeESt6vectorIS1_IN12AssemblyUtil11InstructionES8_ISt10shared_ptrIN15InstructionUtil14CodePopulationEESaISE_EEESaISH_EESt4lessIS7_ESaIS1_IKS7_SJ_EEESK_IS6_ESaIS1_IKS6_SP_EEEEE6_M_ptrEv
000000000002c4aa W _ZN9__gnu_cxx16__aligned_membufISt4pairIKN10ParserUtil22eInstructionIdentifierESt3mapINS2_12eOperandTypeES5_INS2_15eAddressingTypeESt6vectorIS1_IN12AssemblyUtil11InstructionES8_ISt10shared_ptrIN15InstructionUtil14CodePopulationEESaISE_EEESaISH_EESt4lessIS7_ESaIS1_IKS7_SJ_EEESK_IS6_ESaIS1_IKS6_SP_EEEEE7_M_addrEv
0000000000015b54 W _ZN9__gnu_cxx16__aligned_membufISt4pairIKNSt7__cxx1112basic_stringIcSt11char_traitsIcESaIcEEEN10LinkerUtil15eInputFileStateEEE6_M_ptrEv
0000000000017c02 W _ZN9__gnu_cxx16__aligned_membufISt4pairIKNSt7__cxx1112basic_stringIcSt11char_traitsIcESaIcEEEN10LinkerUtil15eInputFileStateEEE7_M_addrEv
000000000001316a W _ZN9__gnu_cxx16__aligned_membufISt4pairIKNSt7__cxx1112basic_stringIcSt11char_traitsIcESaIcEEESt10shared_ptrIN10LinkerUtil16SectionMergeDataEEEE6_M_ptrEv
0000000000015a06 W _ZN9__gnu_cxx16__aligned_membufISt4pairIKNSt7__cxx1112basic_stringIcSt11char_traitsIcESaIcEEESt10shared_ptrIN10LinkerUtil16SectionMergeDataEEEE7_M_addrEv
0000000000011683 W _ZN9__gnu_cxx17__is_null_pointerIKcEEbPT_
0000000000011622 W _ZN9__gnu_cxx17__normal_iteratorIPhSt6vectorIhSaIhEEEC1ERKS1_
0000000000011622 W _ZN9__gnu_cxx17__normal_iteratorIPhSt6vectorIhSaIhEEEC2ERKS1_
000000000000e634 W _ZN9__gnu_cxx17__normal_iteratorIPhSt6vectorIhSaIhEEEppEv
00000000000204ca W _ZN9__gnu_cxx17__normal_iteratorIPKhSt6vectorIhSaIhEEEC1ERKS2_
00000000000204ca W _ZN9__gnu_cxx17__normal_iteratorIPKhSt6vectorIhSaIhEEEC2ERKS2_
000000000002012a W _ZN9__gnu_cxx17__normal_iteratorIPKhSt6vectorIhSaIhEEEppEv
00000000000120d6 W _ZN9__gnu_cxx17__normal_iteratorIPKNSt7__cxx1112basic_stringIcSt11char_traitsIcESaIcEEESt6vectorIS6_SaIS6_EEEC1ERKS8_
00000000000120d6 W _ZN9__gnu_cxx17__normal_iteratorIPKNSt7__cxx1112basic_stringIcSt11char_traitsIcESaIcEEESt6vectorIS6_SaIS6_EEEC2ERKS8_
0000000000016e92 W _ZN9__gnu_cxx17__normal_iteratorIPKNSt7__cxx1112basic_stringIcSt11char_traitsIcESaIcEEESt6vectorIS6_SaIS6_EEEppEv
00000000000101fa W _ZN9__gnu_cxx17__normal_iteratorIPKSt10shared_ptrIN12AssemblyUtil12SectionEntryEESt6vectorIS4_SaIS4_EEEC1ERKS6_
00000000000101fa W _ZN9__gnu_cxx17__normal_iteratorIPKSt10shared_ptrIN12AssemblyUtil12SectionEntryEESt6vectorIS4_SaIS4_EEEC2ERKS6_
000000000000da5c W _ZN9__gnu_cxx17__normal_iteratorIPKSt10shared_ptrIN12AssemblyUtil12SectionEntryEESt6vectorIS4_SaIS4_EEEppEv
000000000000f700 W _ZN9__gnu_cxx17__normal_iteratorIPKSt10shared_ptrIN12AssemblyUtil16SymbolTableEntryEESt6vectorIS4_SaIS4_EEEC1ERKS6_
000000000000f700 W _ZN9__gnu_cxx17__normal_iteratorIPKSt10shared_ptrIN12AssemblyUtil16SymbolTableEntryEESt6vectorIS4_SaIS4_EEEC2ERKS6_
000000000000c756 W _ZN9__gnu_cxx17__normal_iteratorIPKSt10shared_ptrIN12AssemblyUtil16SymbolTableEntryEESt6vectorIS4_SaIS4_EEEppEv
000000000000fa38 W _ZN9__gnu_cxx17__normal_iteratorIPKSt10shared_ptrIN12AssemblyUtil20RelocationTableEntryEESt6vectorIS4_SaIS4_EEEC1ERKS6_
000000000000fa38 W _ZN9__gnu_cxx17__normal_iteratorIPKSt10shared_ptrIN12AssemblyUtil20RelocationTableEntryEESt6vectorIS4_SaIS4_EEEC2ERKS6_
000000000000cd86 W _ZN9__gnu_cxx17__normal_iteratorIPKSt10shared_ptrIN12AssemblyUtil20RelocationTableEntryEESt6vectorIS4_SaIS4_EEEppEv
000000000002a6aa W _ZN9__gnu_cxx17__normal_iteratorIPKSt10shared_ptrIN15InstructionUtil14CodePopulationEESt6vectorIS4_SaIS4_EEEC1ERKS6_
000000000002a6aa W _ZN9__gnu_cxx17__normal_iteratorIPKSt10shared_ptrIN15InstructionUtil14CodePopulationEESt6vectorIS4_SaIS4_EEEC2ERKS6_
000000000002d43e W _ZN9__gnu_cxx17__normal_iteratorIPKSt10shared_ptrIN15InstructionUtil14CodePopulationEESt6vectorIS4_SaIS4_EEEppEv
0000000000029c48 W _ZN9__gnu_cxx17__normal_iteratorIPKSt4pairIN12AssemblyUtil11InstructionESt6vectorISt10shared_ptrIN15InstructionUtil14CodePopulationEESaIS8_EEES4_ISB_SaISB_EEEC1ERKSD_
0000000000029c48 W _ZN9__gnu_cxx17__normal_iteratorIPKSt4pairIN12AssemblyUtil11InstructionESt6vectorISt10shared_ptrIN15InstructionUtil14CodePopulationEESaIS8_EEES4_ISB_SaISB_EEEC2ERKSD_
000000000002ce50 W _ZN9__gnu_cxx17__normal_iteratorIPKSt4pairIN12AssemblyUtil11InstructionESt6vectorISt10shared_ptrIN15InstructionUtil14CodePopulationEESaIS8_EEES4_ISB_SaISB_EEEppEv
0000000000011f4e W _ZN9__gnu_cxx17__normal_iteratorIPKSt4pairINSt7__cxx1112basic_stringIcSt11char_traitsIcESaIcEEEmESt6vectorIS8_SaIS8_EEEC1ERKSA_
0000000000011f4e W _ZN9__gnu_cxx17__normal_iteratorIPKSt4pairINSt7__cxx1112basic_stringIcSt11char_traitsIcESaIcEEEmESt6vectorIS8_SaIS8_EEEC2ERKSA_
0000000000016cc6 W _ZN9__gnu_cxx17__normal_iteratorIPKSt4pairINSt7__cxx1112basic_stringIcSt11char_traitsIcESaIcEEEmESt6vectorIS8_SaIS8_EEEppEv
0000000000010838 W _ZN9__gnu_cxx17__normal_iteratorIPNSt7__cxx1112basic_stringIcSt11char_traitsIcESaIcEEESt6vectorIS6_SaIS6_EEEC1ERKS7_
0000000000010838 W _ZN9__gnu_cxx17__normal_iteratorIPNSt7__cxx1112basic_stringIcSt11char_traitsIcESaIcEEESt6vectorIS6_SaIS6_EEEC2ERKS7_
000000000000df2e W _ZN9__gnu_cxx17__normal_iteratorIPNSt7__cxx1112basic_stringIcSt11char_traitsIcESaIcEEESt6vectorIS6_SaIS6_EEEppEv
000000000000fde2 W _ZN9__gnu_cxx17__normal_iteratorIPSt10shared_ptrIN10LinkerUtil16SectionMergeDataEESt6vectorIS4_SaIS4_EEEC1ERKS5_
000000000000fde2 W _ZN9__gnu_cxx17__normal_iteratorIPSt10shared_ptrIN10LinkerUtil16SectionMergeDataEESt6vectorIS4_SaIS4_EEEC2ERKS5_
0000000000019716 W _ZN9__gnu_cxx17__normal_iteratorIPSt10shared_ptrIN10LinkerUtil16SectionMergeDataEESt6vectorIS4_SaIS4_EEEmmEv
000000000000d338 W _ZN9__gnu_cxx17__normal_iteratorIPSt10shared_ptrIN10LinkerUtil16SectionMergeDataEESt6vectorIS4_SaIS4_EEEppEv
000000000000fcb4 W _ZN9__gnu_cxx17__normal_iteratorIPSt10shared_ptrIN12AssemblyUtil12SectionEntryEESt6vectorIS4_SaIS4_EEEC1ERKS5_
000000000000fcb4 W _ZN9__gnu_cxx17__normal_iteratorIPSt10shared_ptrIN12AssemblyUtil12SectionEntryEESt6vectorIS4_SaIS4_EEEC2ERKS5_
000000000000d076 W _ZN9__gnu_cxx17__normal_iteratorIPSt10shared_ptrIN12AssemblyUtil12SectionEntryEESt6vectorIS4_SaIS4_EEEppEv
000000000000f9d0 W _ZN9__gnu_cxx17__normal_iteratorIPSt10shared_ptrIN12AssemblyUtil16SymbolTableEntryEESt6vectorIS4_SaIS4_EEEC1ERKS5_
000000000000f9d0 W _ZN9__gnu_cxx17__normal_iteratorIPSt10shared_ptrIN12AssemblyUtil16SymbolTableEntryEESt6vectorIS4_SaIS4_EEEC2ERKS5_
000000000000cb10 W _ZN9__gnu_cxx17__normal_iteratorIPSt10shared_ptrIN12AssemblyUtil16SymbolTableEntryEESt6vectorIS4_SaIS4_EEEppEv
000000000000fc80 W _ZN9__gnu_cxx17__normal_iteratorIPSt10shared_ptrIN12AssemblyUtil20RelocationTableEntryEESt6vectorIS4_SaIS4_EEEC1ERKS5_
000000000000fc80 W _ZN9__gnu_cxx17__normal_iteratorIPSt10shared_ptrIN12AssemblyUtil20RelocationTableEntryEESt6vectorIS4_SaIS4_EEEC2ERKS5_
000000000000cf60 W _ZN9__gnu_cxx17__normal_iteratorIPSt10shared_ptrIN12AssemblyUtil20RelocationTableEntryEESt6vectorIS4_SaIS4_EEEppEv
000000000002a29a W _ZN9__gnu_cxx17__normal_iteratorIPSt10shared_ptrIN15InstructionUtil14CodePopulationEESt6vectorIS4_SaIS4_EEEC1ERKS5_
000000000002a29a W _ZN9__gnu_cxx17__normal_iteratorIPSt10shared_ptrIN15InstructionUtil14CodePopulationEESt6vectorIS4_SaIS4_EEEC2ERKS5_
000000000002fcf8 W _ZN9__gnu_cxx17__normal_iteratorIPSt10shared_ptrIN15InstructionUtil14CodePopulationEESt6vectorIS4_SaIS4_EEEppEv
000000000000fea0 W _ZN9__gnu_cxx17__normal_iteratorIPSt4pairIiSt10shared_ptrIN12AssemblyUtil12SectionEntryEEESt6vectorIS6_SaIS6_EEEC1ERKS7_
000000000000fea0 W _ZN9__gnu_cxx17__normal_iteratorIPSt4pairIiSt10shared_ptrIN12AssemblyUtil12SectionEntryEEESt6vectorIS6_SaIS6_EEEC2ERKS7_
000000000000d548 W _ZN9__gnu_cxx17__normal_iteratorIPSt4pairIiSt10shared_ptrIN12AssemblyUtil12SectionEntryEEESt6vectorIS6_SaIS6_EEEppEv
0000000000026da6 W _ZN9__gnu_cxx17__normal_iteratorIPSt4pairIMN12AssemblyUtil11InstructionEFvtEN15InstructionUtil11eValueToUseEESt6vectorIS8_SaIS8_EEEC1ERKS9_
0000000000026da6 W _ZN9__gnu_cxx17__normal_iteratorIPSt4pairIMN12AssemblyUtil11InstructionEFvtEN15InstructionUtil11eValueToUseEESt6vectorIS8_SaIS8_EEEC2ERKS9_
0000000000025e52 W _ZN9__gnu_cxx17__normal_iteratorIPSt4pairIMN12AssemblyUtil11InstructionEFvtEN15InstructionUtil11eValueToUseEESt6vectorIS8_SaIS8_EEEppEv
0000000000029ccc W _ZN9__gnu_cxx17__normal_iteratorIPSt4pairIN12AssemblyUtil11InstructionESt6vectorISt10shared_ptrIN15InstructionUtil14CodePopulationEESaIS8_EEES4_ISB_SaISB_EEEC1ERKSC_
0000000000029ccc W _ZN9__gnu_cxx17__normal_iteratorIPSt4pairIN12AssemblyUtil11InstructionESt6vectorISt10shared_ptrIN15InstructionUtil14CodePopulationEESaIS8_EEES4_ISB_SaISB_EEEC2ERKSC_
000000000002cbbc W _ZN9__gnu_cxx17__normal_iteratorIPSt4pairIN12AssemblyUtil11InstructionESt6vectorISt10shared_ptrIN15InstructionUtil14CodePopulationEESaIS8_EEES4_ISB_SaISB_EEEppEv
00000000000100ca W _ZN9__gnu_cxx17__normal_iteratorIPSt4pairINSt7__cxx1112basic_stringIcSt11char_traitsIcESaIcEEEmESt6vectorIS8_SaIS8_EEEC1ERKS9_
00000000000100ca W _ZN9__gnu_cxx17__normal_iteratorIPSt4pairINSt7__cxx1112basic_stringIcSt11char_traitsIcESaIcEEEmESt6vectorIS8_SaIS8_EEEC2ERKS9_
00000000000190c4 W _ZN9__gnu_cxx17__normal_iteratorIPSt4pairINSt7__cxx1112basic_stringIcSt11char_traitsIcESaIcEEEmESt6vectorIS8_SaIS8_EEEmmEv
000000000000d796 W _ZN9__gnu_cxx17__normal_iteratorIPSt4pairINSt7__cxx1112basic_stringIcSt11char_traitsIcESaIcEEEmESt6vectorIS8_SaIS8_EEEppEv
00000000000101c6 W _ZN9__gnu_cxx17__normal_iteratorIPSt6vectorISt10shared_ptrIN12AssemblyUtil12SectionEntryEESaIS5_EES1_IS7_SaIS7_EEEC1ERKS8_
00000000000101c6 W _ZN9__gnu_cxx17__normal_iteratorIPSt6vectorISt10shared_ptrIN12AssemblyUtil12SectionEntryEESaIS5_EES1_IS7_SaIS7_EEEC2ERKS8_
000000000000d946 W _ZN9__gnu_cxx17__normal_iteratorIPSt6vectorISt10shared_ptrIN12AssemblyUtil12SectionEntryEESaIS5_EES1_IS7_SaIS7_EEEppEv
000000000000f6cc W _ZN9__gnu_cxx17__normal_iteratorIPSt6vectorISt10shared_ptrIN12AssemblyUtil16SymbolTableEntryEESaIS5_EES1_IS7_SaIS7_EEEC1ERKS8_
000000000000f6cc W _ZN9__gnu_cxx17__normal_iteratorIPSt6vectorISt10shared_ptrIN12AssemblyUtil16SymbolTableEntryEESaIS5_EES1_IS7_SaIS7_EEEC2ERKS8_
000000000000c640 W _ZN9__gnu_cxx17__normal_iteratorIPSt6vectorISt10shared_ptrIN12AssemblyUtil16SymbolTableEntryEESaIS5_EES1_IS7_SaIS7_EEEppEv
000000000000fa04 W _ZN9__gnu_cxx17__normal_iteratorIPSt6vectorISt10shared_ptrIN12AssemblyUtil20RelocationTableEntryEESaIS5_EES1_IS7_SaIS7_EEEC1ERKS8_
000000000000fa04 W _ZN9__gnu_cxx17__normal_iteratorIPSt6vectorISt10shared_ptrIN12AssemblyUtil20RelocationTableEntryEESaIS5_EES1_IS7_SaIS7_EEEC2ERKS8_
000000000000cc70 W _ZN9__gnu_cxx17__normal_iteratorIPSt6vectorISt10shared_ptrIN12AssemblyUtil20RelocationTableEntryEESaIS5_EES1_IS7_SaIS7_EEEppEv
000000000000b8a2 W _ZN9__gnu_cxx6__stoaIlicJiEEET0_PFT_PKT1_PPS3_DpT2_EPKcS5_PmS9_
0000000000030c94 W _ZN9__gnu_cxx6__stoaImmcJiEEET0_PFT_PKT1_PPS3_DpT2_EPKcS5_PmS9_
0000000000017af1 W _ZN9__gnu_cxxeqIPSt10shared_ptrIN10LinkerUtil16SectionMergeDataEESt6vectorIS4_SaIS4_EEEEbRKNS_17__normal_iteratorIT_T0_EESE_
000000000001756f W _ZN9__gnu_cxxeqIPSt4pairINSt7__cxx1112basic_stringIcSt11char_traitsIcESaIcEEEmESt6vectorIS8_SaIS8_EEEEbRKNS_17__normal_iteratorIT_T0_EESI_
00000000000196d7 W _ZN9__gnu_cxxltIPSt10shared_ptrIN10LinkerUtil16SectionMergeDataEESt6vectorIS4_SaIS4_EEEEbRKNS_17__normal_iteratorIT_T0_EESE_
0000000000019085 W _ZN9__gnu_cxxltIPSt4pairINSt7__cxx1112basic_stringIcSt11char_traitsIcESaIcEEEmESt6vectorIS8_SaIS8_EEEEbRKNS_17__normal_iteratorIT_T0_EESI_
0000000000016737 W _ZN9__gnu_cxxmiIPhSt6vectorIhSaIhEEEENS_17__normal_iteratorIT_T0_E15difference_typeERKS8_SB_
000000000001e6f5 W _ZN9__gnu_cxxmiIPNSt7__cxx1112basic_stringIcSt11char_traitsIcESaIcEEESt6vectorIS6_SaIS6_EEEENS_17__normal_iteratorIT_T0_E15difference_typeERKSE_SH_
00000000000132d5 W _ZN9__gnu_cxxmiIPSt10shared_ptrIN10LinkerUtil16SectionMergeDataEESt6vectorIS4_SaIS4_EEEENS_17__normal_iteratorIT_T0_E15difference_typeERKSC_SF_
0000000000012801 W _ZN9__gnu_cxxmiIPSt10shared_ptrIN12AssemblyUtil12SectionEntryEESt6vectorIS4_SaIS4_EEEENS_17__normal_iteratorIT_T0_E15difference_typeERKSC_SF_
00000000000122b9 W _ZN9__gnu_cxxmiIPSt10shared_ptrIN12AssemblyUtil16SymbolTableEntryEESt6vectorIS4_SaIS4_EEEENS_17__normal_iteratorIT_T0_E15difference_typeERKSC_SF_
00000000000124f7 W _ZN9__gnu_cxxmiIPSt10shared_ptrIN12AssemblyUtil20RelocationTableEntryEESt6vectorIS4_SaIS4_EEEENS_17__normal_iteratorIT_T0_E15difference_typeERKSC_SF_
000000000002a3f8 W _ZN9__gnu_cxxmiIPSt10shared_ptrIN15InstructionUtil14CodePopulationEESt6vectorIS4_SaIS4_EEEENS_17__normal_iteratorIT_T0_E15difference_typeERKSC_SF_
00000000000146c7 W _ZN9__gnu_cxxmiIPSt4pairIiSt10shared_ptrIN12AssemblyUtil12SectionEntryEEESt6vectorIS6_SaIS6_EEEENS_17__normal_iteratorIT_T0_E15difference_typeERKSE_SH_
000000000002a961 W _ZN9__gnu_cxxmiIPSt4pairIN12AssemblyUtil11InstructionESt6vectorISt10shared_ptrIN15InstructionUtil14CodePopulationEESaIS8_EEES4_ISB_SaISB_EEEENS_17__normal_iteratorIT_T0_E15difference_typeERKSI_SL_
00000000000128db W _ZN9__gnu_cxxmiIPSt4pairINSt7__cxx1112basic_stringIcSt11char_traitsIcESaIcEEEmESt6vectorIS8_SaIS8_EEEENS_17__normal_iteratorIT_T0_E15difference_typeERKSG_SJ_
0000000000013ebf W _ZN9__gnu_cxxmiIPSt6vectorISt10shared_ptrIN12AssemblyUtil12SectionEntryEESaIS5_EES1_IS7_SaIS7_EEEENS_17__normal_iteratorIT_T0_E15difference_typeERKSE_SH_
0000000000013c5b W _ZN9__gnu_cxxmiIPSt6vectorISt10shared_ptrIN12AssemblyUtil16SymbolTableEntryEESaIS5_EES1_IS7_SaIS7_EEEENS_17__normal_iteratorIT_T0_E15difference_typeERKSE_SH_
0000000000014123 W _ZN9__gnu_cxxmiIPSt6vectorISt10shared_ptrIN12AssemblyUtil20RelocationTableEntryEESaIS5_EES1_IS7_SaIS7_EEEENS_17__normal_iteratorIT_T0_E15difference_typeERKSE_SH_
000000000000e5f4 W _ZN9__gnu_cxxneIPhSt6vectorIhSaIhEEEEbRKNS_17__normal_iteratorIT_T0_EESA_
00000000000200ea W _ZN9__gnu_cxxneIPKhSt6vectorIhSaIhEEEEbRKNS_17__normal_iteratorIT_T0_EESB_
0000000000016e52 W _ZN9__gnu_cxxneIPKNSt7__cxx1112basic_stringIcSt11char_traitsIcESaIcEEESt6vectorIS6_SaIS6_EEEEbRKNS_17__normal_iteratorIT_T0_EESH_
000000000000da1c W _ZN9__gnu_cxxneIPKSt10shared_ptrIN12AssemblyUtil12SectionEntryEESt6vectorIS4_SaIS4_EEEEbRKNS_17__normal_iteratorIT_T0_EESF_
000000000000c716 W _ZN9__gnu_cxxneIPKSt10shared_ptrIN12AssemblyUtil16SymbolTableEntryEESt6vectorIS4_SaIS4_EEEEbRKNS_17__normal_iteratorIT_T0_EESF_
000000000000cd46 W _ZN9__gnu_cxxneIPKSt10shared_ptrIN12AssemblyUtil20RelocationTableEntryEESt6vectorIS4_SaIS4_EEEEbRKNS_17__normal_iteratorIT_T0_EESF_
000000000002d3ff W _ZN9__gnu_cxxneIPKSt10shared_ptrIN15InstructionUtil14CodePopulationEESt6vectorIS4_SaIS4_EEEEbRKNS_17__normal_iteratorIT_T0_EESF_
000000000002ce11 W _ZN9__gnu_cxxneIPKSt4pairIN12AssemblyUtil11InstructionESt6vectorISt10shared_ptrIN15InstructionUtil14CodePopulationEESaIS8_EEES4_ISB_SaISB_EEEEbRKNS_17__normal_iteratorIT_T0_EESL_
0000000000016c86 W _ZN9__gnu_cxxneIPKSt4pairINSt7__cxx1112basic_stringIcSt11char_traitsIcESaIcEEEmESt6vectorIS8_SaIS8_EEEEbRKNS_17__normal_iteratorIT_T0_EESJ_
000000000000deee W _ZN9__gnu_cxxneIPNSt7__cxx1112basic_stringIcSt11char_traitsIcESaIcEEESt6vectorIS6_SaIS6_EEEEbRKNS_17__normal_iteratorIT_T0_EESG_
000000000000d2f8 W _ZN9__gnu_cxxneIPSt10shared_ptrIN10LinkerUtil16SectionMergeDataEESt6vectorIS4_SaIS4_EEEEbRKNS_17__normal_iteratorIT_T0_EESE_
000000000000d036 W _ZN9__gnu_cxxneIPSt10shared_ptrIN12AssemblyUtil12SectionEntryEESt6vectorIS4_SaIS4_EEEEbRKNS_17__normal_iteratorIT_T0_EESE_
000000000000cad0 W _ZN9__gnu_cxxneIPSt10shared_ptrIN12AssemblyUtil16SymbolTableEntryEESt6vectorIS4_SaIS4_EEEEbRKNS_17__normal_iteratorIT_T0_EESE_
000000000000cf20 W _ZN9__gnu_cxxneIPSt10shared_ptrIN12AssemblyUtil20RelocationTableEntryEESt6vectorIS4_SaIS4_EEEEbRKNS_17__normal_iteratorIT_T0_EESE_
000000000002fcb8 W _ZN9__gnu_cxxneIPSt10shared_ptrIN15InstructionUtil14CodePopulationEESt6vectorIS4_SaIS4_EEEEbRKNS_17__normal_iteratorIT_T0_EESE_
000000000000d508 W _ZN9__gnu_cxxneIPSt4pairIiSt10shared_ptrIN12AssemblyUtil12SectionEntryEEESt6vectorIS6_SaIS6_EEEEbRKNS_17__normal_iteratorIT_T0_EESG_
0000000000025e12 W _ZN9__gnu_cxxneIPSt4pairIMN12AssemblyUtil11InstructionEFvtEN15InstructionUtil11eValueToUseEESt6vectorIS8_SaIS8_EEEEbRKNS_17__normal_iteratorIT_T0_EESI_
000000000002cb7c W _ZN9__gnu_cxxneIPSt4pairIN12AssemblyUtil11InstructionESt6vectorISt10shared_ptrIN15InstructionUtil14CodePopulationEESaIS8_EEES4_ISB_SaISB_EEEEbRKNS_17__normal_iteratorIT_T0_EESK_
000000000000d756 W _ZN9__gnu_cxxneIPSt4pairINSt7__cxx1112basic_stringIcSt11char_traitsIcESaIcEEEmESt6vectorIS8_SaIS8_EEEEbRKNS_17__normal_iteratorIT_T0_EESI_
000000000000d906 W _ZN9__gnu_cxxneIPSt6vectorISt10shared_ptrIN12AssemblyUtil12SectionEntryEESaIS5_EES1_IS7_SaIS7_EEEEbRKNS_17__normal_iteratorIT_T0_EESG_
000000000000c600 W _ZN9__gnu_cxxneIPSt6vectorISt10shared_ptrIN12AssemblyUtil16SymbolTableEntryEESaIS5_EES1_IS7_SaIS7_EEEEbRKNS_17__normal_iteratorIT_T0_EESG_
000000000000cc30 W _ZN9__gnu_cxxneIPSt6vectorISt10shared_ptrIN12AssemblyUtil20RelocationTableEntryEESaIS5_EES1_IS7_SaIS7_EEEEbRKNS_17__normal_iteratorIT_T0_EESG_
00000000000216cc T _ZNK12AssemblyUtil11Instruction20GetInstructionUInt32Ev
000000000001a260 W _ZNK9__gnu_cxx13new_allocatorIhE11_M_max_sizeEv
000000000001c182 W _ZNK9__gnu_cxx13new_allocatorIhE8max_sizeEv
0000000000018bb2 W _ZNK9__gnu_cxx13new_allocatorINSt7__cxx1112basic_stringIcSt11char_traitsIcESaIcEEEE11_M_max_sizeEv
000000000001e98c W _ZNK9__gnu_cxx13new_allocatorINSt7__cxx1112basic_stringIcSt11char_traitsIcESaIcEEEE8max_sizeEv
0000000000035cc2 W _ZNK9__gnu_cxx13new_allocatorINSt8__detail10_Hash_nodeISt4pairIKNSt7__cxx1112basic_stringIcSt11char_traitsIcESaIcEEEN10ParserUtil4eCSREELb1EEEE11_M_max_sizeEv
000000000003574e W _ZNK9__gnu_cxx13new_allocatorINSt8__detail10_Hash_nodeISt4pairIKNSt7__cxx1112basic_stringIcSt11char_traitsIcESaIcEEEN10ParserUtil4eGPREELb1EEEE11_M_max_sizeEv
0000000000036424 W _ZNK9__gnu_cxx13new_allocatorIPNSt8__detail15_Hash_node_baseEE11_M_max_sizeEv
00000000000179a4 W _ZNK9__gnu_cxx13new_allocatorISt10shared_ptrIN10LinkerUtil16SectionMergeDataEEE11_M_max_sizeEv
000000000001ace4 W _ZNK9__gnu_cxx13new_allocatorISt10shared_ptrIN10LinkerUtil16SectionMergeDataEEE8max_sizeEv
0000000000017418 W _ZNK9__gnu_cxx13new_allocatorISt10shared_ptrIN12AssemblyUtil12SectionEntryEEE11_M_max_sizeEv
000000000001a9fa W _ZNK9__gnu_cxx13new_allocatorISt10shared_ptrIN12AssemblyUtil12SectionEntryEEE8max_sizeEv
0000000000016fe8 W _ZNK9__gnu_cxx13new_allocatorISt10shared_ptrIN12AssemblyUtil16SymbolTableEntryEEE11_M_max_sizeEv
000000000001a780 W _ZNK9__gnu_cxx13new_allocatorISt10shared_ptrIN12AssemblyUtil16SymbolTableEntryEEE8max_sizeEv
0000000000017148 W _ZNK9__gnu_cxx13new_allocatorISt10shared_ptrIN12AssemblyUtil20RelocationTableEntryEEE11_M_max_sizeEv
000000000001a7fa W _ZNK9__gnu_cxx13new_allocatorISt10shared_ptrIN12AssemblyUtil20RelocationTableEntryEEE8max_sizeEv
000000000002d06a W _ZNK9__gnu_cxx13new_allocatorISt10shared_ptrIN15InstructionUtil14CodePopulationEEE11_M_max_sizeEv
000000000002e42a W _ZNK9__gnu_cxx13new_allocatorISt10shared_ptrIN15InstructionUtil14CodePopulationEEE8max_sizeEv
000000000002d89e W _ZNK9__gnu_cxx13new_allocatorISt13_Rb_tree_nodeISt4pairIKN10ParserUtil12eOperandTypeESt3mapINS3_15eAddressingTypeESt6vectorIS2_IN12AssemblyUtil11InstructionES8_ISt10shared_ptrIN15InstructionUtil14CodePopulationEESaISE_EEESaISH_EESt4lessIS7_ESaIS2_IKS7_SJ_EEEEEE11_M_max_sizeEv
000000000002daf2 W _ZNK9__gnu_cxx13new_allocatorISt13_Rb_tree_nodeISt4pairIKN10ParserUtil15eAddressingTypeESt6vectorIS2_IN12AssemblyUtil11InstructionES6_ISt10shared_ptrIN15InstructionUtil14CodePopulationEESaISC_EEESaISF_EEEEE11_M_max_sizeEv
000000000002d6f6 W _ZNK9__gnu_cxx13new_allocatorISt13_Rb_tree_nodeISt4pairIKN10ParserUtil22eInstructionIdentifierESt3mapINS3_12eOperandTypeES6_INS3_15eAddressingTypeESt6vectorIS2_IN12AssemblyUtil11InstructionES9_ISt10shared_ptrIN15InstructionUtil14CodePopulationEESaISF_EEESaISI_EESt4lessIS8_ESaIS2_IKS8_SK_EEESL_IS7_ESaIS2_IKS7_SQ_EEEEEE11_M_max_sizeEv
00000000000198d2 W _ZNK9__gnu_cxx13new_allocatorISt13_Rb_tree_nodeISt4pairIKNSt7__cxx1112basic_stringIcSt11char_traitsIcESaIcEEEN10LinkerUtil15eInputFileStateEEEE11_M_max_sizeEv
0000000000019490 W _ZNK9__gnu_cxx13new_allocatorISt13_Rb_tree_nodeISt4pairIKNSt7__cxx1112basic_stringIcSt11char_traitsIcESaIcEEESt10shared_ptrIN10LinkerUtil16SectionMergeDataEEEEE11_M_max_sizeEv
000000000001b946 W _ZNK9__gnu_cxx13new_allocatorISt23_Sp_counted_ptr_inplaceIN10LinkerUtil16SectionMergeDataESaIS3_ELNS_12_Lock_policyE2EEE11_M_max_sizeEv
000000000001b67e W _ZNK9__gnu_cxx13new_allocatorISt23_Sp_counted_ptr_inplaceIN12AssemblyUtil12SectionEntryESaIS3_ELNS_12_Lock_policyE2EEE11_M_max_sizeEv
000000000001bef6 W _ZNK9__gnu_cxx13new_allocatorISt23_Sp_counted_ptr_inplaceIN12AssemblyUtil16SymbolTableEntryESaIS3_ELNS_12_Lock_policyE2EEE11_M_max_sizeEv
000000000001c1a0 W _ZNK9__gnu_cxx13new_allocatorISt23_Sp_counted_ptr_inplaceIN12AssemblyUtil20RelocationTableEntryESaIS3_ELNS_12_Lock_policyE2EEE11_M_max_sizeEv
000000000002e4a4 W _ZNK9__gnu_cxx13new_allocatorISt23_Sp_counted_ptr_inplaceIN15InstructionUtil14CodePopulationESaIS3_ELNS_12_Lock_policyE2EEE11_M_max_sizeEv
0000000000018952 W _ZNK9__gnu_cxx13new_allocatorISt4pairIiSt10shared_ptrIN12AssemblyUtil12SectionEntryEEEE11_M_max_sizeEv
000000000001b52a W _ZNK9__gnu_cxx13new_allocatorISt4pairIiSt10shared_ptrIN12AssemblyUtil12SectionEntryEEEE8max_sizeEv
000000000002cd1e W _ZNK9__gnu_cxx13new_allocatorISt4pairIMN12AssemblyUtil11InstructionEFvtEN15InstructionUtil11eValueToUseEEE11_M_max_sizeEv
000000000002ddec W _ZNK9__gnu_cxx13new_allocatorISt4pairIMN12AssemblyUtil11InstructionEFvtEN15InstructionUtil11eValueToUseEEE8max_sizeEv
000000000002ca10 W _ZNK9__gnu_cxx13new_allocatorISt4pairIN12AssemblyUtil11InstructionESt6vectorISt10shared_ptrIN15InstructionUtil14CodePopulationEESaIS8_EEEE11_M_max_sizeEv
000000000002e636 W _ZNK9__gnu_cxx13new_allocatorISt4pairIN12AssemblyUtil11InstructionESt6vectorISt10shared_ptrIN15InstructionUtil14CodePopulationEESaIS8_EEEE8max_sizeEv
0000000000018b06 W _ZNK9__gnu_cxx13new_allocatorISt4pairINSt7__cxx1112basic_stringIcSt11char_traitsIcESaIcEEEmEE11_M_max_sizeEv
000000000003187c W _ZNK9__gnu_cxx13new_allocatorISt4pairINSt7__cxx1112basic_stringIcSt11char_traitsIcESaIcEEEmEE8max_sizeEv
0000000000018190 W _ZNK9__gnu_cxx13new_allocatorISt6vectorISt10shared_ptrIN12AssemblyUtil12SectionEntryEESaIS5_EEE11_M_max_sizeEv
000000000001b068 W _ZNK9__gnu_cxx13new_allocatorISt6vectorISt10shared_ptrIN12AssemblyUtil12SectionEntryEESaIS5_EEE8max_sizeEv
0000000000017f3c W _ZNK9__gnu_cxx13new_allocatorISt6vectorISt10shared_ptrIN12AssemblyUtil16SymbolTableEntryEESaIS5_EEE11_M_max_sizeEv
000000000001af48 W _ZNK9__gnu_cxx13new_allocatorISt6vectorISt10shared_ptrIN12AssemblyUtil16SymbolTableEntryEESaIS5_EEE8max_sizeEv
00000000000183e4 W _ZNK9__gnu_cxx13new_allocatorISt6vectorISt10shared_ptrIN12AssemblyUtil20RelocationTableEntryEESaIS5_EEE11_M_max_sizeEv
000000000001b188 W _ZNK9__gnu_cxx13new_allocatorISt6vectorISt10shared_ptrIN12AssemblyUtil20RelocationTableEntryEESaIS5_EEE8max_sizeEv
00000000000365fa W _ZNK9__gnu_cxx16__aligned_bufferISt4pairIKNSt7__cxx1112basic_stringIcSt11char_traitsIcESaIcEEEN10ParserUtil4eCSREEE6_M_ptrEv
0000000000036820 W _ZNK9__gnu_cxx16__aligned_bufferISt4pairIKNSt7__cxx1112basic_stringIcSt11char_traitsIcESaIcEEEN10ParserUtil4eCSREEE7_M_addrEv
0000000000036502 W _ZNK9__gnu_cxx16__aligned_bufferISt4pairIKNSt7__cxx1112basic_stringIcSt11char_traitsIcESaIcEEEN10ParserUtil4eGPREEE6_M_ptrEv
000000000003674c W _ZNK9__gnu_cxx16__aligned_bufferISt4pairIKNSt7__cxx1112basic_stringIcSt11char_traitsIcESaIcEEEN10ParserUtil4eGPREEE7_M_addrEv
000000000002c796 W _ZNK9__gnu_cxx16__aligned_membufISt4pairIKN10ParserUtil12eOperandTypeESt3mapINS2_15eAddressingTypeESt6vectorIS1_IN12AssemblyUtil11InstructionES7_ISt10shared_ptrIN15InstructionUtil14CodePopulationEESaISD_EEESaISG_EESt4lessIS6_ESaIS1_IKS6_SI_EEEEE6_M_ptrEv
000000000002da34 W _ZNK9__gnu_cxx16__aligned_membufISt4pairIKN10ParserUtil12eOperandTypeESt3mapINS2_15eAddressingTypeESt6vectorIS1_IN12AssemblyUtil11InstructionES7_ISt10shared_ptrIN15InstructionUtil14CodePopulationEESaISD_EEESaISG_EESt4lessIS6_ESaIS1_IKS6_SI_EEEEE7_M_addrEv
000000000002c996 W _ZNK9__gnu_cxx16__aligned_membufISt4pairIKN10ParserUtil15eAddressingTypeESt6vectorIS1_IN12AssemblyUtil11InstructionES5_ISt10shared_ptrIN15InstructionUtil14CodePopulationEESaISB_EEESaISE_EEEE6_M_ptrEv
000000000002dc78 W _ZNK9__gnu_cxx16__aligned_membufISt4pairIKN10ParserUtil15eAddressingTypeESt6vectorIS1_IN12AssemblyUtil11InstructionES5_ISt10shared_ptrIN15InstructionUtil14CodePopulationEESaISB_EEESaISE_EEEE7_M_addrEv
000000000002c5f2 W _ZNK9__gnu_cxx16__aligned_membufISt4pairIKN10ParserUtil22eInstructionIdentifierESt3mapINS2_12eOperandTypeES5_INS2_15eAddressingTypeESt6vectorIS1_IN12AssemblyUtil11InstructionES8_ISt10shared_ptrIN15InstructionUtil14CodePopulationEESaISE_EEESaISH_EESt4lessIS7_ESaIS1_IKS7_SJ_EEESK_IS6_ESaIS1_IKS6_SP_EEEEE6_M_ptrEv
000000000002d88c W _ZNK9__gnu_cxx16__aligned_membufISt4pairIKN10ParserUtil22eInstructionIdentifierESt3mapINS2_12eOperandTypeES5_INS2_15eAddressingTypeESt6vectorIS1_IN12AssemblyUtil11InstructionES8_ISt10shared_ptrIN15InstructionUtil14CodePopulationEESaISE_EEESaISH_EESt4lessIS7_ESaIS1_IKS7_SJ_EEESK_IS6_ESaIS1_IKS6_SP_EEEEE7_M_addrEv
0000000000017d5c W _ZNK9__gnu_cxx16__aligned_membufISt4pairIKNSt7__cxx1112basic_stringIcSt11char_traitsIcESaIcEEEN10LinkerUtil15eInputFileStateEEE6_M_ptrEv
0000000000019a38 W _ZNK9__gnu_cxx16__aligned_membufISt4pairIKNSt7__cxx1112basic_stringIcSt11char_traitsIcESaIcEEEN10LinkerUtil15eInputFileStateEEE7_M_addrEv
000000000001790a W _ZNK9__gnu_cxx16__aligned_membufISt4pairIKNSt7__cxx1112basic_stringIcSt11char_traitsIcESaIcEEESt10shared_ptrIN10LinkerUtil16SectionMergeDataEEEE6_M_ptrEv
0000000000019620 W _ZNK9__gnu_cxx16__aligned_membufISt4pairIKNSt7__cxx1112basic_stringIcSt11char_traitsIcESaIcEEESt10shared_ptrIN10LinkerUtil16SectionMergeDataEEEE7_M_addrEv
0000000000011644 W _ZNK9__gnu_cxx17__normal_iteratorIPhSt6vectorIhSaIhEEE4baseEv
000000000000e658 W _ZNK9__gnu_cxx17__normal_iteratorIPhSt6vectorIhSaIhEEEdeEv
000000000001685e W _ZNK9__gnu_cxx17__normal_iteratorIPhSt6vectorIhSaIhEEEmiEl
000000000002fb8e W _ZNK9__gnu_cxx17__normal_iteratorIPhSt6vectorIhSaIhEEEplEl
00000000000204ec W _ZNK9__gnu_cxx17__normal_iteratorIPKhSt6vectorIhSaIhEEE4baseEv
000000000002014e W _ZNK9__gnu_cxx17__normal_iteratorIPKhSt6vectorIhSaIhEEEdeEv
0000000000018c30 W _ZNK9__gnu_cxx17__normal_iteratorIPKNSt7__cxx1112basic_stringIcSt11char_traitsIcESaIcEEESt6vectorIS6_SaIS6_EEE4baseEv
0000000000016ec8 W _ZNK9__gnu_cxx17__normal_iteratorIPKNSt7__cxx1112basic_stringIcSt11char_traitsIcESaIcEEESt6vectorIS6_SaIS6_EEEdeEv
000000000001021c W _ZNK9__gnu_cxx17__normal_iteratorIPKSt10shared_ptrIN12AssemblyUtil12SectionEntryEESt6vectorIS4_SaIS4_EEE4baseEv
000000000000da80 W _ZNK9__gnu_cxx17__normal_iteratorIPKSt10shared_ptrIN12AssemblyUtil12SectionEntryEESt6vectorIS4_SaIS4_EEEdeEv
000000000000f722 W _ZNK9__gnu_cxx17__normal_iteratorIPKSt10shared_ptrIN12AssemblyUtil16SymbolTableEntryEESt6vectorIS4_SaIS4_EEE4baseEv
000000000000c77a W _ZNK9__gnu_cxx17__normal_iteratorIPKSt10shared_ptrIN12AssemblyUtil16SymbolTableEntryEESt6vectorIS4_SaIS4_EEEdeEv
000000000000fa5a W _ZNK9__gnu_cxx17__normal_iteratorIPKSt10shared_ptrIN12AssemblyUtil20RelocationTableEntryEESt6vectorIS4_SaIS4_EEE4baseEv
000000000000cdaa W _ZNK9__gnu_cxx17__normal_iteratorIPKSt10shared_ptrIN12AssemblyUtil20RelocationTableEntryEESt6vectorIS4_SaIS4_EEEdeEv
000000000002e104 W _ZNK9__gnu_cxx17__normal_iteratorIPKSt10shared_ptrIN15InstructionUtil14CodePopulationEESt6vectorIS4_SaIS4_EEE4baseEv
000000000002d462 W _ZNK9__gnu_cxx17__normal_iteratorIPKSt10shared_ptrIN15InstructionUtil14CodePopulationEESt6vectorIS4_SaIS4_EEEdeEv
000000000002cac8 W _ZNK9__gnu_cxx17__normal_iteratorIPKSt4pairIN12AssemblyUtil11InstructionESt6vectorISt10shared_ptrIN15InstructionUtil14CodePopulationEESaIS8_EEES4_ISB_SaISB_EEE4baseEv
000000000002ce74 W _ZNK9__gnu_cxx17__normal_iteratorIPKSt4pairIN12AssemblyUtil11InstructionESt6vectorISt10shared_ptrIN15InstructionUtil14CodePopulationEESaIS8_EEES4_ISB_SaISB_EEEdeEv
0000000000018b8e W _ZNK9__gnu_cxx17__normal_iteratorIPKSt4pairINSt7__cxx1112basic_stringIcSt11char_traitsIcESaIcEEEmESt6vectorIS8_SaIS8_EEE4baseEv
0000000000016cfc W _ZNK9__gnu_cxx17__normal_iteratorIPKSt4pairINSt7__cxx1112basic_stringIcSt11char_traitsIcESaIcEEEmESt6vectorIS8_SaIS8_EEEdeEv
000000000001085a W _ZNK9__gnu_cxx17__normal_iteratorIPNSt7__cxx1112basic_stringIcSt11char_traitsIcESaIcEEESt6vectorIS6_SaIS6_EEE4baseEv
000000000000df52 W _ZNK9__gnu_cxx17__normal_iteratorIPNSt7__cxx1112basic_stringIcSt11char_traitsIcESaIcEEESt6vectorIS6_SaIS6_EEEdeEv
0000000000011428 W _ZNK9__gnu_cxx17__normal_iteratorIPNSt7__cxx1112basic_stringIcSt11char_traitsIcESaIcEEESt6vectorIS6_SaIS6_EEEmiEl
000000000000fe04 W _ZNK9__gnu_cxx17__normal_iteratorIPSt10shared_ptrIN10LinkerUtil16SectionMergeDataEESt6vectorIS4_SaIS4_EEE4baseEv
000000000000d35c W _ZNK9__gnu_cxx17__normal_iteratorIPSt10shared_ptrIN10LinkerUtil16SectionMergeDataEESt6vectorIS4_SaIS4_EEEdeEv
0000000000017a88 W _ZNK9__gnu_cxx17__normal_iteratorIPSt10shared_ptrIN10LinkerUtil16SectionMergeDataEESt6vectorIS4_SaIS4_EEEmiEl
0000000000015aee W _ZNK9__gnu_cxx17__normal_iteratorIPSt10shared_ptrIN10LinkerUtil16SectionMergeDataEESt6vectorIS4_SaIS4_EEEplEl
000000000000fcd6 W _ZNK9__gnu_cxx17__normal_iteratorIPSt10shared_ptrIN12AssemblyUtil12SectionEntryEESt6vectorIS4_SaIS4_EEE4baseEv
000000000000d09a W _ZNK9__gnu_cxx17__normal_iteratorIPSt10shared_ptrIN12AssemblyUtil12SectionEntryEESt6vectorIS4_SaIS4_EEEdeEv
0000000000011492 W _ZNK9__gnu_cxx17__normal_iteratorIPSt10shared_ptrIN12AssemblyUtil12SectionEntryEESt6vectorIS4_SaIS4_EEEmiEl
000000000000f9f2 W _ZNK9__gnu_cxx17__normal_iteratorIPSt10shared_ptrIN12AssemblyUtil16SymbolTableEntryEESt6vectorIS4_SaIS4_EEE4baseEv
000000000000cb34 W _ZNK9__gnu_cxx17__normal_iteratorIPSt10shared_ptrIN12AssemblyUtil16SymbolTableEntryEESt6vectorIS4_SaIS4_EEEdeEv
000000000000fca2 W _ZNK9__gnu_cxx17__normal_iteratorIPSt10shared_ptrIN12AssemblyUtil20RelocationTableEntryEESt6vectorIS4_SaIS4_EEE4baseEv
000000000000cf84 W _ZNK9__gnu_cxx17__normal_iteratorIPSt10shared_ptrIN12AssemblyUtil20RelocationTableEntryEESt6vectorIS4_SaIS4_EEEdeEv
000000000002a4aa W _ZNK9__gnu_cxx17__normal_iteratorIPSt10shared_ptrIN15InstructionUtil14CodePopulationEESt6vectorIS4_SaIS4_EEE4baseEv
000000000002a550 W _ZNK9__gnu_cxx17__normal_iteratorIPSt10shared_ptrIN15InstructionUtil14CodePopulationEESt6vectorIS4_SaIS4_EEEdeEv
000000000002a4e6 W _ZNK9__gnu_cxx17__normal_iteratorIPSt10shared_ptrIN15InstructionUtil14CodePopulationEESt6vectorIS4_SaIS4_EEEmiEl
000000000002fc52 W _ZNK9__gnu_cxx17__normal_iteratorIPSt10shared_ptrIN15InstructionUtil14CodePopulationEESt6vectorIS4_SaIS4_EEEplEl
000000000000fec2 W _ZNK9__gnu_cxx17__normal_iteratorIPSt4pairIiSt10shared_ptrIN12AssemblyUtil12SectionEntryEEESt6vectorIS6_SaIS6_EEE4baseEv
000000000000d56c W _ZNK9__gnu_cxx17__normal_iteratorIPSt4pairIiSt10shared_ptrIN12AssemblyUtil12SectionEntryEEESt6vectorIS6_SaIS6_EEEdeEv
000000000001482e W _ZNK9__gnu_cxx17__normal_iteratorIPSt4pairIiSt10shared_ptrIN12AssemblyUtil12SectionEntryEEESt6vectorIS6_SaIS6_EEEmiEl
0000000000026dc8 W _ZNK9__gnu_cxx17__normal_iteratorIPSt4pairIMN12AssemblyUtil11InstructionEFvtEN15InstructionUtil11eValueToUseEESt6vectorIS8_SaIS8_EEE4baseEv
0000000000025e76 W _ZNK9__gnu_cxx17__normal_iteratorIPSt4pairIMN12AssemblyUtil11InstructionEFvtEN15InstructionUtil11eValueToUseEESt6vectorIS8_SaIS8_EEEdeEv
000000000002a9ec W _ZNK9__gnu_cxx17__normal_iteratorIPSt4pairIN12AssemblyUtil11InstructionESt6vectorISt10shared_ptrIN15InstructionUtil14CodePopulationEESaIS8_EEES4_ISB_SaISB_EEE4baseEv
000000000002aa9c W _ZNK9__gnu_cxx17__normal_iteratorIPSt4pairIN12AssemblyUtil11InstructionESt6vectorISt10shared_ptrIN15InstructionUtil14CodePopulationEESaIS8_EEES4_ISB_SaISB_EEEdeEv
000000000002aa28 W _ZNK9__gnu_cxx17__normal_iteratorIPSt4pairIN12AssemblyUtil11InstructionESt6vectorISt10shared_ptrIN15InstructionUtil14CodePopulationEESaIS8_EEES4_ISB_SaISB_EEEmiEl
000000000002cb0c W _ZNK9__gnu_cxx17__normal_iteratorIPSt4pairIN12AssemblyUtil11InstructionESt6vectorISt10shared_ptrIN15InstructionUtil14CodePopulationEESaIS8_EEES4_ISB_SaISB_EEEplEl
00000000000100ec W _ZNK9__gnu_cxx17__normal_iteratorIPSt4pairINSt7__cxx1112basic_stringIcSt11char_traitsIcESaIcEEEmESt6vectorIS8_SaIS8_EEE4baseEv
000000000000d7ba W _ZNK9__gnu_cxx17__normal_iteratorIPSt4pairINSt7__cxx1112basic_stringIcSt11char_traitsIcESaIcEEEmESt6vectorIS8_SaIS8_EEEdeEv
00000000000174fc W _ZNK9__gnu_cxx17__normal_iteratorIPSt4pairINSt7__cxx1112basic_stringIcSt11char_traitsIcESaIcEEEmESt6vectorIS8_SaIS8_EEEmiEl
00000000000153ea W _ZNK9__gnu_cxx17__normal_iteratorIPSt4pairINSt7__cxx1112basic_stringIcSt11char_traitsIcESaIcEEEmESt6vectorIS8_SaIS8_EEEplEl
00000000000101e8 W _ZNK9__gnu_cxx17__normal_iteratorIPSt6vectorISt10shared_ptrIN12AssemblyUtil12SectionEntryEESaIS5_EES1_IS7_SaIS7_EEE4baseEv
000000000000d96a W _ZNK9__gnu_cxx17__normal_iteratorIPSt6vectorISt10shared_ptrIN12AssemblyUtil12SectionEntryEESaIS5_EES1_IS7_SaIS7_EEEdeEv
000000000000f6ee W _ZNK9__gnu_cxx17__normal_iteratorIPSt6vectorISt10shared_ptrIN12AssemblyUtil16SymbolTableEntryEESaIS5_EES1_IS7_SaIS7_EEE4baseEv
000000000000c664 W _ZNK9__gnu_cxx17__normal_iteratorIPSt6vectorISt10shared_ptrIN12AssemblyUtil16SymbolTableEntryEESaIS5_EES1_IS7_SaIS7_EEEdeEv
000000000000fa26 W _ZNK9__gnu_cxx17__normal_iteratorIPSt6vectorISt10shared_ptrIN12AssemblyUtil20RelocationTableEntryEESaIS5_EES1_IS7_SaIS7_EEE4baseEv
000000000000cc94 W _ZNK9__gnu_cxx17__normal_iteratorIPSt6vectorISt10shared_ptrIN12AssemblyUtil20RelocationTableEntryEESaIS5_EES1_IS7_SaIS7_EEEdeEv
0000000000033230 W _ZNKSt10_HashtableINSt7__cxx1112basic_stringIcSt11char_traitsIcESaIcEEESt4pairIKS5_N10ParserUtil4eCSREESaISA_ENSt8__detail10_Select1stESt8equal_toIS5_ESt4hashIS5_ENSC_18_Mod_range_hashingENSC_20_Default_ranged_hashENSC_20_Prime_rehash_policyENSC_17_Hashtable_traitsILb1ELb0ELb1EEEE12_M_find_nodeEmRS7_m
00000000000331fe W _ZNKSt10_HashtableINSt7__cxx1112basic_stringIcSt11char_traitsIcESaIcEEESt4pairIKS5_N10ParserUtil4eCSREESaISA_ENSt8__detail10_Select1stESt8equal_toIS5_ESt4hashIS5_ENSC_18_Mod_range_hashingENSC_20_Default_ranged_hashENSC_20_Prime_rehash_policyENSC_17_Hashtable_traitsILb1ELb0ELb1EEEE15_M_bucket_indexEm
0000000000034fa0 W _ZNKSt10_HashtableINSt7__cxx1112basic_stringIcSt11char_traitsIcESaIcEEESt4pairIKS5_N10ParserUtil4eCSREESaISA_ENSt8__detail10_Select1stESt8equal_toIS5_ESt4hashIS5_ENSC_18_Mod_range_hashingENSC_20_Default_ranged_hashENSC_20_Prime_rehash_policyENSC_17_Hashtable_traitsILb1ELb0ELb1EEEE15_M_bucket_indexERKNSC_16_Hash_node_valueISA_Lb1EEE
0000000000033dce W _ZNKSt10_HashtableINSt7__cxx1112basic_stringIcSt11char_traitsIcESaIcEEESt4pairIKS5_N10ParserUtil4eCSREESaISA_ENSt8__detail10_Select1stESt8equal_toIS5_ESt4hashIS5_ENSC_18_Mod_range_hashingENSC_20_Default_ranged_hashENSC_20_Prime_rehash_policyENSC_17_Hashtable_traitsILb1ELb0ELb1EEEE19_M_find_before_nodeEmRS7_m
0000000000034e12 W _ZNKSt10_HashtableINSt7__cxx1112basic_stringIcSt11char_traitsIcESaIcEEESt4pairIKS5_N10ParserUtil4eCSREESaISA_ENSt8__detail10_Select1stESt8equal_toIS5_ESt4hashIS5_ENSC_18_Mod_range_hashingENSC_20_Default_ranged_hashENSC_20_Prime_rehash_policyENSC_17_Hashtable_traitsILb1ELb0ELb1EEEE21_M_uses_single_bucketEPPNSC_15_Hash_node_baseE
0000000000033cae W _ZNKSt10_HashtableINSt7__cxx1112basic_stringIcSt11char_traitsIcESaIcEEESt4pairIKS5_N10ParserUtil4eCSREESaISA_ENSt8__detail10_Select1stESt8equal_toIS5_ESt4hashIS5_ENSC_18_Mod_range_hashingENSC_20_Default_ranged_hashENSC_20_Prime_rehash_policyENSC_17_Hashtable_traitsILb1ELb0ELb1EEEE8_M_beginEv
0000000000032dac W _ZNKSt10_HashtableINSt7__cxx1112basic_stringIcSt11char_traitsIcESaIcEEESt4pairIKS5_N10ParserUtil4eGPREESaISA_ENSt8__detail10_Select1stESt8equal_toIS5_ESt4hashIS5_ENSC_18_Mod_range_hashingENSC_20_Default_ranged_hashENSC_20_Prime_rehash_policyENSC_17_Hashtable_traitsILb1ELb0ELb1EEEE12_M_find_nodeEmRS7_m
0000000000032d7a W _ZNKSt10_HashtableINSt7__cxx1112basic_stringIcSt11char_traitsIcESaIcEEESt4pairIKS5_N10ParserUtil4eGPREESaISA_ENSt8__detail10_Select1stESt8equal_toIS5_ESt4hashIS5_ENSC_18_Mod_range_hashingENSC_20_Default_ranged_hashENSC_20_Prime_rehash_policyENSC_17_Hashtable_traitsILb1ELb0ELb1EEEE15_M_bucket_indexEm
000000000003473a W _ZNKSt10_HashtableINSt7__cxx1112basic_stringIcSt11char_traitsIcESaIcEEESt4pairIKS5_N10ParserUtil4eGPREESaISA_ENSt8__detail10_Select1stESt8equal_toIS5_ESt4hashIS5_ENSC_18_Mod_range_hashingENSC_20_Default_ranged_hashENSC_20_Prime_rehash_policyENSC_17_Hashtable_traitsILb1ELb0ELb1EEEE15_M_bucket_indexERKNSC_16_Hash_node_valueISA_Lb1EEE
0000000000033710 W _ZNKSt10_HashtableINSt7__cxx1112basic_stringIcSt11char_traitsIcESaIcEEESt4pairIKS5_N10ParserUtil4eGPREESaISA_ENSt8__detail10_Select1stESt8equal_toIS5_ESt4hashIS5_ENSC_18_Mod_range_hashingENSC_20_Default_ranged_hashENSC_20_Prime_rehash_policyENSC_17_Hashtable_traitsILb1ELb0ELb1EEEE19_M_find_before_nodeEmRS7_m
000000000003459a W _ZNKSt10_HashtableINSt7__cxx1112basic_stringIcSt11char_traitsIcESaIcEEESt4pairIKS5_N10ParserUtil4eGPREESaISA_ENSt8__detail10_Select1stESt8equal_toIS5_ESt4hashIS5_ENSC_18_Mod_range_hashingENSC_20_Default_ranged_hashENSC_20_Prime_rehash_policyENSC_17_Hashtable_traitsILb1ELb0ELb1EEEE21_M_uses_single_bucketEPPNSC_15_Hash_node_baseE
00000000000335f0 W _ZNKSt10_HashtableINSt7__cxx1112basic_stringIcSt11char_traitsIcESaIcEEESt4pairIKS5_N10ParserUtil4eGPREESaISA_ENSt8__detail10_Select1stESt8equal_toIS5_ESt4hashIS5_ENSC_18_Mod_range_hashingENSC_20_Default_ranged_hashENSC_20_Prime_rehash_policyENSC_17_Hashtable_traitsILb1ELb0ELb1EEEE8_M_beginEv
000000000002b4b8 W _ZNKSt10_Select1stISt4pairIKN10ParserUtil12eOperandTypeESt3mapINS1_15eAddressingTypeESt6vectorIS0_IN12AssemblyUtil11InstructionES6_ISt10shared_ptrIN15InstructionUtil14CodePopulationEESaISC_EEESaISF_EESt4lessIS5_ESaIS0_IKS5_SH_EEEEEclERKSO_
000000000002ba5c W _ZNKSt10_Select1stISt4pairIKN10ParserUtil15eAddressingTypeESt6vectorIS0_IN12AssemblyUtil11InstructionES4_ISt10shared_ptrIN15InstructionUtil14CodePopulationEESaISA_EEESaISD_EEEEclERKSG_
000000000002af90 W _ZNKSt10_Select1stISt4pairIKN10ParserUtil22eInstructionIdentifierESt3mapINS1_12eOperandTypeES4_INS1_15eAddressingTypeESt6vectorIS0_IN12AssemblyUtil11InstructionES7_ISt10shared_ptrIN15InstructionUtil14CodePopulationEESaISD_EEESaISG_EESt4lessIS6_ESaIS0_IKS6_SI_EEESJ_IS5_ESaIS0_IKS5_SO_EEEEEclERKSU_
0000000000014952 W _ZNKSt10_Select1stISt4pairIKNSt7__cxx1112basic_stringIcSt11char_traitsIcESaIcEEEN10LinkerUtil15eInputFileStateEEEclERKSA_
00000000000159f0 W _ZNKSt10_Select1stISt4pairIKNSt7__cxx1112basic_stringIcSt11char_traitsIcESaIcEEESt10shared_ptrIN10LinkerUtil16SectionMergeDataEEEEclERKSC_
0000000000012654 W _ZNKSt12__shared_ptrIN10LinkerUtil16SectionMergeDataELN9__gnu_cxx12_Lock_policyE2EE3getEv
00000000000125d2 W _ZNKSt12__shared_ptrIN12AssemblyUtil12SectionEntryELN9__gnu_cxx12_Lock_policyE2EE3getEv
000000000002052c W _ZNKSt12__shared_ptrIN12AssemblyUtil12SectionEntryELN9__gnu_cxx12_Lock_policyE2EEcvbEv
0000000000012156 W _ZNKSt12__shared_ptrIN12AssemblyUtil16SymbolTableEntryELN9__gnu_cxx12_Lock_policyE2EE3getEv
000000000000f752 W _ZNKSt12__shared_ptrIN12AssemblyUtil16SymbolTableEntryELN9__gnu_cxx12_Lock_policyE2EEcvbEv
0000000000012394 W _ZNKSt12__shared_ptrIN12AssemblyUtil20RelocationTableEntryELN9__gnu_cxx12_Lock_policyE2EE3getEv
000000000001a24e W _ZNKSt12_Vector_baseIhSaIhEE19_M_get_Tp_allocatorEv
000000000000f4b0 W _ZNKSt12_Vector_baseINSt7__cxx1112basic_stringIcSt11char_traitsIcESaIcEEESaIS5_EE19_M_get_Tp_allocatorEv
0000000000017992 W _ZNKSt12_Vector_baseISt10shared_ptrIN10LinkerUtil16SectionMergeDataEESaIS3_EE19_M_get_Tp_allocatorEv
0000000000017406 W _ZNKSt12_Vector_baseISt10shared_ptrIN12AssemblyUtil12SectionEntryEESaIS3_EE19_M_get_Tp_allocatorEv
0000000000016fd6 W _ZNKSt12_Vector_baseISt10shared_ptrIN12AssemblyUtil16SymbolTableEntryEESaIS3_EE19_M_get_Tp_allocatorEv
0000000000017136 W _ZNKSt12_Vector_baseISt10shared_ptrIN12AssemblyUtil20RelocationTableEntryEESaIS3_EE19_M_get_Tp_allocatorEv
00000000000283c2 W _ZNKSt12_Vector_baseISt10shared_ptrIN15InstructionUtil14CodePopulationEESaIS3_EE19_M_get_Tp_allocatorEv
0000000000018940 W _ZNKSt12_Vector_baseISt4pairIiSt10shared_ptrIN12AssemblyUtil12SectionEntryEEESaIS5_EE19_M_get_Tp_allocatorEv
00000000000277fc W _ZNKSt12_Vector_baseISt4pairIN12AssemblyUtil11InstructionESt6vectorISt10shared_ptrIN15InstructionUtil14CodePopulationEESaIS7_EEESaISA_EE19_M_get_Tp_allocatorEv
000000000000f234 W _ZNKSt12_Vector_baseISt4pairINSt7__cxx1112basic_stringIcSt11char_traitsIcESaIcEEEmESaIS7_EE19_M_get_Tp_allocatorEv
000000000001817e W _ZNKSt12_Vector_baseISt6vectorISt10shared_ptrIN12AssemblyUtil12SectionEntryEESaIS4_EESaIS6_EE19_M_get_Tp_allocatorEv
0000000000017f2a W _ZNKSt12_Vector_baseISt6vectorISt10shared_ptrIN12AssemblyUtil16SymbolTableEntryEESaIS4_EESaIS6_EE19_M_get_Tp_allocatorEv
00000000000183d2 W _ZNKSt12_Vector_baseISt6vectorISt10shared_ptrIN12AssemblyUtil20RelocationTableEntryEESaIS4_EESaIS6_EE19_M_get_Tp_allocatorEv
000000000002b496 W _ZNKSt13_Rb_tree_nodeISt4pairIKN10ParserUtil12eOperandTypeESt3mapINS1_15eAddressingTypeESt6vectorIS0_IN12AssemblyUtil11InstructionES6_ISt10shared_ptrIN15InstructionUtil14CodePopulationEESaISC_EEESaISF_EESt4lessIS5_ESaIS0_IKS5_SH_EEEEE9_M_valptrEv
000000000002ba3a W _ZNKSt13_Rb_tree_nodeISt4pairIKN10ParserUtil15eAddressingTypeESt6vectorIS0_IN12AssemblyUtil11InstructionES4_ISt10shared_ptrIN15InstructionUtil14CodePopulationEESaISA_EEESaISD_EEEE9_M_valptrEv
000000000002af6e W _ZNKSt13_Rb_tree_nodeISt4pairIKN10ParserUtil22eInstructionIdentifierESt3mapINS1_12eOperandTypeES4_INS1_15eAddressingTypeESt6vectorIS0_IN12AssemblyUtil11InstructionES7_ISt10shared_ptrIN15InstructionUtil14CodePopulationEESaISD_EEESaISG_EESt4lessIS6_ESaIS0_IKS6_SI_EEESJ_IS5_ESaIS0_IKS5_SO_EEEEE9_M_valptrEv
0000000000015f02 W _ZNKSt13_Rb_tree_nodeISt4pairIKNSt7__cxx1112basic_stringIcSt11char_traitsIcESaIcEEEN10LinkerUtil15eInputFileStateEEE9_M_valptrEv
00000000000159ce W _ZNKSt13_Rb_tree_nodeISt4pairIKNSt7__cxx1112basic_stringIcSt11char_traitsIcESaIcEEESt10shared_ptrIN10LinkerUtil16SectionMergeDataEEEE9_M_valptrEv
000000000002189a W _ZNKSt16initializer_listIhE3endEv
0000000000021bfa W _ZNKSt16initializer_listIhE4sizeEv
0000000000021884 W _ZNKSt16initializer_listIhE5beginEv
000000000000ebd8 W _ZNKSt16initializer_listISt4pairIKNSt7__cxx1112basic_stringIcSt11char_traitsIcESaIcEEEN10LinkerUtil15eInputFileStateEEE3endEv
0000000000011ac2 W _ZNKSt16initializer_listISt4pairIKNSt7__cxx1112basic_stringIcSt11char_traitsIcESaIcEEEN10LinkerUtil15eInputFileStateEEE4sizeEv
000000000000ebc2 W _ZNKSt16initializer_listISt4pairIKNSt7__cxx1112basic_stringIcSt11char_traitsIcESaIcEEEN10LinkerUtil15eInputFileStateEEE5beginEv
0000000000033038 W _ZNKSt16initializer_listISt4pairIKNSt7__cxx1112basic_stringIcSt11char_traitsIcESaIcEEEN10ParserUtil4eCSREEE3endEv
0000000000033b64 W _ZNKSt16initializer_listISt4pairIKNSt7__cxx1112basic_stringIcSt11char_traitsIcESaIcEEEN10ParserUtil4eCSREEE4sizeEv
0000000000033022 W _ZNKSt16initializer_listISt4pairIKNSt7__cxx1112basic_stringIcSt11char_traitsIcESaIcEEEN10ParserUtil4eCSREEE5beginEv
0000000000032bb4 W _ZNKSt16initializer_listISt4pairIKNSt7__cxx1112basic_stringIcSt11char_traitsIcESaIcEEEN10ParserUtil4eGPREEE3endEv
00000000000334a6 W _ZNKSt16initializer_listISt4pairIKNSt7__cxx1112basic_stringIcSt11char_traitsIcESaIcEEEN10ParserUtil4eGPREEE4sizeEv
0000000000032b9e W _ZNKSt16initializer_listISt4pairIKNSt7__cxx1112basic_stringIcSt11char_traitsIcESaIcEEEN10ParserUtil4eGPREEE5beginEv
0000000000027cb0 W _ZNKSt16initializer_listISt4pairIMN12AssemblyUtil11InstructionEFvtEN15InstructionUtil11eValueToUseEEE3endEv
0000000000029ede W _ZNKSt16initializer_listISt4pairIMN12AssemblyUtil11InstructionEFvtEN15InstructionUtil11eValueToUseEEE4sizeEv
0000000000027c9a W _ZNKSt16initializer_listISt4pairIMN12AssemblyUtil11InstructionEFvtEN15InstructionUtil11eValueToUseEEE5beginEv
000000000002739a W _ZNKSt17_Rb_tree_iteratorISt4pairIKN10ParserUtil12eOperandTypeESt3mapINS1_15eAddressingTypeESt6vectorIS0_IN12AssemblyUtil11InstructionES6_ISt10shared_ptrIN15InstructionUtil14CodePopulationEESaISC_EEESaISF_EESt4lessIS5_ESaIS0_IKS5_SH_EEEEEdeEv
000000000002760c W _ZNKSt17_Rb_tree_iteratorISt4pairIKN10ParserUtil15eAddressingTypeESt6vectorIS0_IN12AssemblyUtil11InstructionES4_ISt10shared_ptrIN15InstructionUtil14CodePopulationEESaISA_EEESaISD_EEEEdeEv
0000000000027128 W _ZNKSt17_Rb_tree_iteratorISt4pairIKN10ParserUtil22eInstructionIdentifierESt3mapINS1_12eOperandTypeES4_INS1_15eAddressingTypeESt6vectorIS0_IN12AssemblyUtil11InstructionES7_ISt10shared_ptrIN15InstructionUtil14CodePopulationEESaISD_EEESaISG_EESt4lessIS6_ESaIS0_IKS6_SI_EEESJ_IS5_ESaIS0_IKS5_SO_EEEEEdeEv
0000000000010a08 W _ZNKSt17_Rb_tree_iteratorISt4pairIKNSt7__cxx1112basic_stringIcSt11char_traitsIcESaIcEEEN10LinkerUtil15eInputFileStateEEEdeEv
000000000000dd8c W _ZNKSt17_Rb_tree_iteratorISt4pairIKNSt7__cxx1112basic_stringIcSt11char_traitsIcESaIcEEESt10shared_ptrIN10LinkerUtil16SectionMergeDataEEEEdeEv
000000000000fe16 W _ZNKSt19__shared_ptr_accessIN10LinkerUtil16SectionMergeDataELN9__gnu_cxx12_Lock_policyE2ELb0ELb0EE6_M_getEv
000000000000d372 W _ZNKSt19__shared_ptr_accessIN10LinkerUtil16SectionMergeDataELN9__gnu_cxx12_Lock_policyE2ELb0ELb0EEptEv
000000000000fce8 W _ZNKSt19__shared_ptr_accessIN12AssemblyUtil12SectionEntryELN9__gnu_cxx12_Lock_policyE2ELb0ELb0EE6_M_getEv
000000000000d0b0 W _ZNKSt19__shared_ptr_accessIN12AssemblyUtil12SectionEntryELN9__gnu_cxx12_Lock_policyE2ELb0ELb0EEptEv
000000000000f734 W _ZNKSt19__shared_ptr_accessIN12AssemblyUtil16SymbolTableEntryELN9__gnu_cxx12_Lock_policyE2ELb0ELb0EE6_M_getEv
000000000000c790 W _ZNKSt19__shared_ptr_accessIN12AssemblyUtil16SymbolTableEntryELN9__gnu_cxx12_Lock_policyE2ELb0ELb0EEptEv
000000000000fa6c W _ZNKSt19__shared_ptr_accessIN12AssemblyUtil20RelocationTableEntryELN9__gnu_cxx12_Lock_policyE2ELb0ELb0EE6_M_getEv
000000000000cdc0 W _ZNKSt19__shared_ptr_accessIN12AssemblyUtil20RelocationTableEntryELN9__gnu_cxx12_Lock_policyE2ELb0ELb0EEptEv
000000000002b1dc W _ZNKSt23_Rb_tree_const_iteratorISt4pairIKN10ParserUtil12eOperandTypeESt3mapINS1_15eAddressingTypeESt6vectorIS0_IN12AssemblyUtil11InstructionES6_ISt10shared_ptrIN15InstructionUtil14CodePopulationEESaISC_EEESaISF_EESt4lessIS5_ESaIS0_IKS5_SH_EEEEE13_M_const_castEv
000000000002b780 W _ZNKSt23_Rb_tree_const_iteratorISt4pairIKN10ParserUtil15eAddressingTypeESt6vectorIS0_IN12AssemblyUtil11InstructionES4_ISt10shared_ptrIN15InstructionUtil14CodePopulationEESaISA_EEESaISD_EEEE13_M_const_castEv
000000000002acca W _ZNKSt23_Rb_tree_const_iteratorISt4pairIKN10ParserUtil22eInstructionIdentifierESt3mapINS1_12eOperandTypeES4_INS1_15eAddressingTypeESt6vectorIS0_IN12AssemblyUtil11InstructionES7_ISt10shared_ptrIN15InstructionUtil14CodePopulationEESaISD_EEESaISG_EESt4lessIS6_ESaIS0_IKS6_SI_EEESJ_IS5_ESaIS0_IKS5_SO_EEEEE13_M_const_castEv
0000000000015c7c W _ZNKSt23_Rb_tree_const_iteratorISt4pairIKNSt7__cxx1112basic_stringIcSt11char_traitsIcESaIcEEEN10LinkerUtil15eInputFileStateEEE13_M_const_castEv
00000000000156ac W _ZNKSt23_Rb_tree_const_iteratorISt4pairIKNSt7__cxx1112basic_stringIcSt11char_traitsIcESaIcEEESt10shared_ptrIN10LinkerUtil16SectionMergeDataEEEE13_M_const_castEv
0000000000027374 W _ZNKSt3mapIN10ParserUtil12eOperandTypeES_INS0_15eAddressingTypeESt6vectorISt4pairIN12AssemblyUtil11InstructionES3_ISt10shared_ptrIN15InstructionUtil14CodePopulationEESaISA_EEESaISD_EESt4lessIS2_ESaIS4_IKS2_SF_EEESG_IS1_ESaIS4_IKS1_SL_EEE8key_compEv
00000000000275e6 W _ZNKSt3mapIN10ParserUtil15eAddressingTypeESt6vectorISt4pairIN12AssemblyUtil11InstructionES2_ISt10shared_ptrIN15InstructionUtil14CodePopulationEESaIS9_EEESaISC_EESt4lessIS1_ESaIS3_IKS1_SE_EEE8key_compEv
0000000000027102 W _ZNKSt3mapIN10ParserUtil22eInstructionIdentifierES_INS0_12eOperandTypeES_INS0_15eAddressingTypeESt6vectorISt4pairIN12AssemblyUtil11InstructionES4_ISt10shared_ptrIN15InstructionUtil14CodePopulationEESaISB_EEESaISE_EESt4lessIS3_ESaIS5_IKS3_SG_EEESH_IS2_ESaIS5_IKS2_SM_EEESH_IS1_ESaIS5_IKS1_SR_EEE8key_compEv
00000000000109e2 W _ZNKSt3mapINSt7__cxx1112basic_stringIcSt11char_traitsIcESaIcEEEN10LinkerUtil15eInputFileStateESt4lessIS5_ESaISt4pairIKS5_S7_EEE8key_compEv
00000000000103ea W _ZNKSt3mapINSt7__cxx1112basic_stringIcSt11char_traitsIcESaIcEEESt10shared_ptrIN10LinkerUtil16SectionMergeDataEESt4lessIS5_ESaISt4pairIKS5_S9_EEE8key_compEv
0000000000031fdc W _ZNKSt4hashINSt7__cxx1112basic_stringIcSt11char_traitsIcESaIcEEEEclERKS5_
00000000000273bc W _ZNKSt4lessIN10ParserUtil12eOperandTypeEEclERKS1_S4_
000000000002762e W _ZNKSt4lessIN10ParserUtil15eAddressingTypeEEclERKS1_S4_
000000000002714a W _ZNKSt4lessIN10ParserUtil22eInstructionIdentifierEEclERKS1_S4_
0000000000010410 W _ZNKSt4lessINSt7__cxx1112basic_stringIcSt11char_traitsIcESaIcEEEEclERKS5_S8_
0000000000016648 W _ZNKSt6vectorIhSaIhEE12_M_check_lenEmPKc
000000000002009a W _ZNKSt6vectorIhSaIhEE3endEv
000000000000d582 W _ZNKSt6vectorIhSaIhEE4sizeEv
000000000002004e W _ZNKSt6vectorIhSaIhEE5beginEv
0000000000021c38 W _ZNKSt6vectorIhSaIhEE8capacityEv
0000000000018644 W _ZNKSt6vectorIhSaIhEE8max_sizeEv
000000000001e606 W _ZNKSt6vectorINSt7__cxx1112basic_stringIcSt11char_traitsIcESaIcEEESaIS5_EE12_M_check_lenEmPKc
000000000000f606 W _ZNKSt6vectorINSt7__cxx1112basic_stringIcSt11char_traitsIcESaIcEEESaIS5_EE3endEv
000000000000e352 W _ZNKSt6vectorINSt7__cxx1112basic_stringIcSt11char_traitsIcESaIcEEESaIS5_EE4sizeEv
000000000000f5ba W _ZNKSt6vectorINSt7__cxx1112basic_stringIcSt11char_traitsIcESaIcEEESaIS5_EE5beginEv
000000000001e798 W _ZNKSt6vectorINSt7__cxx1112basic_stringIcSt11char_traitsIcESaIcEEESaIS5_EE8max_sizeEv
0000000000013dd0 W _ZNKSt6vectorIS_ISt10shared_ptrIN12AssemblyUtil12SectionEntryEESaIS3_EESaIS5_EE12_M_check_lenEmPKc
00000000000162ec W _ZNKSt6vectorIS_ISt10shared_ptrIN12AssemblyUtil12SectionEntryEESaIS3_EESaIS5_EE4sizeEv
00000000000162c6 W _ZNKSt6vectorIS_ISt10shared_ptrIN12AssemblyUtil12SectionEntryEESaIS3_EESaIS5_EE8max_sizeEv
0000000000013b6c W _ZNKSt6vectorIS_ISt10shared_ptrIN12AssemblyUtil16SymbolTableEntryEESaIS3_EESaIS5_EE12_M_check_lenEmPKc
00000000000160e6 W _ZNKSt6vectorIS_ISt10shared_ptrIN12AssemblyUtil16SymbolTableEntryEESaIS3_EESaIS5_EE4sizeEv
00000000000160c0 W _ZNKSt6vectorIS_ISt10shared_ptrIN12AssemblyUtil16SymbolTableEntryEESaIS3_EESaIS5_EE8max_sizeEv
0000000000014034 W _ZNKSt6vectorIS_ISt10shared_ptrIN12AssemblyUtil20RelocationTableEntryEESaIS3_EESaIS5_EE12_M_check_lenEmPKc
00000000000164f2 W _ZNKSt6vectorIS_ISt10shared_ptrIN12AssemblyUtil20RelocationTableEntryEESaIS3_EESaIS5_EE4sizeEv
00000000000164cc W _ZNKSt6vectorIS_ISt10shared_ptrIN12AssemblyUtil20RelocationTableEntryEESaIS3_EESaIS5_EE8max_sizeEv
00000000000131e6 W _ZNKSt6vectorISt10shared_ptrIN10LinkerUtil16SectionMergeDataEESaIS3_EE12_M_check_lenEmPKc
0000000000015a3e W _ZNKSt6vectorISt10shared_ptrIN10LinkerUtil16SectionMergeDataEESaIS3_EE4sizeEv
0000000000015a18 W _ZNKSt6vectorISt10shared_ptrIN10LinkerUtil16SectionMergeDataEESaIS3_EE8max_sizeEv
0000000000012712 W _ZNKSt6vectorISt10shared_ptrIN12AssemblyUtil12SectionEntryEESaIS3_EE12_M_check_lenEmPKc
000000000000d9cc W _ZNKSt6vectorISt10shared_ptrIN12AssemblyUtil12SectionEntryEESaIS3_EE3endEv
000000000001533a W _ZNKSt6vectorISt10shared_ptrIN12AssemblyUtil12SectionEntryEESaIS3_EE4sizeEv
000000000000d980 W _ZNKSt6vectorISt10shared_ptrIN12AssemblyUtil12SectionEntryEESaIS3_EE5beginEv
0000000000015314 W _ZNKSt6vectorISt10shared_ptrIN12AssemblyUtil12SectionEntryEESaIS3_EE8max_sizeEv
00000000000121ca W _ZNKSt6vectorISt10shared_ptrIN12AssemblyUtil16SymbolTableEntryEESaIS3_EE12_M_check_lenEmPKc
000000000000c6c6 W _ZNKSt6vectorISt10shared_ptrIN12AssemblyUtil16SymbolTableEntryEESaIS3_EE3endEv
000000000000c98c W _ZNKSt6vectorISt10shared_ptrIN12AssemblyUtil16SymbolTableEntryEESaIS3_EE4sizeEv
000000000000c67a W _ZNKSt6vectorISt10shared_ptrIN12AssemblyUtil16SymbolTableEntryEESaIS3_EE5beginEv
00000000000150ca W _ZNKSt6vectorISt10shared_ptrIN12AssemblyUtil16SymbolTableEntryEESaIS3_EE8max_sizeEv
0000000000012408 W _ZNKSt6vectorISt10shared_ptrIN12AssemblyUtil20RelocationTableEntryEESaIS3_EE12_M_check_lenEmPKc
000000000000ccf6 W _ZNKSt6vectorISt10shared_ptrIN12AssemblyUtil20RelocationTableEntryEESaIS3_EE3endEv
000000000001519e W _ZNKSt6vectorISt10shared_ptrIN12AssemblyUtil20RelocationTableEntryEESaIS3_EE4sizeEv
000000000000ccaa W _ZNKSt6vectorISt10shared_ptrIN12AssemblyUtil20RelocationTableEntryEESaIS3_EE5beginEv
0000000000015178 W _ZNKSt6vectorISt10shared_ptrIN12AssemblyUtil20RelocationTableEntryEESaIS3_EE8max_sizeEv
000000000002a2bc W _ZNKSt6vectorISt10shared_ptrIN15InstructionUtil14CodePopulationEESaIS3_EE12_M_check_lenEmPKc
0000000000028486 W _ZNKSt6vectorISt10shared_ptrIN15InstructionUtil14CodePopulationEESaIS3_EE3endEv
000000000002834a W _ZNKSt6vectorISt10shared_ptrIN15InstructionUtil14CodePopulationEESaIS3_EE4sizeEv
000000000002843a W _ZNKSt6vectorISt10shared_ptrIN15InstructionUtil14CodePopulationEESaIS3_EE5beginEv
000000000002f2bc W _ZNKSt6vectorISt10shared_ptrIN15InstructionUtil14CodePopulationEESaIS3_EE8capacityEv
000000000002c06e W _ZNKSt6vectorISt10shared_ptrIN15InstructionUtil14CodePopulationEESaIS3_EE8max_sizeEv
00000000000145d8 W _ZNKSt6vectorISt4pairIiSt10shared_ptrIN12AssemblyUtil12SectionEntryEEESaIS5_EE12_M_check_lenEmPKc
0000000000016976 W _ZNKSt6vectorISt4pairIiSt10shared_ptrIN12AssemblyUtil12SectionEntryEEESaIS5_EE4sizeEv
0000000000016950 W _ZNKSt6vectorISt4pairIiSt10shared_ptrIN12AssemblyUtil12SectionEntryEEESaIS5_EE8max_sizeEv
0000000000025cc4 W _ZNKSt6vectorISt4pairIMN12AssemblyUtil11InstructionEFvtEN15InstructionUtil11eValueToUseEESaIS7_EE4sizeEv
000000000002a872 W _ZNKSt6vectorISt4pairIN12AssemblyUtil11InstructionES_ISt10shared_ptrIN15InstructionUtil14CodePopulationEESaIS6_EEESaIS9_EE12_M_check_lenEmPKc
00000000000278e6 W _ZNKSt6vectorISt4pairIN12AssemblyUtil11InstructionES_ISt10shared_ptrIN15InstructionUtil14CodePopulationEESaIS6_EEESaIS9_EE3endEv
0000000000026a46 W _ZNKSt6vectorISt4pairIN12AssemblyUtil11InstructionES_ISt10shared_ptrIN15InstructionUtil14CodePopulationEESaIS6_EEESaIS9_EE4sizeEv
000000000002789a W _ZNKSt6vectorISt4pairIN12AssemblyUtil11InstructionES_ISt10shared_ptrIN15InstructionUtil14CodePopulationEESaIS6_EEESaIS9_EE5beginEv
0000000000027862 W _ZNKSt6vectorISt4pairIN12AssemblyUtil11InstructionES_ISt10shared_ptrIN15InstructionUtil14CodePopulationEESaIS6_EEESaIS9_EE8capacityEv
000000000002c42a W _ZNKSt6vectorISt4pairIN12AssemblyUtil11InstructionES_ISt10shared_ptrIN15InstructionUtil14CodePopulationEESaIS6_EEESaIS9_EE8max_sizeEv
0000000000031538 W _ZNKSt6vectorISt4pairINSt7__cxx1112basic_stringIcSt11char_traitsIcESaIcEEEmESaIS7_EE12_M_check_lenEmPKc
000000000000f39a W _ZNKSt6vectorISt4pairINSt7__cxx1112basic_stringIcSt11char_traitsIcESaIcEEEmESaIS7_EE3endEv
000000000000d682 W _ZNKSt6vectorISt4pairINSt7__cxx1112basic_stringIcSt11char_traitsIcESaIcEEEmESaIS7_EE4sizeEv
000000000000f34e W _ZNKSt6vectorISt4pairINSt7__cxx1112basic_stringIcSt11char_traitsIcESaIcEEEmESaIS7_EE5beginEv
0000000000031688 W _ZNKSt6vectorISt4pairINSt7__cxx1112basic_stringIcSt11char_traitsIcESaIcEEEmESaIS7_EE8max_sizeEv
                 U _ZNKSt7__cxx1112basic_stringIcSt11char_traitsIcESaIcEE13get_allocatorEv@GLIBCXX_3.4.21
                 U _ZNKSt7__cxx1112basic_stringIcSt11char_traitsIcESaIcEE4dataEv@GLIBCXX_3.4.21
                 U _ZNKSt7__cxx1112basic_stringIcSt11char_traitsIcESaIcEE4sizeEv@GLIBCXX_3.4.21
                 U _ZNKSt7__cxx1112basic_stringIcSt11char_traitsIcESaIcEE5c_strEv@GLIBCXX_3.4.21
                 U _ZNKSt7__cxx1112basic_stringIcSt11char_traitsIcESaIcEE5emptyEv@GLIBCXX_3.4.21
                 U _ZNKSt7__cxx1112basic_stringIcSt11char_traitsIcESaIcEE6lengthEv@GLIBCXX_3.4.21
                 U _ZNKSt7__cxx1112basic_stringIcSt11char_traitsIcESaIcEE6substrEmm@GLIBCXX_3.4.21
                 U _ZNKSt7__cxx1112basic_stringIcSt11char_traitsIcESaIcEE7compareEPKc@GLIBCXX_3.4.21
                 U _ZNKSt7__cxx1112basic_stringIcSt11char_traitsIcESaIcEE7compareERKS4_@GLIBCXX_3.4.21
                 U _ZNKSt7__cxx1112basic_stringIcSt11char_traitsIcESaIcEE7_M_dataEv@GLIBCXX_3.4.21
                 U _ZNKSt7__cxx1112basic_stringIcSt11char_traitsIcESaIcEE8capacityEv@GLIBCXX_3.4.21
                 U _ZNKSt7__cxx1112basic_stringIcSt11char_traitsIcESaIcEEixEm@GLIBCXX_3.4.21
0000000000035b16 W _ZNKSt8__detail10_AllocNodeISaINS_10_Hash_nodeISt4pairIKNSt7__cxx1112basic_stringIcSt11char_traitsIcESaIcEEEN10ParserUtil4eCSREELb1EEEEEclIRKSC_EEPSD_OT_
0000000000035504 W _ZNKSt8__detail10_AllocNodeISaINS_10_Hash_nodeISt4pairIKNSt7__cxx1112basic_stringIcSt11char_traitsIcESaIcEEEN10ParserUtil4eGPREELb1EEEEEclIRKSC_EEPSD_OT_
0000000000034dfc W _ZNKSt8__detail10_Hash_nodeISt4pairIKNSt7__cxx1112basic_stringIcSt11char_traitsIcESaIcEEEN10ParserUtil4eCSREELb1EE7_M_nextEv
0000000000034584 W _ZNKSt8__detail10_Hash_nodeISt4pairIKNSt7__cxx1112basic_stringIcSt11char_traitsIcESaIcEEEN10ParserUtil4eGPREELb1EE7_M_nextEv
0000000000035a92 W _ZNKSt8__detail10_Select1stclIRKSt4pairIKNSt7__cxx1112basic_stringIcSt11char_traitsIcESaIcEEEN10ParserUtil4eCSREEEEDTcl3getILi0EEcl7forwardIT_Efp_EEEOSF_
0000000000035480 W _ZNKSt8__detail10_Select1stclIRKSt4pairIKNSt7__cxx1112basic_stringIcSt11char_traitsIcESaIcEEEN10ParserUtil4eGPREEEEDTcl3getILi0EEcl7forwardIT_Efp_EEEOSF_
0000000000033480 W _ZNKSt8__detail14_Node_iteratorISt4pairIKNSt7__cxx1112basic_stringIcSt11char_traitsIcESaIcEEEN10ParserUtil4eCSREELb0ELb1EEptEv
0000000000032ffc W _ZNKSt8__detail14_Node_iteratorISt4pairIKNSt7__cxx1112basic_stringIcSt11char_traitsIcESaIcEEEN10ParserUtil4eGPREELb0ELb1EEptEv
00000000000331ca W _ZNKSt8__detail15_Hash_code_baseINSt7__cxx1112basic_stringIcSt11char_traitsIcESaIcEEESt4pairIKS6_N10ParserUtil4eCSREENS_10_Select1stESt4hashIS6_ENS_18_Mod_range_hashingENS_20_Default_ranged_hashELb1EE12_M_hash_codeERS8_
00000000000340e2 W _ZNKSt8__detail15_Hash_code_baseINSt7__cxx1112basic_stringIcSt11char_traitsIcESaIcEEESt4pairIKS6_N10ParserUtil4eCSREENS_10_Select1stESt4hashIS6_ENS_18_Mod_range_hashingENS_20_Default_ranged_hashELb1EE13_M_store_codeERNS_21_Hash_node_code_cacheILb1EEEm
0000000000033d7a W _ZNKSt8__detail15_Hash_code_baseINSt7__cxx1112basic_stringIcSt11char_traitsIcESaIcEEESt4pairIKS6_N10ParserUtil4eCSREENS_10_Select1stESt4hashIS6_ENS_18_Mod_range_hashingENS_20_Default_ranged_hashELb1EE15_M_bucket_indexEmm
0000000000035c46 W _ZNKSt8__detail15_Hash_code_baseINSt7__cxx1112basic_stringIcSt11char_traitsIcESaIcEEESt4pairIKS6_N10ParserUtil4eCSREENS_10_Select1stESt4hashIS6_ENS_18_Mod_range_hashingENS_20_Default_ranged_hashELb1EE15_M_bucket_indexERKNS_16_Hash_node_valueISB_Lb1EEEm
0000000000033d5c W _ZNKSt8__detail15_Hash_code_baseINSt7__cxx1112basic_stringIcSt11char_traitsIcESaIcEEESt4pairIKS6_N10ParserUtil4eCSREENS_10_Select1stESt4hashIS6_ENS_18_Mod_range_hashingENS_20_Default_ranged_hashELb1EE7_M_hashEv
0000000000032d46 W _ZNKSt8__detail15_Hash_code_baseINSt7__cxx1112basic_stringIcSt11char_traitsIcESaIcEEESt4pairIKS6_N10ParserUtil4eGPREENS_10_Select1stESt4hashIS6_ENS_18_Mod_range_hashingENS_20_Default_ranged_hashELb1EE12_M_hash_codeERS8_
0000000000033a24 W _ZNKSt8__detail15_Hash_code_baseINSt7__cxx1112basic_stringIcSt11char_traitsIcESaIcEEESt4pairIKS6_N10ParserUtil4eGPREENS_10_Select1stESt4hashIS6_ENS_18_Mod_range_hashingENS_20_Default_ranged_hashELb1EE13_M_store_codeERNS_21_Hash_node_code_cacheILb1EEEm
00000000000336bc W _ZNKSt8__detail15_Hash_code_baseINSt7__cxx1112basic_stringIcSt11char_traitsIcESaIcEEESt4pairIKS6_N10ParserUtil4eGPREENS_10_Select1stESt4hashIS6_ENS_18_Mod_range_hashingENS_20_Default_ranged_hashELb1EE15_M_bucket_indexEmm
00000000000356d2 W _ZNKSt8__detail15_Hash_code_baseINSt7__cxx1112basic_stringIcSt11char_traitsIcESaIcEEESt4pairIKS6_N10ParserUtil4eGPREENS_10_Select1stESt4hashIS6_ENS_18_Mod_range_hashingENS_20_Default_ranged_hashELb1EE15_M_bucket_indexERKNS_16_Hash_node_valueISB_Lb1EEEm
000000000003369e W _ZNKSt8__detail15_Hash_code_baseINSt7__cxx1112basic_stringIcSt11char_traitsIcESaIcEEESt4pairIKS6_N10ParserUtil4eGPREENS_10_Select1stESt4hashIS6_ENS_18_Mod_range_hashingENS_20_Default_ranged_hashELb1EE7_M_hashEv
0000000000035c0a W _ZNKSt8__detail15_Hashtable_baseINSt7__cxx1112basic_stringIcSt11char_traitsIcESaIcEEESt4pairIKS6_N10ParserUtil4eCSREENS_10_Select1stESt8equal_toIS6_ESt4hashIS6_ENS_18_Mod_range_hashingENS_20_Default_ranged_hashENS_17_Hashtable_traitsILb1ELb0ELb1EEEE5_M_eqEv
0000000000034ef0 W _ZNKSt8__detail15_Hashtable_baseINSt7__cxx1112basic_stringIcSt11char_traitsIcESaIcEEESt4pairIKS6_N10ParserUtil4eCSREENS_10_Select1stESt8equal_toIS6_ESt4hashIS6_ENS_18_Mod_range_hashingENS_20_Default_ranged_hashENS_17_Hashtable_traitsILb1ELb0ELb1EEEE9_M_equalsERS8_mRKNS_16_Hash_node_valueISB_Lb1EEE
0000000000035668 W _ZNKSt8__detail15_Hashtable_baseINSt7__cxx1112basic_stringIcSt11char_traitsIcESaIcEEESt4pairIKS6_N10ParserUtil4eGPREENS_10_Select1stESt8equal_toIS6_ESt4hashIS6_ENS_18_Mod_range_hashingENS_20_Default_ranged_hashENS_17_Hashtable_traitsILb1ELb0ELb1EEEE5_M_eqEv
000000000003468a W _ZNKSt8__detail15_Hashtable_baseINSt7__cxx1112basic_stringIcSt11char_traitsIcESaIcEEESt4pairIKS6_N10ParserUtil4eGPREENS_10_Select1stESt8equal_toIS6_ESt4hashIS6_ENS_18_Mod_range_hashingENS_20_Default_ranged_hashENS_17_Hashtable_traitsILb1ELb0ELb1EEEE9_M_equalsERS8_mRKNS_16_Hash_node_valueISB_Lb1EEE
0000000000032042 W _ZNKSt8__detail18_Mod_range_hashingclEmm
                 U _ZNKSt8__detail20_Prime_rehash_policy11_M_next_bktEm@GLIBCXX_3.4.18
                 U _ZNKSt8__detail20_Prime_rehash_policy14_M_need_rehashEmmm@GLIBCXX_3.4.18
0000000000032096 W _ZNKSt8__detail20_Prime_rehash_policy8_M_stateEv
0000000000035c28 W _ZNKSt8__detail21_Hash_node_value_baseISt4pairIKNSt7__cxx1112basic_stringIcSt11char_traitsIcESaIcEEEN10ParserUtil4eCSREEE4_M_vEv
000000000003635a W _ZNKSt8__detail21_Hash_node_value_baseISt4pairIKNSt7__cxx1112basic_stringIcSt11char_traitsIcESaIcEEEN10ParserUtil4eCSREEE9_M_valptrEv
0000000000035686 W _ZNKSt8__detail21_Hash_node_value_baseISt4pairIKNSt7__cxx1112basic_stringIcSt11char_traitsIcESaIcEEEN10ParserUtil4eGPREEE4_M_vEv
0000000000036138 W _ZNKSt8__detail21_Hash_node_value_baseISt4pairIKNSt7__cxx1112basic_stringIcSt11char_traitsIcESaIcEEEN10ParserUtil4eGPREEE9_M_valptrEv
0000000000036126 W _ZNKSt8__detail21_Hashtable_ebo_helperILi0ESt8equal_toINSt7__cxx1112basic_stringIcSt11char_traitsIcESaIcEEEELb1EE7_M_cgetEv
0000000000034678 W _ZNKSt8__detail21_Hashtable_ebo_helperILi1ESt4hashINSt7__cxx1112basic_stringIcSt11char_traitsIcESaIcEEEELb1EE7_M_cgetEv
00000000000356a4 W _ZNKSt8equal_toINSt7__cxx1112basic_stringIcSt11char_traitsIcESaIcEEEEclERKS5_S8_
000000000002b22c W _ZNKSt8_Rb_treeIN10ParserUtil12eOperandTypeESt4pairIKS1_St3mapINS0_15eAddressingTypeESt6vectorIS2_IN12AssemblyUtil11InstructionES6_ISt10shared_ptrIN15InstructionUtil14CodePopulationEESaISC_EEESaISF_EESt4lessIS5_ESaIS2_IKS5_SH_EEEESt10_Select1stISO_ESI_IS1_ESaISO_EE4sizeEv
0000000000028ed2 W _ZNKSt8_Rb_treeIN10ParserUtil12eOperandTypeESt4pairIKS1_St3mapINS0_15eAddressingTypeESt6vectorIS2_IN12AssemblyUtil11InstructionES6_ISt10shared_ptrIN15InstructionUtil14CodePopulationEESaISC_EEESaISF_EESt4lessIS5_ESaIS2_IKS5_SH_EEEESt10_Select1stISO_ESI_IS1_ESaISO_EE8key_compEv
000000000002c610 W _ZNKSt8_Rb_treeIN10ParserUtil12eOperandTypeESt4pairIKS1_St3mapINS0_15eAddressingTypeESt6vectorIS2_IN12AssemblyUtil11InstructionES6_ISt10shared_ptrIN15InstructionUtil14CodePopulationEESaISC_EEESaISF_EESt4lessIS5_ESaIS2_IKS5_SH_EEEESt10_Select1stISO_ESI_IS1_ESaISO_EE9_M_mbeginEv
000000000002b7d0 W _ZNKSt8_Rb_treeIN10ParserUtil15eAddressingTypeESt4pairIKS1_St6vectorIS2_IN12AssemblyUtil11InstructionES4_ISt10shared_ptrIN15InstructionUtil14CodePopulationEESaISA_EEESaISD_EEESt10_Select1stISG_ESt4lessIS1_ESaISG_EE4sizeEv
00000000000295a2 W _ZNKSt8_Rb_treeIN10ParserUtil15eAddressingTypeESt4pairIKS1_St6vectorIS2_IN12AssemblyUtil11InstructionES4_ISt10shared_ptrIN15InstructionUtil14CodePopulationEESaISA_EEESaISD_EEESt10_Select1stISG_ESt4lessIS1_ESaISG_EE8key_compEv
000000000002c810 W _ZNKSt8_Rb_treeIN10ParserUtil15eAddressingTypeESt4pairIKS1_St6vectorIS2_IN12AssemblyUtil11InstructionES4_ISt10shared_ptrIN15InstructionUtil14CodePopulationEESaISA_EEESaISD_EEESt10_Select1stISG_ESt4lessIS1_ESaISG_EE9_M_mbeginEv
000000000002ad1a W _ZNKSt8_Rb_treeIN10ParserUtil22eInstructionIdentifierESt4pairIKS1_St3mapINS0_12eOperandTypeES4_INS0_15eAddressingTypeESt6vectorIS2_IN12AssemblyUtil11InstructionES7_ISt10shared_ptrIN15InstructionUtil14CodePopulationEESaISD_EEESaISG_EESt4lessIS6_ESaIS2_IKS6_SI_EEESJ_IS5_ESaIS2_IKS5_SO_EEEESt10_Select1stISU_ESJ_IS1_ESaISU_EE4sizeEv
0000000000028840 W _ZNKSt8_Rb_treeIN10ParserUtil22eInstructionIdentifierESt4pairIKS1_St3mapINS0_12eOperandTypeES4_INS0_15eAddressingTypeESt6vectorIS2_IN12AssemblyUtil11InstructionES7_ISt10shared_ptrIN15InstructionUtil14CodePopulationEESaISD_EEESaISG_EESt4lessIS6_ESaIS2_IKS6_SI_EEESJ_IS5_ESaIS2_IKS5_SO_EEEESt10_Select1stISU_ESJ_IS1_ESaISU_EE8key_compEv
0000000000027f4c W _ZNKSt8_Rb_treeIN10ParserUtil22eInstructionIdentifierESt4pairIKS1_St3mapINS0_12eOperandTypeES4_INS0_15eAddressingTypeESt6vectorIS2_IN12AssemblyUtil11InstructionES7_ISt10shared_ptrIN15InstructionUtil14CodePopulationEESaISD_EEESaISG_EESt4lessIS6_ESaIS2_IKS6_SI_EEESJ_IS5_ESaIS2_IKS5_SO_EEEESt10_Select1stISU_ESJ_IS1_ESaISU_EE9_M_mbeginEv
0000000000016aa6 W _ZNKSt8_Rb_treeINSt7__cxx1112basic_stringIcSt11char_traitsIcESaIcEEESt4pairIKS5_N10LinkerUtil15eInputFileStateEESt10_Select1stISA_ESt4lessIS5_ESaISA_EE11_Alloc_nodeclIRKSA_EEPSt13_Rb_tree_nodeISA_EOT_
0000000000015ccc W _ZNKSt8_Rb_treeINSt7__cxx1112basic_stringIcSt11char_traitsIcESaIcEEESt4pairIKS5_N10LinkerUtil15eInputFileStateEESt10_Select1stISA_ESt4lessIS5_ESaISA_EE4sizeEv
000000000001350e W _ZNKSt8_Rb_treeINSt7__cxx1112basic_stringIcSt11char_traitsIcESaIcEEESt4pairIKS5_N10LinkerUtil15eInputFileStateEESt10_Select1stISA_ESt4lessIS5_ESaISA_EE8key_compEv
000000000001493c W _ZNKSt8_Rb_treeINSt7__cxx1112basic_stringIcSt11char_traitsIcESaIcEEESt4pairIKS5_N10LinkerUtil15eInputFileStateEESt10_Select1stISA_ESt4lessIS5_ESaISA_EE9_M_mbeginEv
00000000000156fc W _ZNKSt8_Rb_treeINSt7__cxx1112basic_stringIcSt11char_traitsIcESaIcEEESt4pairIKS5_St10shared_ptrIN10LinkerUtil16SectionMergeDataEEESt10_Select1stISC_ESt4lessIS5_ESaISC_EE4sizeEv
0000000000012b68 W _ZNKSt8_Rb_treeINSt7__cxx1112basic_stringIcSt11char_traitsIcESaIcEEESt4pairIKS5_St10shared_ptrIN10LinkerUtil16SectionMergeDataEEESt10_Select1stISC_ESt4lessIS5_ESaISC_EE8key_compEv
00000000000129aa W _ZNKSt8_Rb_treeINSt7__cxx1112basic_stringIcSt11char_traitsIcESaIcEEESt4pairIKS5_St10shared_ptrIN10LinkerUtil16SectionMergeDataEEESt10_Select1stISC_ESt4lessIS5_ESaISC_EE9_M_mbeginEv
                 U _ZNKSt9basic_iosIcSt11char_traitsIcEEcvbEv@GLIBCXX_3.4.21
                 U _ZNKSt9exception4whatEv@GLIBCXX_3.4
000000000000a9fa W _ZNKSt9type_infoeqERKS_
                 U _ZNSaIcEC1ERKS_@GLIBCXX_3.4
                 U _ZNSaIcEC1Ev@GLIBCXX_3.4
                 U _ZNSaIcED1Ev@GLIBCXX_3.4
                 U _ZNSaIcED2Ev@GLIBCXX_3.4
0000000000021f96 W _ZNSaIhEC1ERKS_
000000000001cbb2 W _ZNSaIhEC1Ev
0000000000021f96 W _ZNSaIhEC2ERKS_
000000000001cbb2 W _ZNSaIhEC2Ev
000000000001c4f8 W _ZNSaIhED1Ev
000000000001c4f8 W _ZNSaIhED2Ev
0000000000019334 W _ZNSaIN10LinkerUtil16SectionMergeDataEEC1ERKS1_
0000000000010354 W _ZNSaIN10LinkerUtil16SectionMergeDataEEC1Ev
0000000000019334 W _ZNSaIN10LinkerUtil16SectionMergeDataEEC2ERKS1_
0000000000010354 W _ZNSaIN10LinkerUtil16SectionMergeDataEEC2Ev
0000000000010374 W _ZNSaIN10LinkerUtil16SectionMergeDataEED1Ev
0000000000010374 W _ZNSaIN10LinkerUtil16SectionMergeDataEED2Ev
0000000000018e84 W _ZNSaIN12AssemblyUtil12SectionEntryEEC1ERKS1_
000000000000fe34 W _ZNSaIN12AssemblyUtil12SectionEntryEEC1Ev
0000000000018e84 W _ZNSaIN12AssemblyUtil12SectionEntryEEC2ERKS1_
000000000000fe34 W _ZNSaIN12AssemblyUtil12SectionEntryEEC2Ev
000000000000fe54 W _ZNSaIN12AssemblyUtil12SectionEntryEED1Ev
000000000000fe54 W _ZNSaIN12AssemblyUtil12SectionEntryEED2Ev
000000000001a05a W _ZNSaIN12AssemblyUtil16SymbolTableEntryEEC1ERKS1_
00000000000113bc W _ZNSaIN12AssemblyUtil16SymbolTableEntryEEC1Ev
000000000001a05a W _ZNSaIN12AssemblyUtil16SymbolTableEntryEEC2ERKS1_
00000000000113bc W _ZNSaIN12AssemblyUtil16SymbolTableEntryEEC2Ev
00000000000113dc W _ZNSaIN12AssemblyUtil16SymbolTableEntryEED1Ev
00000000000113dc W _ZNSaIN12AssemblyUtil16SymbolTableEntryEED2Ev
000000000001a452 W _ZNSaIN12AssemblyUtil20RelocationTableEntryEEC1ERKS1_
00000000000115b6 W _ZNSaIN12AssemblyUtil20RelocationTableEntryEEC1Ev
000000000001a452 W _ZNSaIN12AssemblyUtil20RelocationTableEntryEEC2ERKS1_
00000000000115b6 W _ZNSaIN12AssemblyUtil20RelocationTableEntryEEC2Ev
00000000000115d6 W _ZNSaIN12AssemblyUtil20RelocationTableEntryEED1Ev
00000000000115d6 W _ZNSaIN12AssemblyUtil20RelocationTableEntryEED2Ev
000000000002d234 W _ZNSaIN15InstructionUtil14CodePopulationEEC1ERKS1_
0000000000026dda W _ZNSaIN15InstructionUtil14CodePopulationEEC1Ev
000000000002d234 W _ZNSaIN15InstructionUtil14CodePopulationEEC2ERKS1_
0000000000026dda W _ZNSaIN15InstructionUtil14CodePopulationEEC2Ev
0000000000026dfa W _ZNSaIN15InstructionUtil14CodePopulationEED1Ev
0000000000026dfa W _ZNSaIN15InstructionUtil14CodePopulationEED2Ev
0000000000014f10 W _ZNSaINSt7__cxx1112basic_stringIcSt11char_traitsIcESaIcEEEEC1ERKS5_
000000000001e2be W _ZNSaINSt7__cxx1112basic_stringIcSt11char_traitsIcESaIcEEEEC1Ev
0000000000014f10 W _ZNSaINSt7__cxx1112basic_stringIcSt11char_traitsIcESaIcEEEEC2ERKS5_
000000000001e2be W _ZNSaINSt7__cxx1112basic_stringIcSt11char_traitsIcESaIcEEEEC2Ev
000000000000f4c2 W _ZNSaINSt7__cxx1112basic_stringIcSt11char_traitsIcESaIcEEEED1Ev
000000000000f4c2 W _ZNSaINSt7__cxx1112basic_stringIcSt11char_traitsIcESaIcEEEED2Ev
0000000000036580 W _ZNSaINSt8__detail10_Hash_nodeISt4pairIKNSt7__cxx1112basic_stringIcSt11char_traitsIcESaIcEEEN10ParserUtil4eCSREELb1EEEEC1ERKSD_
0000000000035922 W _ZNSaINSt8__detail10_Hash_nodeISt4pairIKNSt7__cxx1112basic_stringIcSt11char_traitsIcESaIcEEEN10ParserUtil4eCSREELb1EEEEC1ISB_EERKSaIT_E
0000000000036580 W _ZNSaINSt8__detail10_Hash_nodeISt4pairIKNSt7__cxx1112basic_stringIcSt11char_traitsIcESaIcEEEN10ParserUtil4eCSREELb1EEEEC2ERKSD_
0000000000035922 W _ZNSaINSt8__detail10_Hash_nodeISt4pairIKNSt7__cxx1112basic_stringIcSt11char_traitsIcESaIcEEEN10ParserUtil4eCSREELb1EEEEC2ISB_EERKSaIT_E
000000000003310a W _ZNSaINSt8__detail10_Hash_nodeISt4pairIKNSt7__cxx1112basic_stringIcSt11char_traitsIcESaIcEEEN10ParserUtil4eCSREELb1EEEED1Ev
000000000003310a W _ZNSaINSt8__detail10_Hash_nodeISt4pairIKNSt7__cxx1112basic_stringIcSt11char_traitsIcESaIcEEEN10ParserUtil4eCSREELb1EEEED2Ev
00000000000363fa W _ZNSaINSt8__detail10_Hash_nodeISt4pairIKNSt7__cxx1112basic_stringIcSt11char_traitsIcESaIcEEEN10ParserUtil4eGPREELb1EEEEC1ERKSD_
0000000000035300 W _ZNSaINSt8__detail10_Hash_nodeISt4pairIKNSt7__cxx1112basic_stringIcSt11char_traitsIcESaIcEEEN10ParserUtil4eGPREELb1EEEEC1ISB_EERKSaIT_E
00000000000363fa W _ZNSaINSt8__detail10_Hash_nodeISt4pairIKNSt7__cxx1112basic_stringIcSt11char_traitsIcESaIcEEEN10ParserUtil4eGPREELb1EEEEC2ERKSD_
0000000000035300 W _ZNSaINSt8__detail10_Hash_nodeISt4pairIKNSt7__cxx1112basic_stringIcSt11char_traitsIcESaIcEEEN10ParserUtil4eGPREELb1EEEEC2ISB_EERKSaIT_E
0000000000032c86 W _ZNSaINSt8__detail10_Hash_nodeISt4pairIKNSt7__cxx1112basic_stringIcSt11char_traitsIcESaIcEEEN10ParserUtil4eGPREELb1EEEED1Ev
0000000000032c86 W _ZNSaINSt8__detail10_Hash_nodeISt4pairIKNSt7__cxx1112basic_stringIcSt11char_traitsIcESaIcEEEN10ParserUtil4eGPREELb1EEEED2Ev
0000000000035bc6 W _ZNSaIPNSt8__detail15_Hash_node_baseEEC1INS_10_Hash_nodeISt4pairIKNSt7__cxx1112basic_stringIcSt11char_traitsIcESaIcEEEN10ParserUtil4eCSREELb1EEEEERKSaIT_E
00000000000355d2 W _ZNSaIPNSt8__detail15_Hash_node_baseEEC1INS_10_Hash_nodeISt4pairIKNSt7__cxx1112basic_stringIcSt11char_traitsIcESaIcEEEN10ParserUtil4eGPREELb1EEEEERKSaIT_E
0000000000035bc6 W _ZNSaIPNSt8__detail15_Hash_node_baseEEC2INS_10_Hash_nodeISt4pairIKNSt7__cxx1112basic_stringIcSt11char_traitsIcESaIcEEEN10ParserUtil4eCSREELb1EEEEERKSaIT_E
00000000000355d2 W _ZNSaIPNSt8__detail15_Hash_node_baseEEC2INS_10_Hash_nodeISt4pairIKNSt7__cxx1112basic_stringIcSt11char_traitsIcESaIcEEEN10ParserUtil4eGPREELb1EEEEERKSaIT_E
00000000000355f6 W _ZNSaIPNSt8__detail15_Hash_node_baseEED1Ev
00000000000355f6 W _ZNSaIPNSt8__detail15_Hash_node_baseEED2Ev
000000000000fd06 W _ZNSaISt10shared_ptrIN10LinkerUtil16SectionMergeDataEEEC1Ev
000000000000fd06 W _ZNSaISt10shared_ptrIN10LinkerUtil16SectionMergeDataEEEC2Ev
000000000000d1a2 W _ZNSaISt10shared_ptrIN10LinkerUtil16SectionMergeDataEEED1Ev
000000000000d1a2 W _ZNSaISt10shared_ptrIN10LinkerUtil16SectionMergeDataEEED2Ev
000000000001afc2 W _ZNSaISt10shared_ptrIN12AssemblyUtil12SectionEntryEEEC1ERKS3_
000000000000ed98 W _ZNSaISt10shared_ptrIN12AssemblyUtil12SectionEntryEEEC1Ev
000000000001afc2 W _ZNSaISt10shared_ptrIN12AssemblyUtil12SectionEntryEEEC2ERKS3_
000000000000ed98 W _ZNSaISt10shared_ptrIN12AssemblyUtil12SectionEntryEEEC2Ev
000000000000be12 W _ZNSaISt10shared_ptrIN12AssemblyUtil12SectionEntryEEED1Ev
000000000000be12 W _ZNSaISt10shared_ptrIN12AssemblyUtil12SectionEntryEEED2Ev
000000000001aea2 W _ZNSaISt10shared_ptrIN12AssemblyUtil16SymbolTableEntryEEEC1ERKS3_
000000000000ecbc W _ZNSaISt10shared_ptrIN12AssemblyUtil16SymbolTableEntryEEEC1Ev
000000000001aea2 W _ZNSaISt10shared_ptrIN12AssemblyUtil16SymbolTableEntryEEEC2ERKS3_
000000000000ecbc W _ZNSaISt10shared_ptrIN12AssemblyUtil16SymbolTableEntryEEEC2Ev
000000000000bd2c W _ZNSaISt10shared_ptrIN12AssemblyUtil16SymbolTableEntryEEED1Ev
000000000000bd2c W _ZNSaISt10shared_ptrIN12AssemblyUtil16SymbolTableEntryEEED2Ev
000000000001b0e2 W _ZNSaISt10shared_ptrIN12AssemblyUtil20RelocationTableEntryEEEC1ERKS3_
000000000000ee74 W _ZNSaISt10shared_ptrIN12AssemblyUtil20RelocationTableEntryEEEC1Ev
000000000001b0e2 W _ZNSaISt10shared_ptrIN12AssemblyUtil20RelocationTableEntryEEEC2ERKS3_
000000000000ee74 W _ZNSaISt10shared_ptrIN12AssemblyUtil20RelocationTableEntryEEEC2Ev
000000000000bef8 W _ZNSaISt10shared_ptrIN12AssemblyUtil20RelocationTableEntryEEED1Ev
000000000000bef8 W _ZNSaISt10shared_ptrIN12AssemblyUtil20RelocationTableEntryEEED2Ev
000000000002c2d8 W _ZNSaISt10shared_ptrIN15InstructionUtil14CodePopulationEEEC1ERKS3_
0000000000026be2 W _ZNSaISt10shared_ptrIN15InstructionUtil14CodePopulationEEEC1Ev
000000000002c2d8 W _ZNSaISt10shared_ptrIN15InstructionUtil14CodePopulationEEEC2ERKS3_
0000000000026be2 W _ZNSaISt10shared_ptrIN15InstructionUtil14CodePopulationEEEC2Ev
0000000000025c0a W _ZNSaISt10shared_ptrIN15InstructionUtil14CodePopulationEEED1Ev
0000000000025c0a W _ZNSaISt10shared_ptrIN15InstructionUtil14CodePopulationEEED2Ev
000000000002f4a6 W _ZNSaISt13_Rb_tree_nodeISt4pairIKN10ParserUtil12eOperandTypeESt3mapINS1_15eAddressingTypeESt6vectorIS0_IN12AssemblyUtil11InstructionES6_ISt10shared_ptrIN15InstructionUtil14CodePopulationEESaISC_EEESaISF_EESt4lessIS5_ESaIS0_IKS5_SH_EEEEEEC1Ev
000000000002f4a6 W _ZNSaISt13_Rb_tree_nodeISt4pairIKN10ParserUtil12eOperandTypeESt3mapINS1_15eAddressingTypeESt6vectorIS0_IN12AssemblyUtil11InstructionES6_ISt10shared_ptrIN15InstructionUtil14CodePopulationEESaISC_EEESaISF_EESt4lessIS5_ESaIS0_IKS5_SH_EEEEEEC2Ev
000000000002e3a0 W _ZNSaISt13_Rb_tree_nodeISt4pairIKN10ParserUtil12eOperandTypeESt3mapINS1_15eAddressingTypeESt6vectorIS0_IN12AssemblyUtil11InstructionES6_ISt10shared_ptrIN15InstructionUtil14CodePopulationEESaISC_EEESaISF_EESt4lessIS5_ESaIS0_IKS5_SH_EEEEEED1Ev
000000000002e3a0 W _ZNSaISt13_Rb_tree_nodeISt4pairIKN10ParserUtil12eOperandTypeESt3mapINS1_15eAddressingTypeESt6vectorIS0_IN12AssemblyUtil11InstructionES6_ISt10shared_ptrIN15InstructionUtil14CodePopulationEESaISC_EEESaISF_EESt4lessIS5_ESaIS0_IKS5_SH_EEEEEED2Ev
000000000002f4f4 W _ZNSaISt13_Rb_tree_nodeISt4pairIKN10ParserUtil15eAddressingTypeESt6vectorIS0_IN12AssemblyUtil11InstructionES4_ISt10shared_ptrIN15InstructionUtil14CodePopulationEESaISA_EEESaISD_EEEEEC1Ev
000000000002f4f4 W _ZNSaISt13_Rb_tree_nodeISt4pairIKN10ParserUtil15eAddressingTypeESt6vectorIS0_IN12AssemblyUtil11InstructionES4_ISt10shared_ptrIN15InstructionUtil14CodePopulationEESaISA_EEESaISD_EEEEEC2Ev
000000000002e828 W _ZNSaISt13_Rb_tree_nodeISt4pairIKN10ParserUtil15eAddressingTypeESt6vectorIS0_IN12AssemblyUtil11InstructionES4_ISt10shared_ptrIN15InstructionUtil14CodePopulationEESaISA_EEESaISD_EEEEED1Ev
000000000002e828 W _ZNSaISt13_Rb_tree_nodeISt4pairIKN10ParserUtil15eAddressingTypeESt6vectorIS0_IN12AssemblyUtil11InstructionES4_ISt10shared_ptrIN15InstructionUtil14CodePopulationEESaISA_EEESaISD_EEEEED2Ev
0000000000026a7e W _ZNSaISt13_Rb_tree_nodeISt4pairIKN10ParserUtil22eInstructionIdentifierESt3mapINS1_12eOperandTypeES4_INS1_15eAddressingTypeESt6vectorIS0_IN12AssemblyUtil11InstructionES7_ISt10shared_ptrIN15InstructionUtil14CodePopulationEESaISD_EEESaISG_EESt4lessIS6_ESaIS0_IKS6_SI_EEESJ_IS5_ESaIS0_IKS5_SO_EEEEEEC1Ev
0000000000026a7e W _ZNSaISt13_Rb_tree_nodeISt4pairIKN10ParserUtil22eInstructionIdentifierESt3mapINS1_12eOperandTypeES4_INS1_15eAddressingTypeESt6vectorIS0_IN12AssemblyUtil11InstructionES7_ISt10shared_ptrIN15InstructionUtil14CodePopulationEESaISD_EEESaISG_EESt4lessIS6_ESaIS0_IKS6_SI_EEESJ_IS5_ESaIS0_IKS5_SO_EEEEEEC2Ev
0000000000025ad2 W _ZNSaISt13_Rb_tree_nodeISt4pairIKN10ParserUtil22eInstructionIdentifierESt3mapINS1_12eOperandTypeES4_INS1_15eAddressingTypeESt6vectorIS0_IN12AssemblyUtil11InstructionES7_ISt10shared_ptrIN15InstructionUtil14CodePopulationEESaISD_EEESaISG_EESt4lessIS6_ESaIS0_IKS6_SI_EEESJ_IS5_ESaIS0_IKS5_SO_EEEEEED1Ev
0000000000025ad2 W _ZNSaISt13_Rb_tree_nodeISt4pairIKN10ParserUtil22eInstructionIdentifierESt3mapINS1_12eOperandTypeES4_INS1_15eAddressingTypeESt6vectorIS0_IN12AssemblyUtil11InstructionES7_ISt10shared_ptrIN15InstructionUtil14CodePopulationEESaISD_EEESaISG_EESt4lessIS6_ESaIS0_IKS6_SI_EEESJ_IS5_ESaIS0_IKS5_SO_EEEEEED2Ev
00000000000148d2 W _ZNSaISt13_Rb_tree_nodeISt4pairIKNSt7__cxx1112basic_stringIcSt11char_traitsIcESaIcEEEN10LinkerUtil15eInputFileStateEEEEC1ERKSC_
000000000001199a W _ZNSaISt13_Rb_tree_nodeISt4pairIKNSt7__cxx1112basic_stringIcSt11char_traitsIcESaIcEEEN10LinkerUtil15eInputFileStateEEEEC1ISA_EERKSaIT_E
00000000000148d2 W _ZNSaISt13_Rb_tree_nodeISt4pairIKNSt7__cxx1112basic_stringIcSt11char_traitsIcESaIcEEEN10LinkerUtil15eInputFileStateEEEEC2ERKSC_
000000000001199a W _ZNSaISt13_Rb_tree_nodeISt4pairIKNSt7__cxx1112basic_stringIcSt11char_traitsIcESaIcEEEN10LinkerUtil15eInputFileStateEEEEC2ISA_EERKSaIT_E
00000000000119be W _ZNSaISt13_Rb_tree_nodeISt4pairIKNSt7__cxx1112basic_stringIcSt11char_traitsIcESaIcEEEN10LinkerUtil15eInputFileStateEEEED1Ev
00000000000119be W _ZNSaISt13_Rb_tree_nodeISt4pairIKNSt7__cxx1112basic_stringIcSt11char_traitsIcESaIcEEEN10LinkerUtil15eInputFileStateEEEED2Ev
00000000000100fe W _ZNSaISt13_Rb_tree_nodeISt4pairIKNSt7__cxx1112basic_stringIcSt11char_traitsIcESaIcEEESt10shared_ptrIN10LinkerUtil16SectionMergeDataEEEEEC1Ev
00000000000100fe W _ZNSaISt13_Rb_tree_nodeISt4pairIKNSt7__cxx1112basic_stringIcSt11char_traitsIcESaIcEEESt10shared_ptrIN10LinkerUtil16SectionMergeDataEEEEEC2Ev
000000000000d80c W _ZNSaISt13_Rb_tree_nodeISt4pairIKNSt7__cxx1112basic_stringIcSt11char_traitsIcESaIcEEESt10shared_ptrIN10LinkerUtil16SectionMergeDataEEEEED1Ev
000000000000d80c W _ZNSaISt13_Rb_tree_nodeISt4pairIKNSt7__cxx1112basic_stringIcSt11char_traitsIcESaIcEEESt10shared_ptrIN10LinkerUtil16SectionMergeDataEEEEED2Ev
000000000001924e W _ZNSaISt23_Sp_counted_ptr_inplaceIN10LinkerUtil16SectionMergeDataESaIS1_ELN9__gnu_cxx12_Lock_policyE2EEEC1IS1_EERKSaIT_E
000000000001924e W _ZNSaISt23_Sp_counted_ptr_inplaceIN10LinkerUtil16SectionMergeDataESaIS1_ELN9__gnu_cxx12_Lock_policyE2EEEC2IS1_EERKSaIT_E
0000000000019272 W _ZNSaISt23_Sp_counted_ptr_inplaceIN10LinkerUtil16SectionMergeDataESaIS1_ELN9__gnu_cxx12_Lock_policyE2EEED1Ev
0000000000019272 W _ZNSaISt23_Sp_counted_ptr_inplaceIN10LinkerUtil16SectionMergeDataESaIS1_ELN9__gnu_cxx12_Lock_policyE2EEED2Ev
0000000000018d9e W _ZNSaISt23_Sp_counted_ptr_inplaceIN12AssemblyUtil12SectionEntryESaIS1_ELN9__gnu_cxx12_Lock_policyE2EEEC1IS1_EERKSaIT_E
0000000000018d9e W _ZNSaISt23_Sp_counted_ptr_inplaceIN12AssemblyUtil12SectionEntryESaIS1_ELN9__gnu_cxx12_Lock_policyE2EEEC2IS1_EERKSaIT_E
0000000000018dc2 W _ZNSaISt23_Sp_counted_ptr_inplaceIN12AssemblyUtil12SectionEntryESaIS1_ELN9__gnu_cxx12_Lock_policyE2EEED1Ev
0000000000018dc2 W _ZNSaISt23_Sp_counted_ptr_inplaceIN12AssemblyUtil12SectionEntryESaIS1_ELN9__gnu_cxx12_Lock_policyE2EEED2Ev
0000000000019f74 W _ZNSaISt23_Sp_counted_ptr_inplaceIN12AssemblyUtil16SymbolTableEntryESaIS1_ELN9__gnu_cxx12_Lock_policyE2EEEC1IS1_EERKSaIT_E
0000000000019f74 W _ZNSaISt23_Sp_counted_ptr_inplaceIN12AssemblyUtil16SymbolTableEntryESaIS1_ELN9__gnu_cxx12_Lock_policyE2EEEC2IS1_EERKSaIT_E
0000000000019f98 W _ZNSaISt23_Sp_counted_ptr_inplaceIN12AssemblyUtil16SymbolTableEntryESaIS1_ELN9__gnu_cxx12_Lock_policyE2EEED1Ev
0000000000019f98 W _ZNSaISt23_Sp_counted_ptr_inplaceIN12AssemblyUtil16SymbolTableEntryESaIS1_ELN9__gnu_cxx12_Lock_policyE2EEED2Ev
000000000001a36c W _ZNSaISt23_Sp_counted_ptr_inplaceIN12AssemblyUtil20RelocationTableEntryESaIS1_ELN9__gnu_cxx12_Lock_policyE2EEEC1IS1_EERKSaIT_E
000000000001a36c W _ZNSaISt23_Sp_counted_ptr_inplaceIN12AssemblyUtil20RelocationTableEntryESaIS1_ELN9__gnu_cxx12_Lock_policyE2EEEC2IS1_EERKSaIT_E
000000000001a390 W _ZNSaISt23_Sp_counted_ptr_inplaceIN12AssemblyUtil20RelocationTableEntryESaIS1_ELN9__gnu_cxx12_Lock_policyE2EEED1Ev
000000000001a390 W _ZNSaISt23_Sp_counted_ptr_inplaceIN12AssemblyUtil20RelocationTableEntryESaIS1_ELN9__gnu_cxx12_Lock_policyE2EEED2Ev
000000000002d14e W _ZNSaISt23_Sp_counted_ptr_inplaceIN15InstructionUtil14CodePopulationESaIS1_ELN9__gnu_cxx12_Lock_policyE2EEEC1IS1_EERKSaIT_E
000000000002d14e W _ZNSaISt23_Sp_counted_ptr_inplaceIN15InstructionUtil14CodePopulationESaIS1_ELN9__gnu_cxx12_Lock_policyE2EEEC2IS1_EERKSaIT_E
000000000002d172 W _ZNSaISt23_Sp_counted_ptr_inplaceIN15InstructionUtil14CodePopulationESaIS1_ELN9__gnu_cxx12_Lock_policyE2EEED1Ev
000000000002d172 W _ZNSaISt23_Sp_counted_ptr_inplaceIN15InstructionUtil14CodePopulationESaIS1_ELN9__gnu_cxx12_Lock_policyE2EEED2Ev
000000000001cc14 W _ZNSaISt4pairIiSt10shared_ptrIN12AssemblyUtil12SectionEntryEEEEC1Ev
000000000001cc14 W _ZNSaISt4pairIiSt10shared_ptrIN12AssemblyUtil12SectionEntryEEEEC2Ev
000000000001c762 W _ZNSaISt4pairIiSt10shared_ptrIN12AssemblyUtil12SectionEntryEEEED1Ev
000000000001c762 W _ZNSaISt4pairIiSt10shared_ptrIN12AssemblyUtil12SectionEntryEEEED2Ev
000000000000eaa0 W _ZNSaISt4pairIKNSt7__cxx1112basic_stringIcSt11char_traitsIcESaIcEEEN10LinkerUtil15eInputFileStateEEEC1ERKSA_
000000000000bbc6 W _ZNSaISt4pairIKNSt7__cxx1112basic_stringIcSt11char_traitsIcESaIcEEEN10LinkerUtil15eInputFileStateEEEC1Ev
000000000000eaa0 W _ZNSaISt4pairIKNSt7__cxx1112basic_stringIcSt11char_traitsIcESaIcEEEN10LinkerUtil15eInputFileStateEEEC2ERKSA_
000000000000bbc6 W _ZNSaISt4pairIKNSt7__cxx1112basic_stringIcSt11char_traitsIcESaIcEEEN10LinkerUtil15eInputFileStateEEEC2Ev
000000000000bbe6 W _ZNSaISt4pairIKNSt7__cxx1112basic_stringIcSt11char_traitsIcESaIcEEEN10LinkerUtil15eInputFileStateEEED1Ev
000000000000bbe6 W _ZNSaISt4pairIKNSt7__cxx1112basic_stringIcSt11char_traitsIcESaIcEEEN10LinkerUtil15eInputFileStateEEED2Ev
00000000000325e4 W _ZNSaISt4pairIKNSt7__cxx1112basic_stringIcSt11char_traitsIcESaIcEEEN10ParserUtil4eCSREEEC1Ev
00000000000325e4 W _ZNSaISt4pairIKNSt7__cxx1112basic_stringIcSt11char_traitsIcESaIcEEEN10ParserUtil4eCSREEEC2Ev
0000000000032604 W _ZNSaISt4pairIKNSt7__cxx1112basic_stringIcSt11char_traitsIcESaIcEEEN10ParserUtil4eCSREEED1Ev
0000000000032604 W _ZNSaISt4pairIKNSt7__cxx1112basic_stringIcSt11char_traitsIcESaIcEEEN10ParserUtil4eCSREEED2Ev
00000000000324d0 W _ZNSaISt4pairIKNSt7__cxx1112basic_stringIcSt11char_traitsIcESaIcEEEN10ParserUtil4eGPREEEC1Ev
00000000000324d0 W _ZNSaISt4pairIKNSt7__cxx1112basic_stringIcSt11char_traitsIcESaIcEEEN10ParserUtil4eGPREEEC2Ev
00000000000324f0 W _ZNSaISt4pairIKNSt7__cxx1112basic_stringIcSt11char_traitsIcESaIcEEEN10ParserUtil4eGPREEED1Ev
00000000000324f0 W _ZNSaISt4pairIKNSt7__cxx1112basic_stringIcSt11char_traitsIcESaIcEEEN10ParserUtil4eGPREEED2Ev
000000000002bdbe W _ZNSaISt4pairIMN12AssemblyUtil11InstructionEFvtEN15InstructionUtil11eValueToUseEEEC1ERKS7_
000000000002680c W _ZNSaISt4pairIMN12AssemblyUtil11InstructionEFvtEN15InstructionUtil11eValueToUseEEEC1Ev
000000000002bdbe W _ZNSaISt4pairIMN12AssemblyUtil11InstructionEFvtEN15InstructionUtil11eValueToUseEEEC2ERKS7_
000000000002680c W _ZNSaISt4pairIMN12AssemblyUtil11InstructionEFvtEN15InstructionUtil11eValueToUseEEEC2Ev
0000000000026742 W _ZNSaISt4pairIMN12AssemblyUtil11InstructionEFvtEN15InstructionUtil11eValueToUseEEED1Ev
0000000000026742 W _ZNSaISt4pairIMN12AssemblyUtil11InstructionEFvtEN15InstructionUtil11eValueToUseEEED2Ev
000000000002beb4 W _ZNSaISt4pairIN12AssemblyUtil11InstructionESt6vectorISt10shared_ptrIN15InstructionUtil14CodePopulationEESaIS6_EEEEC1ERKSA_
0000000000026b46 W _ZNSaISt4pairIN12AssemblyUtil11InstructionESt6vectorISt10shared_ptrIN15InstructionUtil14CodePopulationEESaIS6_EEEEC1Ev
000000000002beb4 W _ZNSaISt4pairIN12AssemblyUtil11InstructionESt6vectorISt10shared_ptrIN15InstructionUtil14CodePopulationEESaIS6_EEEEC2ERKSA_
0000000000026b46 W _ZNSaISt4pairIN12AssemblyUtil11InstructionESt6vectorISt10shared_ptrIN15InstructionUtil14CodePopulationEESaIS6_EEEEC2Ev
0000000000025b5c W _ZNSaISt4pairIN12AssemblyUtil11InstructionESt6vectorISt10shared_ptrIN15InstructionUtil14CodePopulationEESaIS6_EEEED1Ev
0000000000025b5c W _ZNSaISt4pairIN12AssemblyUtil11InstructionESt6vectorISt10shared_ptrIN15InstructionUtil14CodePopulationEESaIS6_EEEED2Ev
0000000000014d56 W _ZNSaISt4pairINSt7__cxx1112basic_stringIcSt11char_traitsIcESaIcEEEmEEC1ERKS7_
000000000001e386 W _ZNSaISt4pairINSt7__cxx1112basic_stringIcSt11char_traitsIcESaIcEEEmEEC1Ev
0000000000014d56 W _ZNSaISt4pairINSt7__cxx1112basic_stringIcSt11char_traitsIcESaIcEEEmEEC2ERKS7_
000000000001e386 W _ZNSaISt4pairINSt7__cxx1112basic_stringIcSt11char_traitsIcESaIcEEEmEEC2Ev
000000000000f246 W _ZNSaISt4pairINSt7__cxx1112basic_stringIcSt11char_traitsIcESaIcEEEmEED1Ev
000000000000f246 W _ZNSaISt4pairINSt7__cxx1112basic_stringIcSt11char_traitsIcESaIcEEEmEED2Ev
000000000000f02c W _ZNSaISt6vectorISt10shared_ptrIN12AssemblyUtil12SectionEntryEESaIS3_EEEC1Ev
000000000000f02c W _ZNSaISt6vectorISt10shared_ptrIN12AssemblyUtil12SectionEntryEESaIS3_EEEC2Ev
000000000000c0d4 W _ZNSaISt6vectorISt10shared_ptrIN12AssemblyUtil12SectionEntryEESaIS3_EEED1Ev
000000000000c0d4 W _ZNSaISt6vectorISt10shared_ptrIN12AssemblyUtil12SectionEntryEESaIS3_EEED2Ev
000000000000ef50 W _ZNSaISt6vectorISt10shared_ptrIN12AssemblyUtil16SymbolTableEntryEESaIS3_EEEC1Ev
000000000000ef50 W _ZNSaISt6vectorISt10shared_ptrIN12AssemblyUtil16SymbolTableEntryEESaIS3_EEEC2Ev
000000000000bfde W _ZNSaISt6vectorISt10shared_ptrIN12AssemblyUtil16SymbolTableEntryEESaIS3_EEED1Ev
000000000000bfde W _ZNSaISt6vectorISt10shared_ptrIN12AssemblyUtil16SymbolTableEntryEESaIS3_EEED2Ev
000000000000f108 W _ZNSaISt6vectorISt10shared_ptrIN12AssemblyUtil20RelocationTableEntryEESaIS3_EEEC1Ev
000000000000f108 W _ZNSaISt6vectorISt10shared_ptrIN12AssemblyUtil20RelocationTableEntryEESaIS3_EEEC2Ev
000000000000c1ca W _ZNSaISt6vectorISt10shared_ptrIN12AssemblyUtil20RelocationTableEntryEESaIS3_EEED1Ev
000000000000c1ca W _ZNSaISt6vectorISt10shared_ptrIN12AssemblyUtil20RelocationTableEntryEESaIS3_EEED2Ev
                 U _ZNSolsEb@GLIBCXX_3.4
                 U _ZNSolsEi@GLIBCXX_3.4
                 U _ZNSolsEm@GLIBCXX_3.4
                 U _ZNSolsEPFRSt8ios_baseS0_E@GLIBCXX_3.4
                 U _ZNSolsEs@GLIBCXX_3.4
                 U _ZNSolsEt@GLIBCXX_3.4
0000000000031fab W _ZNSt10_Hash_impl4hashEPKvmm
0000000000035b50 W _ZNSt10_HashtableINSt7__cxx1112basic_stringIcSt11char_traitsIcESaIcEEESt4pairIKS5_N10ParserUtil4eCSREESaISA_ENSt8__detail10_Select1stESt8equal_toIS5_ESt4hashIS5_ENSC_18_Mod_range_hashingENSC_20_Default_ranged_hashENSC_20_Prime_rehash_policyENSC_17_Hashtable_traitsILb1ELb0ELb1EEEE12_Scoped_nodeC1EPNSC_10_Hash_nodeISA_Lb1EEEPNSC_16_Hashtable_allocISaISQ_EEE
000000000003329e W _ZNSt10_HashtableINSt7__cxx1112basic_stringIcSt11char_traitsIcESaIcEEESt4pairIKS5_N10ParserUtil4eCSREESaISA_ENSt8__detail10_Select1stESt8equal_toIS5_ESt4hashIS5_ENSC_18_Mod_range_hashingENSC_20_Default_ranged_hashENSC_20_Prime_rehash_policyENSC_17_Hashtable_traitsILb1ELb0ELb1EEEE12_Scoped_nodeC1IJRKSt21piecewise_construct_tSt5tupleIJRS7_EEST_IJEEEEEPNSC_16_Hashtable_allocISaINSC_10_Hash_nodeISA_Lb1EEEEEEDpOT_
0000000000035b50 W _ZNSt10_HashtableINSt7__cxx1112basic_stringIcSt11char_traitsIcESaIcEEESt4pairIKS5_N10ParserUtil4eCSREESaISA_ENSt8__detail10_Select1stESt8equal_toIS5_ESt4hashIS5_ENSC_18_Mod_range_hashingENSC_20_Default_ranged_hashENSC_20_Prime_rehash_policyENSC_17_Hashtable_traitsILb1ELb0ELb1EEEE12_Scoped_nodeC2EPNSC_10_Hash_nodeISA_Lb1EEEPNSC_16_Hashtable_allocISaISQ_EEE
000000000003329e W _ZNSt10_HashtableINSt7__cxx1112basic_stringIcSt11char_traitsIcESaIcEEESt4pairIKS5_N10ParserUtil4eCSREESaISA_ENSt8__detail10_Select1stESt8equal_toIS5_ESt4hashIS5_ENSC_18_Mod_range_hashingENSC_20_Default_ranged_hashENSC_20_Prime_rehash_policyENSC_17_Hashtable_traitsILb1ELb0ELb1EEEE12_Scoped_nodeC2IJRKSt21piecewise_construct_tSt5tupleIJRS7_EEST_IJEEEEEPNSC_16_Hashtable_allocISaINSC_10_Hash_nodeISA_Lb1EEEEEEDpOT_
0000000000033322 W _ZNSt10_HashtableINSt7__cxx1112basic_stringIcSt11char_traitsIcESaIcEEESt4pairIKS5_N10ParserUtil4eCSREESaISA_ENSt8__detail10_Select1stESt8equal_toIS5_ESt4hashIS5_ENSC_18_Mod_range_hashingENSC_20_Default_ranged_hashENSC_20_Prime_rehash_policyENSC_17_Hashtable_traitsILb1ELb0ELb1EEEE12_Scoped_nodeD1Ev
0000000000033322 W _ZNSt10_HashtableINSt7__cxx1112basic_stringIcSt11char_traitsIcESaIcEEESt4pairIKS5_N10ParserUtil4eCSREESaISA_ENSt8__detail10_Select1stESt8equal_toIS5_ESt4hashIS5_ENSC_18_Mod_range_hashingENSC_20_Default_ranged_hashENSC_20_Prime_rehash_policyENSC_17_Hashtable_traitsILb1ELb0ELb1EEEE12_Scoped_nodeD2Ev
0000000000035164 W _ZNSt10_HashtableINSt7__cxx1112basic_stringIcSt11char_traitsIcESaIcEEESt4pairIKS5_N10ParserUtil4eCSREESaISA_ENSt8__detail10_Select1stESt8equal_toIS5_ESt4hashIS5_ENSC_18_Mod_range_hashingENSC_20_Default_ranged_hashENSC_20_Prime_rehash_policyENSC_17_Hashtable_traitsILb1ELb0ELb1EEEE13_M_rehash_auxEmSt17integral_constantIbLb1EE
0000000000034bb4 W _ZNSt10_HashtableINSt7__cxx1112basic_stringIcSt11char_traitsIcESaIcEEESt4pairIKS5_N10ParserUtil4eCSREESaISA_ENSt8__detail10_Select1stESt8equal_toIS5_ESt4hashIS5_ENSC_18_Mod_range_hashingENSC_20_Default_ranged_hashENSC_20_Prime_rehash_policyENSC_17_Hashtable_traitsILb1ELb0ELb1EEEE19_M_allocate_bucketsEm
0000000000033d10 W _ZNSt10_HashtableINSt7__cxx1112basic_stringIcSt11char_traitsIcESaIcEEESt4pairIKS5_N10ParserUtil4eCSREESaISA_ENSt8__detail10_Select1stESt8equal_toIS5_ESt4hashIS5_ENSC_18_Mod_range_hashingENSC_20_Default_ranged_hashENSC_20_Prime_rehash_policyENSC_17_Hashtable_traitsILb1ELb0ELb1EEEE21_M_deallocate_bucketsEPPNSC_15_Hash_node_baseEm
0000000000033198 W _ZNSt10_HashtableINSt7__cxx1112basic_stringIcSt11char_traitsIcESaIcEEESt4pairIKS5_N10ParserUtil4eCSREESaISA_ENSt8__detail10_Select1stESt8equal_toIS5_ESt4hashIS5_ENSC_18_Mod_range_hashingENSC_20_Default_ranged_hashENSC_20_Prime_rehash_policyENSC_17_Hashtable_traitsILb1ELb0ELb1EEEE21_M_deallocate_bucketsEv
000000000003335c W _ZNSt10_HashtableINSt7__cxx1112basic_stringIcSt11char_traitsIcESaIcEEESt4pairIKS5_N10ParserUtil4eCSREESaISA_ENSt8__detail10_Select1stESt8equal_toIS5_ESt4hashIS5_ENSC_18_Mod_range_hashingENSC_20_Default_ranged_hashENSC_20_Prime_rehash_policyENSC_17_Hashtable_traitsILb1ELb0ELb1EEEE21_M_insert_unique_nodeEmmPNSC_10_Hash_nodeISA_Lb1EEEm
0000000000034104 W _ZNSt10_HashtableINSt7__cxx1112basic_stringIcSt11char_traitsIcESaIcEEESt4pairIKS5_N10ParserUtil4eCSREESaISA_ENSt8__detail10_Select1stESt8equal_toIS5_ESt4hashIS5_ENSC_18_Mod_range_hashingENSC_20_Default_ranged_hashENSC_20_Prime_rehash_policyENSC_17_Hashtable_traitsILb1ELb0ELb1EEEE22_M_insert_bucket_beginEmPNSC_10_Hash_nodeISA_Lb1EEE
000000000003312a W _ZNSt10_HashtableINSt7__cxx1112basic_stringIcSt11char_traitsIcESaIcEEESt4pairIKS5_N10ParserUtil4eCSREESaISA_ENSt8__detail10_Select1stESt8equal_toIS5_ESt4hashIS5_ENSC_18_Mod_range_hashingENSC_20_Default_ranged_hashENSC_20_Prime_rehash_policyENSC_17_Hashtable_traitsILb1ELb0ELb1EEEE5clearEv
0000000000034c34 W _ZNSt10_HashtableINSt7__cxx1112basic_stringIcSt11char_traitsIcESaIcEEESt4pairIKS5_N10ParserUtil4eCSREESaISA_ENSt8__detail10_Select1stESt8equal_toIS5_ESt4hashIS5_ENSC_18_Mod_range_hashingENSC_20_Default_ranged_hashENSC_20_Prime_rehash_policyENSC_17_Hashtable_traitsILb1ELb0ELb1EEEE9_M_insertIRKSA_NSC_10_AllocNodeISaINSC_10_Hash_nodeISA_Lb1EEEEEEEES6_INSC_14_Node_iteratorISA_Lb0ELb1EEEbEOT_RKT0_St17integral_constantIbLb1EE
000000000003406c W _ZNSt10_HashtableINSt7__cxx1112basic_stringIcSt11char_traitsIcESaIcEEESt4pairIKS5_N10ParserUtil4eCSREESaISA_ENSt8__detail10_Select1stESt8equal_toIS5_ESt4hashIS5_ENSC_18_Mod_range_hashingENSC_20_Default_ranged_hashENSC_20_Prime_rehash_policyENSC_17_Hashtable_traitsILb1ELb0ELb1EEEE9_M_rehashEmRKm
0000000000033b7a W _ZNSt10_HashtableINSt7__cxx1112basic_stringIcSt11char_traitsIcESaIcEEESt4pairIKS5_N10ParserUtil4eCSREESaISA_ENSt8__detail10_Select1stESt8equal_toIS5_ESt4hashIS5_ENSC_18_Mod_range_hashingENSC_20_Default_ranged_hashENSC_20_Prime_rehash_policyENSC_17_Hashtable_traitsILb1ELb0ELb1EEEEC1EmRKSH_RKSF_RKSB_
0000000000034a9a W _ZNSt10_HashtableINSt7__cxx1112basic_stringIcSt11char_traitsIcESaIcEEESt4pairIKS5_N10ParserUtil4eCSREESaISA_ENSt8__detail10_Select1stESt8equal_toIS5_ESt4hashIS5_ENSC_18_Mod_range_hashingENSC_20_Default_ranged_hashENSC_20_Prime_rehash_policyENSC_17_Hashtable_traitsILb1ELb0ELb1EEEEC1ERKSH_RKSF_RKSB_
0000000000032950 W _ZNSt10_HashtableINSt7__cxx1112basic_stringIcSt11char_traitsIcESaIcEEESt4pairIKS5_N10ParserUtil4eCSREESaISA_ENSt8__detail10_Select1stESt8equal_toIS5_ESt4hashIS5_ENSC_18_Mod_range_hashingENSC_20_Default_ranged_hashENSC_20_Prime_rehash_policyENSC_17_Hashtable_traitsILb1ELb0ELb1EEEEC1ESt16initializer_listISA_EmRKSH_RKSF_RKSB_
000000000003307e W _ZNSt10_HashtableINSt7__cxx1112basic_stringIcSt11char_traitsIcESaIcEEESt4pairIKS5_N10ParserUtil4eCSREESaISA_ENSt8__detail10_Select1stESt8equal_toIS5_ESt4hashIS5_ENSC_18_Mod_range_hashingENSC_20_Default_ranged_hashENSC_20_Prime_rehash_policyENSC_17_Hashtable_traitsILb1ELb0ELb1EEEEC1IPKSA_EET_SR_mRKSH_RKSF_RKSB_St17integral_constantIbLb1EE
0000000000033b7a W _ZNSt10_HashtableINSt7__cxx1112basic_stringIcSt11char_traitsIcESaIcEEESt4pairIKS5_N10ParserUtil4eCSREESaISA_ENSt8__detail10_Select1stESt8equal_toIS5_ESt4hashIS5_ENSC_18_Mod_range_hashingENSC_20_Default_ranged_hashENSC_20_Prime_rehash_policyENSC_17_Hashtable_traitsILb1ELb0ELb1EEEEC2EmRKSH_RKSF_RKSB_
0000000000034a9a W _ZNSt10_HashtableINSt7__cxx1112basic_stringIcSt11char_traitsIcESaIcEEESt4pairIKS5_N10ParserUtil4eCSREESaISA_ENSt8__detail10_Select1stESt8equal_toIS5_ESt4hashIS5_ENSC_18_Mod_range_hashingENSC_20_Default_ranged_hashENSC_20_Prime_rehash_policyENSC_17_Hashtable_traitsILb1ELb0ELb1EEEEC2ERKSH_RKSF_RKSB_
0000000000032950 W _ZNSt10_HashtableINSt7__cxx1112basic_stringIcSt11char_traitsIcESaIcEEESt4pairIKS5_N10ParserUtil4eCSREESaISA_ENSt8__detail10_Select1stESt8equal_toIS5_ESt4hashIS5_ENSC_18_Mod_range_hashingENSC_20_Default_ranged_hashENSC_20_Prime_rehash_policyENSC_17_Hashtable_traitsILb1ELb0ELb1EEEEC2ESt16initializer_listISA_EmRKSH_RKSF_RKSB_
000000000003307e W _ZNSt10_HashtableINSt7__cxx1112basic_stringIcSt11char_traitsIcESaIcEEESt4pairIKS5_N10ParserUtil4eCSREESaISA_ENSt8__detail10_Select1stESt8equal_toIS5_ESt4hashIS5_ENSC_18_Mod_range_hashingENSC_20_Default_ranged_hashENSC_20_Prime_rehash_policyENSC_17_Hashtable_traitsILb1ELb0ELb1EEEEC2IPKSA_EET_SR_mRKSH_RKSF_RKSB_St17integral_constantIbLb1EE
0000000000032a12 W _ZNSt10_HashtableINSt7__cxx1112basic_stringIcSt11char_traitsIcESaIcEEESt4pairIKS5_N10ParserUtil4eCSREESaISA_ENSt8__detail10_Select1stESt8equal_toIS5_ESt4hashIS5_ENSC_18_Mod_range_hashingENSC_20_Default_ranged_hashENSC_20_Prime_rehash_policyENSC_17_Hashtable_traitsILb1ELb0ELb1EEEED1Ev
0000000000032a12 W _ZNSt10_HashtableINSt7__cxx1112basic_stringIcSt11char_traitsIcESaIcEEESt4pairIKS5_N10ParserUtil4eCSREESaISA_ENSt8__detail10_Select1stESt8equal_toIS5_ESt4hashIS5_ENSC_18_Mod_range_hashingENSC_20_Default_ranged_hashENSC_20_Prime_rehash_policyENSC_17_Hashtable_traitsILb1ELb0ELb1EEEED2Ev
000000000003553e W _ZNSt10_HashtableINSt7__cxx1112basic_stringIcSt11char_traitsIcESaIcEEESt4pairIKS5_N10ParserUtil4eGPREESaISA_ENSt8__detail10_Select1stESt8equal_toIS5_ESt4hashIS5_ENSC_18_Mod_range_hashingENSC_20_Default_ranged_hashENSC_20_Prime_rehash_policyENSC_17_Hashtable_traitsILb1ELb0ELb1EEEE12_Scoped_nodeC1EPNSC_10_Hash_nodeISA_Lb1EEEPNSC_16_Hashtable_allocISaISQ_EEE
0000000000032e1a W _ZNSt10_HashtableINSt7__cxx1112basic_stringIcSt11char_traitsIcESaIcEEESt4pairIKS5_N10ParserUtil4eGPREESaISA_ENSt8__detail10_Select1stESt8equal_toIS5_ESt4hashIS5_ENSC_18_Mod_range_hashingENSC_20_Default_ranged_hashENSC_20_Prime_rehash_policyENSC_17_Hashtable_traitsILb1ELb0ELb1EEEE12_Scoped_nodeC1IJRKSt21piecewise_construct_tSt5tupleIJRS7_EEST_IJEEEEEPNSC_16_Hashtable_allocISaINSC_10_Hash_nodeISA_Lb1EEEEEEDpOT_
000000000003553e W _ZNSt10_HashtableINSt7__cxx1112basic_stringIcSt11char_traitsIcESaIcEEESt4pairIKS5_N10ParserUtil4eGPREESaISA_ENSt8__detail10_Select1stESt8equal_toIS5_ESt4hashIS5_ENSC_18_Mod_range_hashingENSC_20_Default_ranged_hashENSC_20_Prime_rehash_policyENSC_17_Hashtable_traitsILb1ELb0ELb1EEEE12_Scoped_nodeC2EPNSC_10_Hash_nodeISA_Lb1EEEPNSC_16_Hashtable_allocISaISQ_EEE
0000000000032e1a W _ZNSt10_HashtableINSt7__cxx1112basic_stringIcSt11char_traitsIcESaIcEEESt4pairIKS5_N10ParserUtil4eGPREESaISA_ENSt8__detail10_Select1stESt8equal_toIS5_ESt4hashIS5_ENSC_18_Mod_range_hashingENSC_20_Default_ranged_hashENSC_20_Prime_rehash_policyENSC_17_Hashtable_traitsILb1ELb0ELb1EEEE12_Scoped_nodeC2IJRKSt21piecewise_construct_tSt5tupleIJRS7_EEST_IJEEEEEPNSC_16_Hashtable_allocISaINSC_10_Hash_nodeISA_Lb1EEEEEEDpOT_
0000000000032e9e W _ZNSt10_HashtableINSt7__cxx1112basic_stringIcSt11char_traitsIcESaIcEEESt4pairIKS5_N10ParserUtil4eGPREESaISA_ENSt8__detail10_Select1stESt8equal_toIS5_ESt4hashIS5_ENSC_18_Mod_range_hashingENSC_20_Default_ranged_hashENSC_20_Prime_rehash_policyENSC_17_Hashtable_traitsILb1ELb0ELb1EEEE12_Scoped_nodeD1Ev
0000000000032e9e W _ZNSt10_HashtableINSt7__cxx1112basic_stringIcSt11char_traitsIcESaIcEEESt4pairIKS5_N10ParserUtil4eGPREESaISA_ENSt8__detail10_Select1stESt8equal_toIS5_ESt4hashIS5_ENSC_18_Mod_range_hashingENSC_20_Default_ranged_hashENSC_20_Prime_rehash_policyENSC_17_Hashtable_traitsILb1ELb0ELb1EEEE12_Scoped_nodeD2Ev
00000000000348fe W _ZNSt10_HashtableINSt7__cxx1112basic_stringIcSt11char_traitsIcESaIcEEESt4pairIKS5_N10ParserUtil4eGPREESaISA_ENSt8__detail10_Select1stESt8equal_toIS5_ESt4hashIS5_ENSC_18_Mod_range_hashingENSC_20_Default_ranged_hashENSC_20_Prime_rehash_policyENSC_17_Hashtable_traitsILb1ELb0ELb1EEEE13_M_rehash_auxEmSt17integral_constantIbLb1EE
000000000003433c W _ZNSt10_HashtableINSt7__cxx1112basic_stringIcSt11char_traitsIcESaIcEEESt4pairIKS5_N10ParserUtil4eGPREESaISA_ENSt8__detail10_Select1stESt8equal_toIS5_ESt4hashIS5_ENSC_18_Mod_range_hashingENSC_20_Default_ranged_hashENSC_20_Prime_rehash_policyENSC_17_Hashtable_traitsILb1ELb0ELb1EEEE19_M_allocate_bucketsEm
0000000000033652 W _ZNSt10_HashtableINSt7__cxx1112basic_stringIcSt11char_traitsIcESaIcEEESt4pairIKS5_N10ParserUtil4eGPREESaISA_ENSt8__detail10_Select1stESt8equal_toIS5_ESt4hashIS5_ENSC_18_Mod_range_hashingENSC_20_Default_ranged_hashENSC_20_Prime_rehash_policyENSC_17_Hashtable_traitsILb1ELb0ELb1EEEE21_M_deallocate_bucketsEPPNSC_15_Hash_node_baseEm
0000000000032d14 W _ZNSt10_HashtableINSt7__cxx1112basic_stringIcSt11char_traitsIcESaIcEEESt4pairIKS5_N10ParserUtil4eGPREESaISA_ENSt8__detail10_Select1stESt8equal_toIS5_ESt4hashIS5_ENSC_18_Mod_range_hashingENSC_20_Default_ranged_hashENSC_20_Prime_rehash_policyENSC_17_Hashtable_traitsILb1ELb0ELb1EEEE21_M_deallocate_bucketsEv
0000000000032ed8 W _ZNSt10_HashtableINSt7__cxx1112basic_stringIcSt11char_traitsIcESaIcEEESt4pairIKS5_N10ParserUtil4eGPREESaISA_ENSt8__detail10_Select1stESt8equal_toIS5_ESt4hashIS5_ENSC_18_Mod_range_hashingENSC_20_Default_ranged_hashENSC_20_Prime_rehash_policyENSC_17_Hashtable_traitsILb1ELb0ELb1EEEE21_M_insert_unique_nodeEmmPNSC_10_Hash_nodeISA_Lb1EEEm
0000000000033a46 W _ZNSt10_HashtableINSt7__cxx1112basic_stringIcSt11char_traitsIcESaIcEEESt4pairIKS5_N10ParserUtil4eGPREESaISA_ENSt8__detail10_Select1stESt8equal_toIS5_ESt4hashIS5_ENSC_18_Mod_range_hashingENSC_20_Default_ranged_hashENSC_20_Prime_rehash_policyENSC_17_Hashtable_traitsILb1ELb0ELb1EEEE22_M_insert_bucket_beginEmPNSC_10_Hash_nodeISA_Lb1EEE
0000000000032ca6 W _ZNSt10_HashtableINSt7__cxx1112basic_stringIcSt11char_traitsIcESaIcEEESt4pairIKS5_N10ParserUtil4eGPREESaISA_ENSt8__detail10_Select1stESt8equal_toIS5_ESt4hashIS5_ENSC_18_Mod_range_hashingENSC_20_Default_ranged_hashENSC_20_Prime_rehash_policyENSC_17_Hashtable_traitsILb1ELb0ELb1EEEE5clearEv
00000000000343bc W _ZNSt10_HashtableINSt7__cxx1112basic_stringIcSt11char_traitsIcESaIcEEESt4pairIKS5_N10ParserUtil4eGPREESaISA_ENSt8__detail10_Select1stESt8equal_toIS5_ESt4hashIS5_ENSC_18_Mod_range_hashingENSC_20_Default_ranged_hashENSC_20_Prime_rehash_policyENSC_17_Hashtable_traitsILb1ELb0ELb1EEEE9_M_insertIRKSA_NSC_10_AllocNodeISaINSC_10_Hash_nodeISA_Lb1EEEEEEEES6_INSC_14_Node_iteratorISA_Lb0ELb1EEEbEOT_RKT0_St17integral_constantIbLb1EE
00000000000339ae W _ZNSt10_HashtableINSt7__cxx1112basic_stringIcSt11char_traitsIcESaIcEEESt4pairIKS5_N10ParserUtil4eGPREESaISA_ENSt8__detail10_Select1stESt8equal_toIS5_ESt4hashIS5_ENSC_18_Mod_range_hashingENSC_20_Default_ranged_hashENSC_20_Prime_rehash_policyENSC_17_Hashtable_traitsILb1ELb0ELb1EEEE9_M_rehashEmRKm
00000000000334bc W _ZNSt10_HashtableINSt7__cxx1112basic_stringIcSt11char_traitsIcESaIcEEESt4pairIKS5_N10ParserUtil4eGPREESaISA_ENSt8__detail10_Select1stESt8equal_toIS5_ESt4hashIS5_ENSC_18_Mod_range_hashingENSC_20_Default_ranged_hashENSC_20_Prime_rehash_policyENSC_17_Hashtable_traitsILb1ELb0ELb1EEEEC1EmRKSH_RKSF_RKSB_
0000000000034222 W _ZNSt10_HashtableINSt7__cxx1112basic_stringIcSt11char_traitsIcESaIcEEESt4pairIKS5_N10ParserUtil4eGPREESaISA_ENSt8__detail10_Select1stESt8equal_toIS5_ESt4hashIS5_ENSC_18_Mod_range_hashingENSC_20_Default_ranged_hashENSC_20_Prime_rehash_policyENSC_17_Hashtable_traitsILb1ELb0ELb1EEEEC1ERKSH_RKSF_RKSB_
00000000000326e2 W _ZNSt10_HashtableINSt7__cxx1112basic_stringIcSt11char_traitsIcESaIcEEESt4pairIKS5_N10ParserUtil4eGPREESaISA_ENSt8__detail10_Select1stESt8equal_toIS5_ESt4hashIS5_ENSC_18_Mod_range_hashingENSC_20_Default_ranged_hashENSC_20_Prime_rehash_policyENSC_17_Hashtable_traitsILb1ELb0ELb1EEEEC1ESt16initializer_listISA_EmRKSH_RKSF_RKSB_
0000000000032bfa W _ZNSt10_HashtableINSt7__cxx1112basic_stringIcSt11char_traitsIcESaIcEEESt4pairIKS5_N10ParserUtil4eGPREESaISA_ENSt8__detail10_Select1stESt8equal_toIS5_ESt4hashIS5_ENSC_18_Mod_range_hashingENSC_20_Default_ranged_hashENSC_20_Prime_rehash_policyENSC_17_Hashtable_traitsILb1ELb0ELb1EEEEC1IPKSA_EET_SR_mRKSH_RKSF_RKSB_St17integral_constantIbLb1EE
00000000000334bc W _ZNSt10_HashtableINSt7__cxx1112basic_stringIcSt11char_traitsIcESaIcEEESt4pairIKS5_N10ParserUtil4eGPREESaISA_ENSt8__detail10_Select1stESt8equal_toIS5_ESt4hashIS5_ENSC_18_Mod_range_hashingENSC_20_Default_ranged_hashENSC_20_Prime_rehash_policyENSC_17_Hashtable_traitsILb1ELb0ELb1EEEEC2EmRKSH_RKSF_RKSB_
0000000000034222 W _ZNSt10_HashtableINSt7__cxx1112basic_stringIcSt11char_traitsIcESaIcEEESt4pairIKS5_N10ParserUtil4eGPREESaISA_ENSt8__detail10_Select1stESt8equal_toIS5_ESt4hashIS5_ENSC_18_Mod_range_hashingENSC_20_Default_ranged_hashENSC_20_Prime_rehash_policyENSC_17_Hashtable_traitsILb1ELb0ELb1EEEEC2ERKSH_RKSF_RKSB_
00000000000326e2 W _ZNSt10_HashtableINSt7__cxx1112basic_stringIcSt11char_traitsIcESaIcEEESt4pairIKS5_N10ParserUtil4eGPREESaISA_ENSt8__detail10_Select1stESt8equal_toIS5_ESt4hashIS5_ENSC_18_Mod_range_hashingENSC_20_Default_ranged_hashENSC_20_Prime_rehash_policyENSC_17_Hashtable_traitsILb1ELb0ELb1EEEEC2ESt16initializer_listISA_EmRKSH_RKSF_RKSB_
0000000000032bfa W _ZNSt10_HashtableINSt7__cxx1112basic_stringIcSt11char_traitsIcESaIcEEESt4pairIKS5_N10ParserUtil4eGPREESaISA_ENSt8__detail10_Select1stESt8equal_toIS5_ESt4hashIS5_ENSC_18_Mod_range_hashingENSC_20_Default_ranged_hashENSC_20_Prime_rehash_policyENSC_17_Hashtable_traitsILb1ELb0ELb1EEEEC2IPKSA_EET_SR_mRKSH_RKSF_RKSB_St17integral_constantIbLb1EE
00000000000327a4 W _ZNSt10_HashtableINSt7__cxx1112basic_stringIcSt11char_traitsIcESaIcEEESt4pairIKS5_N10ParserUtil4eGPREESaISA_ENSt8__detail10_Select1stESt8equal_toIS5_ESt4hashIS5_ENSC_18_Mod_range_hashingENSC_20_Default_ranged_hashENSC_20_Prime_rehash_policyENSC_17_Hashtable_traitsILb1ELb0ELb1EEEED1Ev
00000000000327a4 W _ZNSt10_HashtableINSt7__cxx1112basic_stringIcSt11char_traitsIcESaIcEEESt4pairIKS5_N10ParserUtil4eGPREESaISA_ENSt8__detail10_Select1stESt8equal_toIS5_ESt4hashIS5_ENSC_18_Mod_range_hashingENSC_20_Default_ranged_hashENSC_20_Prime_rehash_policyENSC_17_Hashtable_traitsILb1ELb0ELb1EEEED2Ev
000000000002fb63 W _ZNSt10_Head_baseILm0ERKN10ParserUtil12eOperandTypeELb0EE7_M_headERS4_
000000000002b0b4 W _ZNSt10_Head_baseILm0ERKN10ParserUtil12eOperandTypeELb0EEC1ES3_
000000000002b0b4 W _ZNSt10_Head_baseILm0ERKN10ParserUtil12eOperandTypeELb0EEC2ES3_
000000000002fb78 W _ZNSt10_Head_baseILm0ERKN10ParserUtil15eAddressingTypeELb0EE7_M_headERS4_
000000000002b658 W _ZNSt10_Head_baseILm0ERKN10ParserUtil15eAddressingTypeELb0EEC1ES3_
000000000002b658 W _ZNSt10_Head_baseILm0ERKN10ParserUtil15eAddressingTypeELb0EEC2ES3_
000000000002fb4e W _ZNSt10_Head_baseILm0ERKN10ParserUtil22eInstructionIdentifierELb0EE7_M_headERS4_
000000000002aba2 W _ZNSt10_Head_baseILm0ERKN10ParserUtil22eInstructionIdentifierELb0EEC1ES3_
000000000002aba2 W _ZNSt10_Head_baseILm0ERKN10ParserUtil22eInstructionIdentifierELb0EEC2ES3_
000000000001d034 W _ZNSt10_Head_baseILm0ERKNSt7__cxx1112basic_stringIcSt11char_traitsIcESaIcEEELb0EE7_M_headERS8_
0000000000015584 W _ZNSt10_Head_baseILm0ERKNSt7__cxx1112basic_stringIcSt11char_traitsIcESaIcEEELb0EEC1ES7_
0000000000015584 W _ZNSt10_Head_baseILm0ERKNSt7__cxx1112basic_stringIcSt11char_traitsIcESaIcEEELb0EEC2ES7_
00000000000365aa W _ZNSt10__pair_getILm0EE11__const_getIKNSt7__cxx1112basic_stringIcSt11char_traitsIcESaIcEEEN10ParserUtil4eCSREEERKT_RKSt4pairISB_T0_E
00000000000364a1 W _ZNSt10__pair_getILm0EE11__const_getIKNSt7__cxx1112basic_stringIcSt11char_traitsIcESaIcEEEN10ParserUtil4eGPREEERKT_RKSt4pairISB_T0_E
0000000000017bc8 W _ZNSt10shared_ptrIN10LinkerUtil16SectionMergeDataEEaSEOS2_
000000000000b67a W _ZNSt10shared_ptrIN10LinkerUtil16SectionMergeDataEEaSERKS2_
0000000000017b42 W _ZNSt10shared_ptrIN10LinkerUtil16SectionMergeDataEEC1EOS2_
000000000000b6e8 W _ZNSt10shared_ptrIN10LinkerUtil16SectionMergeDataEEC1ERKS2_
000000000001c84a W _ZNSt10shared_ptrIN10LinkerUtil16SectionMergeDataEEC1Ev
0000000000012aee W _ZNSt10shared_ptrIN10LinkerUtil16SectionMergeDataEEC1ISaIS1_EJEEESt20_Sp_alloc_shared_tagIT_EDpOT0_
0000000000017b42 W _ZNSt10shared_ptrIN10LinkerUtil16SectionMergeDataEEC2EOS2_
000000000000b6e8 W _ZNSt10shared_ptrIN10LinkerUtil16SectionMergeDataEEC2ERKS2_
000000000001c84a W _ZNSt10shared_ptrIN10LinkerUtil16SectionMergeDataEEC2Ev
0000000000012aee W _ZNSt10shared_ptrIN10LinkerUtil16SectionMergeDataEEC2ISaIS1_EJEEESt20_Sp_alloc_shared_tagIT_EDpOT0_
000000000000b616 W _ZNSt10shared_ptrIN10LinkerUtil16SectionMergeDataEED1Ev
000000000000b616 W _ZNSt10shared_ptrIN10LinkerUtil16SectionMergeDataEED2Ev
000000000001fe70 W _ZNSt10shared_ptrIN12AssemblyUtil12SectionEntryEEaSERKS2_
0000000000020184 W _ZNSt10shared_ptrIN12AssemblyUtil12SectionEntryEEC1EDn
0000000000016918 W _ZNSt10shared_ptrIN12AssemblyUtil12SectionEntryEEC1EOS2_
000000000000b4aa W _ZNSt10shared_ptrIN12AssemblyUtil12SectionEntryEEC1ERKS2_
0000000000020164 W _ZNSt10shared_ptrIN12AssemblyUtil12SectionEntryEEC1Ev
000000000001268a W _ZNSt10shared_ptrIN12AssemblyUtil12SectionEntryEEC1ISaIS1_EJEEESt20_Sp_alloc_shared_tagIT_EDpOT0_
0000000000020184 W _ZNSt10shared_ptrIN12AssemblyUtil12SectionEntryEEC2EDn
0000000000016918 W _ZNSt10shared_ptrIN12AssemblyUtil12SectionEntryEEC2EOS2_
000000000000b4aa W _ZNSt10shared_ptrIN12AssemblyUtil12SectionEntryEEC2ERKS2_
0000000000020164 W _ZNSt10shared_ptrIN12AssemblyUtil12SectionEntryEEC2Ev
000000000001268a W _ZNSt10shared_ptrIN12AssemblyUtil12SectionEntryEEC2ISaIS1_EJEEESt20_Sp_alloc_shared_tagIT_EDpOT0_
000000000000aba4 W _ZNSt10shared_ptrIN12AssemblyUtil12SectionEntryEED1Ev
000000000000aba4 W _ZNSt10shared_ptrIN12AssemblyUtil12SectionEntryEED2Ev
000000000000b756 W _ZNSt10shared_ptrIN12AssemblyUtil16SymbolTableEntryEEaSERKS2_
000000000002002a W _ZNSt10shared_ptrIN12AssemblyUtil16SymbolTableEntryEEC1EDn
000000000001cb42 W _ZNSt10shared_ptrIN12AssemblyUtil16SymbolTableEntryEEC1EOS2_
000000000000b392 W _ZNSt10shared_ptrIN12AssemblyUtil16SymbolTableEntryEEC1ERKS2_
000000000002000a W _ZNSt10shared_ptrIN12AssemblyUtil16SymbolTableEntryEEC1Ev
0000000000014230 W _ZNSt10shared_ptrIN12AssemblyUtil16SymbolTableEntryEEC1ISaIS1_EJEEESt20_Sp_alloc_shared_tagIT_EDpOT0_
0000000000020888 W _ZNSt10shared_ptrIN12AssemblyUtil16SymbolTableEntryEEC1ISaIS1_EJRNSt7__cxx1112basic_stringIcSt11char_traitsIcESaIcEEESB_RiRbSD_SC_EEESt20_Sp_alloc_shared_tagIT_EDpOT0_
000000000002002a W _ZNSt10shared_ptrIN12AssemblyUtil16SymbolTableEntryEEC2EDn
000000000001cb42 W _ZNSt10shared_ptrIN12AssemblyUtil16SymbolTableEntryEEC2EOS2_
000000000000b392 W _ZNSt10shared_ptrIN12AssemblyUtil16SymbolTableEntryEEC2ERKS2_
000000000002000a W _ZNSt10shared_ptrIN12AssemblyUtil16SymbolTableEntryEEC2Ev
0000000000014230 W _ZNSt10shared_ptrIN12AssemblyUtil16SymbolTableEntryEEC2ISaIS1_EJEEESt20_Sp_alloc_shared_tagIT_EDpOT0_
0000000000020888 W _ZNSt10shared_ptrIN12AssemblyUtil16SymbolTableEntryEEC2ISaIS1_EJRNSt7__cxx1112basic_stringIcSt11char_traitsIcESaIcEEESB_RiRbSD_SC_EEESt20_Sp_alloc_shared_tagIT_EDpOT0_
000000000000b332 W _ZNSt10shared_ptrIN12AssemblyUtil16SymbolTableEntryEED1Ev
000000000000b332 W _ZNSt10shared_ptrIN12AssemblyUtil16SymbolTableEntryEED2Ev
0000000000020356 W _ZNSt10shared_ptrIN12AssemblyUtil20RelocationTableEntryEEC1EDn
000000000001cb7a W _ZNSt10shared_ptrIN12AssemblyUtil20RelocationTableEntryEEC1EOS2_
000000000000b420 W _ZNSt10shared_ptrIN12AssemblyUtil20RelocationTableEntryEEC1ERKS2_
0000000000020336 W _ZNSt10shared_ptrIN12AssemblyUtil20RelocationTableEntryEEC1Ev
00000000000144d6 W _ZNSt10shared_ptrIN12AssemblyUtil20RelocationTableEntryEEC1ISaIS1_EJEEESt20_Sp_alloc_shared_tagIT_EDpOT0_
0000000000020356 W _ZNSt10shared_ptrIN12AssemblyUtil20RelocationTableEntryEEC2EDn
000000000001cb7a W _ZNSt10shared_ptrIN12AssemblyUtil20RelocationTableEntryEEC2EOS2_
000000000000b420 W _ZNSt10shared_ptrIN12AssemblyUtil20RelocationTableEntryEEC2ERKS2_
0000000000020336 W _ZNSt10shared_ptrIN12AssemblyUtil20RelocationTableEntryEEC2Ev
00000000000144d6 W _ZNSt10shared_ptrIN12AssemblyUtil20RelocationTableEntryEEC2ISaIS1_EJEEESt20_Sp_alloc_shared_tagIT_EDpOT0_
000000000000b44a W _ZNSt10shared_ptrIN12AssemblyUtil20RelocationTableEntryEED1Ev
000000000000b44a W _ZNSt10shared_ptrIN12AssemblyUtil20RelocationTableEntryEED2Ev
000000000002fdd8 W _ZNSt10shared_ptrIN15InstructionUtil14CodePopulationEEaSERKS2_
0000000000025d1c W _ZNSt10shared_ptrIN15InstructionUtil14CodePopulationEEC1EDn
000000000002c036 W _ZNSt10shared_ptrIN15InstructionUtil14CodePopulationEEC1EOS2_
000000000002d4b8 W _ZNSt10shared_ptrIN15InstructionUtil14CodePopulationEEC1ERKS2_
0000000000025cfc W _ZNSt10shared_ptrIN15InstructionUtil14CodePopulationEEC1Ev
00000000000282ec W _ZNSt10shared_ptrIN15InstructionUtil14CodePopulationEEC1ISaIS1_EJRMN12AssemblyUtil11InstructionEFvtERNS0_11eValueToUseEEEESt20_Sp_alloc_shared_tagIT_EDpOT0_
0000000000025d1c W _ZNSt10shared_ptrIN15InstructionUtil14CodePopulationEEC2EDn
000000000002c036 W _ZNSt10shared_ptrIN15InstructionUtil14CodePopulationEEC2EOS2_
000000000002d4b8 W _ZNSt10shared_ptrIN15InstructionUtil14CodePopulationEEC2ERKS2_
0000000000025cfc W _ZNSt10shared_ptrIN15InstructionUtil14CodePopulationEEC2Ev
00000000000282ec W _ZNSt10shared_ptrIN15InstructionUtil14CodePopulationEEC2ISaIS1_EJRMN12AssemblyUtil11InstructionEFvtERNS0_11eValueToUseEEEESt20_Sp_alloc_shared_tagIT_EDpOT0_
00000000000259a8 W _ZNSt10shared_ptrIN15InstructionUtil14CodePopulationEED1Ev
00000000000259a8 W _ZNSt10shared_ptrIN15InstructionUtil14CodePopulationEED2Ev
000000000000a7a3 W _ZNSt11char_traitsIcE2ltERKcS2_
000000000000a88e W _ZNSt11char_traitsIcE6lengthEPKc
000000000000a7ca W _ZNSt11char_traitsIcE7compareEPKcS2_m
000000000002fe05 W _ZNSt11__copy_moveILb0ELb0ESt26random_access_iterator_tagE8__copy_mIPKSt10shared_ptrIN15InstructionUtil14CodePopulationEEPS6_EET0_T_SB_SA_
000000000002dd06 W _ZNSt11__copy_moveILb0ELb0ESt26random_access_iterator_tagE8__copy_mIPKSt4pairIN12AssemblyUtil11InstructionESt6vectorISt10shared_ptrIN15InstructionUtil14CodePopulationEESaISA_EEEPSD_EET0_T_SI_SH_
000000000002fe5e W _ZNSt11__copy_moveILb0ELb0ESt26random_access_iterator_tagE8__copy_mIPSt10shared_ptrIN15InstructionUtil14CodePopulationEES7_EET0_T_S9_S8_
000000000002dd70 W _ZNSt11__copy_moveILb0ELb0ESt26random_access_iterator_tagE8__copy_mIPSt4pairIN12AssemblyUtil11InstructionESt6vectorISt10shared_ptrIN15InstructionUtil14CodePopulationEESaISA_EEESE_EET0_T_SG_SF_
000000000002226b W _ZNSt11__copy_moveILb0ELb1ESt26random_access_iterator_tagE8__copy_mIhEEPT_PKS3_S6_S4_
000000000002f87f W _ZNSt11_Tuple_implILm0EJRKN10ParserUtil12eOperandTypeEEE7_M_headERS4_
000000000002e20c W _ZNSt11_Tuple_implILm0EJRKN10ParserUtil12eOperandTypeEEEC1EOS4_
0000000000028f04 W _ZNSt11_Tuple_implILm0EJRKN10ParserUtil12eOperandTypeEEEC1ES3_
000000000002e20c W _ZNSt11_Tuple_implILm0EJRKN10ParserUtil12eOperandTypeEEEC2EOS4_
0000000000028f04 W _ZNSt11_Tuple_implILm0EJRKN10ParserUtil12eOperandTypeEEEC2ES3_
000000000002f8ad W _ZNSt11_Tuple_implILm0EJRKN10ParserUtil15eAddressingTypeEEE7_M_headERS4_
000000000002e2ba W _ZNSt11_Tuple_implILm0EJRKN10ParserUtil15eAddressingTypeEEEC1EOS4_
00000000000295d4 W _ZNSt11_Tuple_implILm0EJRKN10ParserUtil15eAddressingTypeEEEC1ES3_
000000000002e2ba W _ZNSt11_Tuple_implILm0EJRKN10ParserUtil15eAddressingTypeEEEC2EOS4_
00000000000295d4 W _ZNSt11_Tuple_implILm0EJRKN10ParserUtil15eAddressingTypeEEEC2ES3_
000000000002f851 W _ZNSt11_Tuple_implILm0EJRKN10ParserUtil22eInstructionIdentifierEEE7_M_headERS4_
000000000002e1bc W _ZNSt11_Tuple_implILm0EJRKN10ParserUtil22eInstructionIdentifierEEEC1EOS4_
0000000000028872 W _ZNSt11_Tuple_implILm0EJRKN10ParserUtil22eInstructionIdentifierEEEC1ES3_
000000000002e1bc W _ZNSt11_Tuple_implILm0EJRKN10ParserUtil22eInstructionIdentifierEEEC2EOS4_
0000000000028872 W _ZNSt11_Tuple_implILm0EJRKN10ParserUtil22eInstructionIdentifierEEEC2ES3_
000000000001ce9b W _ZNSt11_Tuple_implILm0EJRKNSt7__cxx1112basic_stringIcSt11char_traitsIcESaIcEEEEE7_M_headERS8_
000000000001ac94 W _ZNSt11_Tuple_implILm0EJRKNSt7__cxx1112basic_stringIcSt11char_traitsIcESaIcEEEEEC1EOS8_
0000000000012ba4 W _ZNSt11_Tuple_implILm0EJRKNSt7__cxx1112basic_stringIcSt11char_traitsIcESaIcEEEEEC1ES7_
000000000001ac94 W _ZNSt11_Tuple_implILm0EJRKNSt7__cxx1112basic_stringIcSt11char_traitsIcESaIcEEEEEC2EOS8_
0000000000012ba4 W _ZNSt11_Tuple_implILm0EJRKNSt7__cxx1112basic_stringIcSt11char_traitsIcESaIcEEEEEC2ES7_
000000000002fa54 W _ZNSt12_Destroy_auxILb0EE9__destroyIN9__gnu_cxx17__normal_iteratorIPSt10shared_ptrIN15InstructionUtil14CodePopulationEESt6vectorIS7_SaIS7_EEEEEEvT_SD_
000000000002bc1f W _ZNSt12_Destroy_auxILb0EE9__destroyIN9__gnu_cxx17__normal_iteratorIPSt4pairIN12AssemblyUtil11InstructionESt6vectorISt10shared_ptrIN15InstructionUtil14CodePopulationEESaISB_EEES7_ISE_SaISE_EEEEEEvT_SJ_
000000000001508d W _ZNSt12_Destroy_auxILb0EE9__destroyIPNSt7__cxx1112basic_stringIcSt11char_traitsIcESaIcEEEEEvT_S9_
0000000000015282 W _ZNSt12_Destroy_auxILb0EE9__destroyIPSt10shared_ptrIN10LinkerUtil16SectionMergeDataEEEEvT_S7_
0000000000014b38 W _ZNSt12_Destroy_auxILb0EE9__destroyIPSt10shared_ptrIN12AssemblyUtil12SectionEntryEEEEvT_S7_
0000000000014ac6 W _ZNSt12_Destroy_auxILb0EE9__destroyIPSt10shared_ptrIN12AssemblyUtil16SymbolTableEntryEEEEvT_S7_
0000000000014baa W _ZNSt12_Destroy_auxILb0EE9__destroyIPSt10shared_ptrIN12AssemblyUtil20RelocationTableEntryEEEEvT_S7_
000000000002a210 W _ZNSt12_Destroy_auxILb0EE9__destroyIPSt10shared_ptrIN15InstructionUtil14CodePopulationEEEEvT_S7_
0000000000018a3f W _ZNSt12_Destroy_auxILb0EE9__destroyIPSt4pairIiSt10shared_ptrIN12AssemblyUtil12SectionEntryEEEEEvT_S9_
000000000002bb1c W _ZNSt12_Destroy_auxILb0EE9__destroyIPSt4pairIN12AssemblyUtil11InstructionESt6vectorISt10shared_ptrIN15InstructionUtil14CodePopulationEESaIS9_EEEEEvT_SE_
0000000000014ed3 W _ZNSt12_Destroy_auxILb0EE9__destroyIPSt4pairINSt7__cxx1112basic_stringIcSt11char_traitsIcESaIcEEEmEEEvT_SB_
0000000000014c9f W _ZNSt12_Destroy_auxILb0EE9__destroyIPSt6vectorISt10shared_ptrIN12AssemblyUtil12SectionEntryEESaIS6_EEEEvT_SA_
0000000000014c25 W _ZNSt12_Destroy_auxILb0EE9__destroyIPSt6vectorISt10shared_ptrIN12AssemblyUtil16SymbolTableEntryEESaIS6_EEEEvT_SA_
0000000000014d19 W _ZNSt12_Destroy_auxILb0EE9__destroyIPSt6vectorISt10shared_ptrIN12AssemblyUtil20RelocationTableEntryEESaIS6_EEEEvT_SA_
000000000002f92a W _ZNSt12_Destroy_auxILb1EE9__destroyIN9__gnu_cxx17__normal_iteratorIPhSt6vectorIhSaIhEEEEEEvT_S9_
000000000001a32b W _ZNSt12_Destroy_auxILb1EE9__destroyIPhEEvT_S3_
000000000002bdab W _ZNSt12_Destroy_auxILb1EE9__destroyIPSt4pairIMN12AssemblyUtil11InstructionEFvtEN15InstructionUtil11eValueToUseEEEEvT_SB_
00000000000177fe W _ZNSt12__shared_ptrIN10LinkerUtil16SectionMergeDataELN9__gnu_cxx12_Lock_policyE2EE31_M_enable_shared_from_this_withIS1_S1_EENSt9enable_ifIXntsrNS4_15__has_esft_baseIT0_vEE5valueEvE4typeEPT_
000000000001ae2e W _ZNSt12__shared_ptrIN10LinkerUtil16SectionMergeDataELN9__gnu_cxx12_Lock_policyE2EE4swapERS4_
0000000000019858 W _ZNSt12__shared_ptrIN10LinkerUtil16SectionMergeDataELN9__gnu_cxx12_Lock_policyE2EEaSEOS4_
000000000000b636 W _ZNSt12__shared_ptrIN10LinkerUtil16SectionMergeDataELN9__gnu_cxx12_Lock_policyE2EEaSERKS4_
000000000001977c W _ZNSt12__shared_ptrIN10LinkerUtil16SectionMergeDataELN9__gnu_cxx12_Lock_policyE2EEC1EOS4_
000000000000b6a8 W _ZNSt12__shared_ptrIN10LinkerUtil16SectionMergeDataELN9__gnu_cxx12_Lock_policyE2EEC1ERKS4_
000000000001cc94 W _ZNSt12__shared_ptrIN10LinkerUtil16SectionMergeDataELN9__gnu_cxx12_Lock_policyE2EEC1Ev
0000000000015530 W _ZNSt12__shared_ptrIN10LinkerUtil16SectionMergeDataELN9__gnu_cxx12_Lock_policyE2EEC1ISaIS1_EJEEESt20_Sp_alloc_shared_tagIT_EDpOT0_
000000000001977c W _ZNSt12__shared_ptrIN10LinkerUtil16SectionMergeDataELN9__gnu_cxx12_Lock_policyE2EEC2EOS4_
000000000000b6a8 W _ZNSt12__shared_ptrIN10LinkerUtil16SectionMergeDataELN9__gnu_cxx12_Lock_policyE2EEC2ERKS4_
000000000001cc94 W _ZNSt12__shared_ptrIN10LinkerUtil16SectionMergeDataELN9__gnu_cxx12_Lock_policyE2EEC2Ev
0000000000015530 W _ZNSt12__shared_ptrIN10LinkerUtil16SectionMergeDataELN9__gnu_cxx12_Lock_policyE2EEC2ISaIS1_EJEEESt20_Sp_alloc_shared_tagIT_EDpOT0_
000000000000b5f2 W _ZNSt12__shared_ptrIN10LinkerUtil16SectionMergeDataELN9__gnu_cxx12_Lock_policyE2EED1Ev
000000000000b5f2 W _ZNSt12__shared_ptrIN10LinkerUtil16SectionMergeDataELN9__gnu_cxx12_Lock_policyE2EED2Ev
000000000001738a W _ZNSt12__shared_ptrIN12AssemblyUtil12SectionEntryELN9__gnu_cxx12_Lock_policyE2EE31_M_enable_shared_from_this_withIS1_S1_EENSt9enable_ifIXntsrNS4_15__has_esft_baseIT0_vEE5valueEvE4typeEPT_
000000000001fe2c W _ZNSt12__shared_ptrIN12AssemblyUtil12SectionEntryELN9__gnu_cxx12_Lock_policyE2EEaSERKS4_
000000000001887c W _ZNSt12__shared_ptrIN12AssemblyUtil12SectionEntryELN9__gnu_cxx12_Lock_policyE2EEC1EOS4_
000000000000b46a W _ZNSt12__shared_ptrIN12AssemblyUtil12SectionEntryELN9__gnu_cxx12_Lock_policyE2EEC1ERKS4_
00000000000204fe W _ZNSt12__shared_ptrIN12AssemblyUtil12SectionEntryELN9__gnu_cxx12_Lock_policyE2EEC1Ev
00000000000152c0 W _ZNSt12__shared_ptrIN12AssemblyUtil12SectionEntryELN9__gnu_cxx12_Lock_policyE2EEC1ISaIS1_EJEEESt20_Sp_alloc_shared_tagIT_EDpOT0_
000000000001887c W _ZNSt12__shared_ptrIN12AssemblyUtil12SectionEntryELN9__gnu_cxx12_Lock_policyE2EEC2EOS4_
000000000000b46a W _ZNSt12__shared_ptrIN12AssemblyUtil12SectionEntryELN9__gnu_cxx12_Lock_policyE2EEC2ERKS4_
00000000000204fe W _ZNSt12__shared_ptrIN12AssemblyUtil12SectionEntryELN9__gnu_cxx12_Lock_policyE2EEC2Ev
00000000000152c0 W _ZNSt12__shared_ptrIN12AssemblyUtil12SectionEntryELN9__gnu_cxx12_Lock_policyE2EEC2ISaIS1_EJEEESt20_Sp_alloc_shared_tagIT_EDpOT0_
000000000000ab80 W _ZNSt12__shared_ptrIN12AssemblyUtil12SectionEntryELN9__gnu_cxx12_Lock_policyE2EED1Ev
000000000000ab80 W _ZNSt12__shared_ptrIN12AssemblyUtil12SectionEntryELN9__gnu_cxx12_Lock_policyE2EED2Ev
0000000000018630 W _ZNSt12__shared_ptrIN12AssemblyUtil16SymbolTableEntryELN9__gnu_cxx12_Lock_policyE2EE31_M_enable_shared_from_this_withIS1_S1_EENSt9enable_ifIXntsrNS4_15__has_esft_baseIT0_vEE5valueEvE4typeEPT_
000000000000b712 W _ZNSt12__shared_ptrIN12AssemblyUtil16SymbolTableEntryELN9__gnu_cxx12_Lock_policyE2EEaSERKS4_
000000000001cdc4 W _ZNSt12__shared_ptrIN12AssemblyUtil16SymbolTableEntryELN9__gnu_cxx12_Lock_policyE2EEC1EOS4_
000000000000b352 W _ZNSt12__shared_ptrIN12AssemblyUtil16SymbolTableEntryELN9__gnu_cxx12_Lock_policyE2EEC1ERKS4_
000000000002049c W _ZNSt12__shared_ptrIN12AssemblyUtil16SymbolTableEntryELN9__gnu_cxx12_Lock_policyE2EEC1Ev
00000000000165b2 W _ZNSt12__shared_ptrIN12AssemblyUtil16SymbolTableEntryELN9__gnu_cxx12_Lock_policyE2EEC1ISaIS1_EJEEESt20_Sp_alloc_shared_tagIT_EDpOT0_
0000000000020942 W _ZNSt12__shared_ptrIN12AssemblyUtil16SymbolTableEntryELN9__gnu_cxx12_Lock_policyE2EEC1ISaIS1_EJRNSt7__cxx1112basic_stringIcSt11char_traitsIcESaIcEEESD_RiRbSF_SE_EEESt20_Sp_alloc_shared_tagIT_EDpOT0_
000000000001cdc4 W _ZNSt12__shared_ptrIN12AssemblyUtil16SymbolTableEntryELN9__gnu_cxx12_Lock_policyE2EEC2EOS4_
000000000000b352 W _ZNSt12__shared_ptrIN12AssemblyUtil16SymbolTableEntryELN9__gnu_cxx12_Lock_policyE2EEC2ERKS4_
000000000002049c W _ZNSt12__shared_ptrIN12AssemblyUtil16SymbolTableEntryELN9__gnu_cxx12_Lock_policyE2EEC2Ev
00000000000165b2 W _ZNSt12__shared_ptrIN12AssemblyUtil16SymbolTableEntryELN9__gnu_cxx12_Lock_policyE2EEC2ISaIS1_EJEEESt20_Sp_alloc_shared_tagIT_EDpOT0_
0000000000020942 W _ZNSt12__shared_ptrIN12AssemblyUtil16SymbolTableEntryELN9__gnu_cxx12_Lock_policyE2EEC2ISaIS1_EJRNSt7__cxx1112basic_stringIcSt11char_traitsIcESaIcEEESD_RiRbSF_SE_EEESt20_Sp_alloc_shared_tagIT_EDpOT0_
000000000000b30e W _ZNSt12__shared_ptrIN12AssemblyUtil16SymbolTableEntryELN9__gnu_cxx12_Lock_policyE2EED1Ev
000000000000b30e W _ZNSt12__shared_ptrIN12AssemblyUtil16SymbolTableEntryELN9__gnu_cxx12_Lock_policyE2EED2Ev
0000000000018856 W _ZNSt12__shared_ptrIN12AssemblyUtil20RelocationTableEntryELN9__gnu_cxx12_Lock_policyE2EE31_M_enable_shared_from_this_withIS1_S1_EENSt9enable_ifIXntsrNS4_15__has_esft_baseIT0_vEE5valueEvE4typeEPT_
000000000001ce20 W _ZNSt12__shared_ptrIN12AssemblyUtil20RelocationTableEntryELN9__gnu_cxx12_Lock_policyE2EEC1EOS4_
000000000000b3bc W _ZNSt12__shared_ptrIN12AssemblyUtil20RelocationTableEntryELN9__gnu_cxx12_Lock_policyE2EEC1ERKS4_
000000000002072a W _ZNSt12__shared_ptrIN12AssemblyUtil20RelocationTableEntryELN9__gnu_cxx12_Lock_policyE2EEC1Ev
00000000000168c4 W _ZNSt12__shared_ptrIN12AssemblyUtil20RelocationTableEntryELN9__gnu_cxx12_Lock_policyE2EEC1ISaIS1_EJEEESt20_Sp_alloc_shared_tagIT_EDpOT0_
000000000001ce20 W _ZNSt12__shared_ptrIN12AssemblyUtil20RelocationTableEntryELN9__gnu_cxx12_Lock_policyE2EEC2EOS4_
000000000000b3bc W _ZNSt12__shared_ptrIN12AssemblyUtil20RelocationTableEntryELN9__gnu_cxx12_Lock_policyE2EEC2ERKS4_
000000000002072a W _ZNSt12__shared_ptrIN12AssemblyUtil20RelocationTableEntryELN9__gnu_cxx12_Lock_policyE2EEC2Ev
00000000000168c4 W _ZNSt12__shared_ptrIN12AssemblyUtil20RelocationTableEntryELN9__gnu_cxx12_Lock_policyE2EEC2ISaIS1_EJEEESt20_Sp_alloc_shared_tagIT_EDpOT0_
000000000000b3fc W _ZNSt12__shared_ptrIN12AssemblyUtil20RelocationTableEntryELN9__gnu_cxx12_Lock_policyE2EED1Ev
000000000000b3fc W _ZNSt12__shared_ptrIN12AssemblyUtil20RelocationTableEntryELN9__gnu_cxx12_Lock_policyE2EED2Ev
000000000002c2c4 W _ZNSt12__shared_ptrIN15InstructionUtil14CodePopulationELN9__gnu_cxx12_Lock_policyE2EE31_M_enable_shared_from_this_withIS1_S1_EENSt9enable_ifIXntsrNS4_15__has_esft_baseIT0_vEE5valueEvE4typeEPT_
000000000002fd94 W _ZNSt12__shared_ptrIN15InstructionUtil14CodePopulationELN9__gnu_cxx12_Lock_policyE2EEaSERKS4_
000000000002cfa6 W _ZNSt12__shared_ptrIN15InstructionUtil14CodePopulationELN9__gnu_cxx12_Lock_policyE2EEC1EOS4_
000000000002d478 W _ZNSt12__shared_ptrIN15InstructionUtil14CodePopulationELN9__gnu_cxx12_Lock_policyE2EEC1ERKS4_
0000000000026cbe W _ZNSt12__shared_ptrIN15InstructionUtil14CodePopulationELN9__gnu_cxx12_Lock_policyE2EEC1Ev
000000000002a566 W _ZNSt12__shared_ptrIN15InstructionUtil14CodePopulationELN9__gnu_cxx12_Lock_policyE2EEC1ISaIS1_EJRMN12AssemblyUtil11InstructionEFvtERNS0_11eValueToUseEEEESt20_Sp_alloc_shared_tagIT_EDpOT0_
000000000002cfa6 W _ZNSt12__shared_ptrIN15InstructionUtil14CodePopulationELN9__gnu_cxx12_Lock_policyE2EEC2EOS4_
000000000002d478 W _ZNSt12__shared_ptrIN15InstructionUtil14CodePopulationELN9__gnu_cxx12_Lock_policyE2EEC2ERKS4_
0000000000026cbe W _ZNSt12__shared_ptrIN15InstructionUtil14CodePopulationELN9__gnu_cxx12_Lock_policyE2EEC2Ev
000000000002a566 W _ZNSt12__shared_ptrIN15InstructionUtil14CodePopulationELN9__gnu_cxx12_Lock_policyE2EEC2ISaIS1_EJRMN12AssemblyUtil11InstructionEFvtERNS0_11eValueToUseEEEESt20_Sp_alloc_shared_tagIT_EDpOT0_
0000000000025984 W _ZNSt12__shared_ptrIN15InstructionUtil14CodePopulationELN9__gnu_cxx12_Lock_policyE2EED1Ev
0000000000025984 W _ZNSt12__shared_ptrIN15InstructionUtil14CodePopulationELN9__gnu_cxx12_Lock_policyE2EED2Ev
0000000000016776 W _ZNSt12_Vector_baseIhSaIhEE11_M_allocateEm
000000000002c37e W _ZNSt12_Vector_baseIhSaIhEE12_Vector_implC1EOS2_
0000000000021ed4 W _ZNSt12_Vector_baseIhSaIhEE12_Vector_implC1ERKS0_
000000000001c4cc W _ZNSt12_Vector_baseIhSaIhEE12_Vector_implC1Ev
000000000002c37e W _ZNSt12_Vector_baseIhSaIhEE12_Vector_implC2EOS2_
0000000000021ed4 W _ZNSt12_Vector_baseIhSaIhEE12_Vector_implC2ERKS0_
000000000001c4cc W _ZNSt12_Vector_baseIhSaIhEE12_Vector_implC2Ev
000000000001b780 W _ZNSt12_Vector_baseIhSaIhEE12_Vector_implD1Ev
000000000001b780 W _ZNSt12_Vector_baseIhSaIhEE12_Vector_implD2Ev
0000000000016824 W _ZNSt12_Vector_baseIhSaIhEE13_M_deallocateEPhm
0000000000021f0a W _ZNSt12_Vector_baseIhSaIhEE17_M_create_storageEm
000000000002d53c W _ZNSt12_Vector_baseIhSaIhEE17_Vector_impl_dataC1EOS2_
000000000001cbd2 W _ZNSt12_Vector_baseIhSaIhEE17_Vector_impl_dataC1Ev
000000000002d53c W _ZNSt12_Vector_baseIhSaIhEE17_Vector_impl_dataC2EOS2_
000000000001cbd2 W _ZNSt12_Vector_baseIhSaIhEE17_Vector_impl_dataC2Ev
00000000000167e4 W _ZNSt12_Vector_baseIhSaIhEE19_M_get_Tp_allocatorEv
0000000000021b60 W _ZNSt12_Vector_baseIhSaIhEEC1EmRKS0_
000000000002a700 W _ZNSt12_Vector_baseIhSaIhEEC1EOS1_
000000000001b7a0 W _ZNSt12_Vector_baseIhSaIhEEC1Ev
0000000000021b60 W _ZNSt12_Vector_baseIhSaIhEEC2EmRKS0_
000000000002a700 W _ZNSt12_Vector_baseIhSaIhEEC2EOS1_
000000000001b7a0 W _ZNSt12_Vector_baseIhSaIhEEC2Ev
000000000001c518 W _ZNSt12_Vector_baseIhSaIhEED1Ev
000000000001c518 W _ZNSt12_Vector_baseIhSaIhEED2Ev
0000000000014f6c W _ZNSt12_Vector_baseINSt7__cxx1112basic_stringIcSt11char_traitsIcESaIcEEESaIS5_EE11_M_allocateEm
000000000001200c W _ZNSt12_Vector_baseINSt7__cxx1112basic_stringIcSt11char_traitsIcESaIcEEESaIS5_EE12_Vector_implC1ERKS6_
000000000001e230 W _ZNSt12_Vector_baseINSt7__cxx1112basic_stringIcSt11char_traitsIcESaIcEEESaIS5_EE12_Vector_implC1Ev
000000000001200c W _ZNSt12_Vector_baseINSt7__cxx1112basic_stringIcSt11char_traitsIcESaIcEEESaIS5_EE12_Vector_implC2ERKS6_
000000000001e230 W _ZNSt12_Vector_baseINSt7__cxx1112basic_stringIcSt11char_traitsIcESaIcEEESaIS5_EE12_Vector_implC2Ev
000000000000f4e2 W _ZNSt12_Vector_baseINSt7__cxx1112basic_stringIcSt11char_traitsIcESaIcEEESaIS5_EE12_Vector_implD1Ev
000000000000f4e2 W _ZNSt12_Vector_baseINSt7__cxx1112basic_stringIcSt11char_traitsIcESaIcEEESaIS5_EE12_Vector_implD2Ev
000000000001209c W _ZNSt12_Vector_baseINSt7__cxx1112basic_stringIcSt11char_traitsIcESaIcEEESaIS5_EE13_M_deallocateEPS5_m
0000000000012042 W _ZNSt12_Vector_baseINSt7__cxx1112basic_stringIcSt11char_traitsIcESaIcEEESaIS5_EE17_M_create_storageEm
0000000000014f3a W _ZNSt12_Vector_baseINSt7__cxx1112basic_stringIcSt11char_traitsIcESaIcEEESaIS5_EE17_Vector_impl_dataC1Ev
0000000000014f3a W _ZNSt12_Vector_baseINSt7__cxx1112basic_stringIcSt11char_traitsIcESaIcEEESaIS5_EE17_Vector_impl_dataC2Ev
000000000000f656 W _ZNSt12_Vector_baseINSt7__cxx1112basic_stringIcSt11char_traitsIcESaIcEEESaIS5_EE19_M_get_Tp_allocatorEv
000000000000f502 W _ZNSt12_Vector_baseINSt7__cxx1112basic_stringIcSt11char_traitsIcESaIcEEESaIS5_EEC1EmRKS6_
000000000001e0a6 W _ZNSt12_Vector_baseINSt7__cxx1112basic_stringIcSt11char_traitsIcESaIcEEESaIS5_EEC1Ev
000000000000f502 W _ZNSt12_Vector_baseINSt7__cxx1112basic_stringIcSt11char_traitsIcESaIcEEESaIS5_EEC2EmRKS6_
000000000001e0a6 W _ZNSt12_Vector_baseINSt7__cxx1112basic_stringIcSt11char_traitsIcESaIcEEESaIS5_EEC2Ev
000000000000f568 W _ZNSt12_Vector_baseINSt7__cxx1112basic_stringIcSt11char_traitsIcESaIcEEESaIS5_EED1Ev
000000000000f568 W _ZNSt12_Vector_baseINSt7__cxx1112basic_stringIcSt11char_traitsIcESaIcEEESaIS5_EED2Ev
0000000000013318 W _ZNSt12_Vector_baseISt10shared_ptrIN10LinkerUtil16SectionMergeDataEESaIS3_EE11_M_allocateEm
000000000000d176 W _ZNSt12_Vector_baseISt10shared_ptrIN10LinkerUtil16SectionMergeDataEESaIS3_EE12_Vector_implC1Ev
000000000000d176 W _ZNSt12_Vector_baseISt10shared_ptrIN10LinkerUtil16SectionMergeDataEESaIS3_EE12_Vector_implC2Ev
000000000000b4d4 W _ZNSt12_Vector_baseISt10shared_ptrIN10LinkerUtil16SectionMergeDataEESaIS3_EE12_Vector_implD1Ev
000000000000b4d4 W _ZNSt12_Vector_baseISt10shared_ptrIN10LinkerUtil16SectionMergeDataEESaIS3_EE12_Vector_implD2Ev
000000000000fd68 W _ZNSt12_Vector_baseISt10shared_ptrIN10LinkerUtil16SectionMergeDataEESaIS3_EE13_M_deallocateEPS3_m
000000000000fd26 W _ZNSt12_Vector_baseISt10shared_ptrIN10LinkerUtil16SectionMergeDataEESaIS3_EE17_Vector_impl_dataC1Ev
000000000000fd26 W _ZNSt12_Vector_baseISt10shared_ptrIN10LinkerUtil16SectionMergeDataEESaIS3_EE17_Vector_impl_dataC2Ev
000000000000fda2 W _ZNSt12_Vector_baseISt10shared_ptrIN10LinkerUtil16SectionMergeDataEESaIS3_EE19_M_get_Tp_allocatorEv
000000000000b4f4 W _ZNSt12_Vector_baseISt10shared_ptrIN10LinkerUtil16SectionMergeDataEESaIS3_EEC1Ev
000000000000b4f4 W _ZNSt12_Vector_baseISt10shared_ptrIN10LinkerUtil16SectionMergeDataEESaIS3_EEC2Ev
000000000000d1c2 W _ZNSt12_Vector_baseISt10shared_ptrIN10LinkerUtil16SectionMergeDataEESaIS3_EED1Ev
000000000000d1c2 W _ZNSt12_Vector_baseISt10shared_ptrIN10LinkerUtil16SectionMergeDataEESaIS3_EED2Ev
0000000000012844 W _ZNSt12_Vector_baseISt10shared_ptrIN12AssemblyUtil12SectionEntryEESaIS3_EE11_M_allocateEm
000000000001cd18 W _ZNSt12_Vector_baseISt10shared_ptrIN12AssemblyUtil12SectionEntryEESaIS3_EE12_Vector_implC1EOS6_
0000000000019c72 W _ZNSt12_Vector_baseISt10shared_ptrIN12AssemblyUtil12SectionEntryEESaIS3_EE12_Vector_implC1ERKS4_
000000000000bde6 W _ZNSt12_Vector_baseISt10shared_ptrIN12AssemblyUtil12SectionEntryEESaIS3_EE12_Vector_implC1Ev
000000000001cd18 W _ZNSt12_Vector_baseISt10shared_ptrIN12AssemblyUtil12SectionEntryEESaIS3_EE12_Vector_implC2EOS6_
0000000000019c72 W _ZNSt12_Vector_baseISt10shared_ptrIN12AssemblyUtil12SectionEntryEESaIS3_EE12_Vector_implC2ERKS4_
000000000000bde6 W _ZNSt12_Vector_baseISt10shared_ptrIN12AssemblyUtil12SectionEntryEESaIS3_EE12_Vector_implC2Ev
000000000000b068 W _ZNSt12_Vector_baseISt10shared_ptrIN12AssemblyUtil12SectionEntryEESaIS3_EE12_Vector_implD1Ev
000000000000b068 W _ZNSt12_Vector_baseISt10shared_ptrIN12AssemblyUtil12SectionEntryEESaIS3_EE12_Vector_implD2Ev
000000000000edfa W _ZNSt12_Vector_baseISt10shared_ptrIN12AssemblyUtil12SectionEntryEESaIS3_EE13_M_deallocateEPS3_m
0000000000019ca8 W _ZNSt12_Vector_baseISt10shared_ptrIN12AssemblyUtil12SectionEntryEESaIS3_EE17_M_create_storageEm
000000000001cf4a W _ZNSt12_Vector_baseISt10shared_ptrIN12AssemblyUtil12SectionEntryEESaIS3_EE17_Vector_impl_dataC1EOS6_
000000000000edb8 W _ZNSt12_Vector_baseISt10shared_ptrIN12AssemblyUtil12SectionEntryEESaIS3_EE17_Vector_impl_dataC1Ev
000000000001cf4a W _ZNSt12_Vector_baseISt10shared_ptrIN12AssemblyUtil12SectionEntryEESaIS3_EE17_Vector_impl_dataC2EOS6_
000000000000edb8 W _ZNSt12_Vector_baseISt10shared_ptrIN12AssemblyUtil12SectionEntryEESaIS3_EE17_Vector_impl_dataC2Ev
000000000000ee34 W _ZNSt12_Vector_baseISt10shared_ptrIN12AssemblyUtil12SectionEntryEESaIS3_EE19_M_get_Tp_allocatorEv
000000000001807a W _ZNSt12_Vector_baseISt10shared_ptrIN12AssemblyUtil12SectionEntryEESaIS3_EEC1EmRKS4_
000000000001c9f0 W _ZNSt12_Vector_baseISt10shared_ptrIN12AssemblyUtil12SectionEntryEESaIS3_EEC1EOS5_
000000000000b088 W _ZNSt12_Vector_baseISt10shared_ptrIN12AssemblyUtil12SectionEntryEESaIS3_EEC1Ev
000000000001807a W _ZNSt12_Vector_baseISt10shared_ptrIN12AssemblyUtil12SectionEntryEESaIS3_EEC2EmRKS4_
000000000001c9f0 W _ZNSt12_Vector_baseISt10shared_ptrIN12AssemblyUtil12SectionEntryEESaIS3_EEC2EOS5_
000000000000b088 W _ZNSt12_Vector_baseISt10shared_ptrIN12AssemblyUtil12SectionEntryEESaIS3_EEC2Ev
000000000000be32 W _ZNSt12_Vector_baseISt10shared_ptrIN12AssemblyUtil12SectionEntryEESaIS3_EED1Ev
000000000000be32 W _ZNSt12_Vector_baseISt10shared_ptrIN12AssemblyUtil12SectionEntryEESaIS3_EED2Ev
00000000000122fc W _ZNSt12_Vector_baseISt10shared_ptrIN12AssemblyUtil16SymbolTableEntryEESaIS3_EE11_M_allocateEm
000000000001ccc2 W _ZNSt12_Vector_baseISt10shared_ptrIN12AssemblyUtil16SymbolTableEntryEESaIS3_EE12_Vector_implC1EOS6_
0000000000019ada W _ZNSt12_Vector_baseISt10shared_ptrIN12AssemblyUtil16SymbolTableEntryEESaIS3_EE12_Vector_implC1ERKS4_
000000000000bd00 W _ZNSt12_Vector_baseISt10shared_ptrIN12AssemblyUtil16SymbolTableEntryEESaIS3_EE12_Vector_implC1Ev
000000000001ccc2 W _ZNSt12_Vector_baseISt10shared_ptrIN12AssemblyUtil16SymbolTableEntryEESaIS3_EE12_Vector_implC2EOS6_
0000000000019ada W _ZNSt12_Vector_baseISt10shared_ptrIN12AssemblyUtil16SymbolTableEntryEESaIS3_EE12_Vector_implC2ERKS4_
000000000000bd00 W _ZNSt12_Vector_baseISt10shared_ptrIN12AssemblyUtil16SymbolTableEntryEESaIS3_EE12_Vector_implC2Ev
000000000000b008 W _ZNSt12_Vector_baseISt10shared_ptrIN12AssemblyUtil16SymbolTableEntryEESaIS3_EE12_Vector_implD1Ev
000000000000b008 W _ZNSt12_Vector_baseISt10shared_ptrIN12AssemblyUtil16SymbolTableEntryEESaIS3_EE12_Vector_implD2Ev
000000000000ed1e W _ZNSt12_Vector_baseISt10shared_ptrIN12AssemblyUtil16SymbolTableEntryEESaIS3_EE13_M_deallocateEPS3_m
0000000000019b10 W _ZNSt12_Vector_baseISt10shared_ptrIN12AssemblyUtil16SymbolTableEntryEESaIS3_EE17_M_create_storageEm
000000000001cecc W _ZNSt12_Vector_baseISt10shared_ptrIN12AssemblyUtil16SymbolTableEntryEESaIS3_EE17_Vector_impl_dataC1EOS6_
000000000000ecdc W _ZNSt12_Vector_baseISt10shared_ptrIN12AssemblyUtil16SymbolTableEntryEESaIS3_EE17_Vector_impl_dataC1Ev
000000000001cecc W _ZNSt12_Vector_baseISt10shared_ptrIN12AssemblyUtil16SymbolTableEntryEESaIS3_EE17_Vector_impl_dataC2EOS6_
000000000000ecdc W _ZNSt12_Vector_baseISt10shared_ptrIN12AssemblyUtil16SymbolTableEntryEESaIS3_EE17_Vector_impl_dataC2Ev
000000000000ed58 W _ZNSt12_Vector_baseISt10shared_ptrIN12AssemblyUtil16SymbolTableEntryEESaIS3_EE19_M_get_Tp_allocatorEv
0000000000017e26 W _ZNSt12_Vector_baseISt10shared_ptrIN12AssemblyUtil16SymbolTableEntryEESaIS3_EEC1EmRKS4_
000000000001c93e W _ZNSt12_Vector_baseISt10shared_ptrIN12AssemblyUtil16SymbolTableEntryEESaIS3_EEC1EOS5_
000000000000b028 W _ZNSt12_Vector_baseISt10shared_ptrIN12AssemblyUtil16SymbolTableEntryEESaIS3_EEC1Ev
0000000000017e26 W _ZNSt12_Vector_baseISt10shared_ptrIN12AssemblyUtil16SymbolTableEntryEESaIS3_EEC2EmRKS4_
000000000001c93e W _ZNSt12_Vector_baseISt10shared_ptrIN12AssemblyUtil16SymbolTableEntryEESaIS3_EEC2EOS5_
000000000000b028 W _ZNSt12_Vector_baseISt10shared_ptrIN12AssemblyUtil16SymbolTableEntryEESaIS3_EEC2Ev
000000000000bd4c W _ZNSt12_Vector_baseISt10shared_ptrIN12AssemblyUtil16SymbolTableEntryEESaIS3_EED1Ev
000000000000bd4c W _ZNSt12_Vector_baseISt10shared_ptrIN12AssemblyUtil16SymbolTableEntryEESaIS3_EED2Ev
000000000001253a W _ZNSt12_Vector_baseISt10shared_ptrIN12AssemblyUtil20RelocationTableEntryEESaIS3_EE11_M_allocateEm
000000000001cd6e W _ZNSt12_Vector_baseISt10shared_ptrIN12AssemblyUtil20RelocationTableEntryEESaIS3_EE12_Vector_implC1EOS6_
0000000000019e0a W _ZNSt12_Vector_baseISt10shared_ptrIN12AssemblyUtil20RelocationTableEntryEESaIS3_EE12_Vector_implC1ERKS4_
000000000000becc W _ZNSt12_Vector_baseISt10shared_ptrIN12AssemblyUtil20RelocationTableEntryEESaIS3_EE12_Vector_implC1Ev
000000000001cd6e W _ZNSt12_Vector_baseISt10shared_ptrIN12AssemblyUtil20RelocationTableEntryEESaIS3_EE12_Vector_implC2EOS6_
0000000000019e0a W _ZNSt12_Vector_baseISt10shared_ptrIN12AssemblyUtil20RelocationTableEntryEESaIS3_EE12_Vector_implC2ERKS4_
000000000000becc W _ZNSt12_Vector_baseISt10shared_ptrIN12AssemblyUtil20RelocationTableEntryEESaIS3_EE12_Vector_implC2Ev
000000000000b0c8 W _ZNSt12_Vector_baseISt10shared_ptrIN12AssemblyUtil20RelocationTableEntryEESaIS3_EE12_Vector_implD1Ev
000000000000b0c8 W _ZNSt12_Vector_baseISt10shared_ptrIN12AssemblyUtil20RelocationTableEntryEESaIS3_EE12_Vector_implD2Ev
000000000000eed6 W _ZNSt12_Vector_baseISt10shared_ptrIN12AssemblyUtil20RelocationTableEntryEESaIS3_EE13_M_deallocateEPS3_m
0000000000019e40 W _ZNSt12_Vector_baseISt10shared_ptrIN12AssemblyUtil20RelocationTableEntryEESaIS3_EE17_M_create_storageEm
000000000001cfc8 W _ZNSt12_Vector_baseISt10shared_ptrIN12AssemblyUtil20RelocationTableEntryEESaIS3_EE17_Vector_impl_dataC1EOS6_
000000000000ee94 W _ZNSt12_Vector_baseISt10shared_ptrIN12AssemblyUtil20RelocationTableEntryEESaIS3_EE17_Vector_impl_dataC1Ev
000000000001cfc8 W _ZNSt12_Vector_baseISt10shared_ptrIN12AssemblyUtil20RelocationTableEntryEESaIS3_EE17_Vector_impl_dataC2EOS6_
000000000000ee94 W _ZNSt12_Vector_baseISt10shared_ptrIN12AssemblyUtil20RelocationTableEntryEESaIS3_EE17_Vector_impl_dataC2Ev
000000000000ef10 W _ZNSt12_Vector_baseISt10shared_ptrIN12AssemblyUtil20RelocationTableEntryEESaIS3_EE19_M_get_Tp_allocatorEv
00000000000182ce W _ZNSt12_Vector_baseISt10shared_ptrIN12AssemblyUtil20RelocationTableEntryEESaIS3_EEC1EmRKS4_
000000000001caa2 W _ZNSt12_Vector_baseISt10shared_ptrIN12AssemblyUtil20RelocationTableEntryEESaIS3_EEC1EOS5_
000000000000b0e8 W _ZNSt12_Vector_baseISt10shared_ptrIN12AssemblyUtil20RelocationTableEntryEESaIS3_EEC1Ev
00000000000182ce W _ZNSt12_Vector_baseISt10shared_ptrIN12AssemblyUtil20RelocationTableEntryEESaIS3_EEC2EmRKS4_
000000000001caa2 W _ZNSt12_Vector_baseISt10shared_ptrIN12AssemblyUtil20RelocationTableEntryEESaIS3_EEC2EOS5_
000000000000b0e8 W _ZNSt12_Vector_baseISt10shared_ptrIN12AssemblyUtil20RelocationTableEntryEESaIS3_EEC2Ev
000000000000bf18 W _ZNSt12_Vector_baseISt10shared_ptrIN12AssemblyUtil20RelocationTableEntryEESaIS3_EED1Ev
000000000000bf18 W _ZNSt12_Vector_baseISt10shared_ptrIN12AssemblyUtil20RelocationTableEntryEESaIS3_EED2Ev
000000000002a43c W _ZNSt12_Vector_baseISt10shared_ptrIN15InstructionUtil14CodePopulationEESaIS3_EE11_M_allocateEm
000000000002c3d4 W _ZNSt12_Vector_baseISt10shared_ptrIN15InstructionUtil14CodePopulationEESaIS3_EE12_Vector_implC1EOS6_
000000000002a61a W _ZNSt12_Vector_baseISt10shared_ptrIN15InstructionUtil14CodePopulationEESaIS3_EE12_Vector_implC1ERKS4_
0000000000025bde W _ZNSt12_Vector_baseISt10shared_ptrIN15InstructionUtil14CodePopulationEESaIS3_EE12_Vector_implC1Ev
000000000002c3d4 W _ZNSt12_Vector_baseISt10shared_ptrIN15InstructionUtil14CodePopulationEESaIS3_EE12_Vector_implC2EOS6_
000000000002a61a W _ZNSt12_Vector_baseISt10shared_ptrIN15InstructionUtil14CodePopulationEESaIS3_EE12_Vector_implC2ERKS4_
0000000000025bde W _ZNSt12_Vector_baseISt10shared_ptrIN15InstructionUtil14CodePopulationEESaIS3_EE12_Vector_implC2Ev
0000000000025924 W _ZNSt12_Vector_baseISt10shared_ptrIN15InstructionUtil14CodePopulationEESaIS3_EE12_Vector_implD1Ev
0000000000025924 W _ZNSt12_Vector_baseISt10shared_ptrIN15InstructionUtil14CodePopulationEESaIS3_EE12_Vector_implD2Ev
0000000000026c44 W _ZNSt12_Vector_baseISt10shared_ptrIN15InstructionUtil14CodePopulationEESaIS3_EE13_M_deallocateEPS3_m
000000000002a650 W _ZNSt12_Vector_baseISt10shared_ptrIN15InstructionUtil14CodePopulationEESaIS3_EE17_M_create_storageEm
000000000002d5ba W _ZNSt12_Vector_baseISt10shared_ptrIN15InstructionUtil14CodePopulationEESaIS3_EE17_Vector_impl_dataC1EOS6_
0000000000026c02 W _ZNSt12_Vector_baseISt10shared_ptrIN15InstructionUtil14CodePopulationEESaIS3_EE17_Vector_impl_dataC1Ev
000000000002d5ba W _ZNSt12_Vector_baseISt10shared_ptrIN15InstructionUtil14CodePopulationEESaIS3_EE17_Vector_impl_dataC2EOS6_
0000000000026c02 W _ZNSt12_Vector_baseISt10shared_ptrIN15InstructionUtil14CodePopulationEESaIS3_EE17_Vector_impl_dataC2Ev
0000000000026c7e W _ZNSt12_Vector_baseISt10shared_ptrIN15InstructionUtil14CodePopulationEESaIS3_EE19_M_get_Tp_allocatorEv
00000000000283d4 W _ZNSt12_Vector_baseISt10shared_ptrIN15InstructionUtil14CodePopulationEESaIS3_EEC1EmRKS4_
000000000002a78c W _ZNSt12_Vector_baseISt10shared_ptrIN15InstructionUtil14CodePopulationEESaIS3_EEC1EOS5_
0000000000025944 W _ZNSt12_Vector_baseISt10shared_ptrIN15InstructionUtil14CodePopulationEESaIS3_EEC1Ev
00000000000283d4 W _ZNSt12_Vector_baseISt10shared_ptrIN15InstructionUtil14CodePopulationEESaIS3_EEC2EmRKS4_
000000000002a78c W _ZNSt12_Vector_baseISt10shared_ptrIN15InstructionUtil14CodePopulationEESaIS3_EEC2EOS5_
0000000000025944 W _ZNSt12_Vector_baseISt10shared_ptrIN15InstructionUtil14CodePopulationEESaIS3_EEC2Ev
0000000000025c2a W _ZNSt12_Vector_baseISt10shared_ptrIN15InstructionUtil14CodePopulationEESaIS3_EED1Ev
0000000000025c2a W _ZNSt12_Vector_baseISt10shared_ptrIN15InstructionUtil14CodePopulationEESaIS3_EED2Ev
000000000001471c W _ZNSt12_Vector_baseISt4pairIiSt10shared_ptrIN12AssemblyUtil12SectionEntryEEESaIS5_EE11_M_allocateEm
000000000001c736 W _ZNSt12_Vector_baseISt4pairIiSt10shared_ptrIN12AssemblyUtil12SectionEntryEEESaIS5_EE12_Vector_implC1Ev
000000000001c736 W _ZNSt12_Vector_baseISt4pairIiSt10shared_ptrIN12AssemblyUtil12SectionEntryEEESaIS5_EE12_Vector_implC2Ev
000000000001ba48 W _ZNSt12_Vector_baseISt4pairIiSt10shared_ptrIN12AssemblyUtil12SectionEntryEEESaIS5_EE12_Vector_implD1Ev
000000000001ba48 W _ZNSt12_Vector_baseISt4pairIiSt10shared_ptrIN12AssemblyUtil12SectionEntryEEESaIS5_EE12_Vector_implD2Ev
00000000000147f4 W _ZNSt12_Vector_baseISt4pairIiSt10shared_ptrIN12AssemblyUtil12SectionEntryEEESaIS5_EE13_M_deallocateEPS5_m
000000000001cc34 W _ZNSt12_Vector_baseISt4pairIiSt10shared_ptrIN12AssemblyUtil12SectionEntryEEESaIS5_EE17_Vector_impl_dataC1Ev
000000000001cc34 W _ZNSt12_Vector_baseISt4pairIiSt10shared_ptrIN12AssemblyUtil12SectionEntryEEESaIS5_EE17_Vector_impl_dataC2Ev
000000000001478a W _ZNSt12_Vector_baseISt4pairIiSt10shared_ptrIN12AssemblyUtil12SectionEntryEEESaIS5_EE19_M_get_Tp_allocatorEv
000000000001ba68 W _ZNSt12_Vector_baseISt4pairIiSt10shared_ptrIN12AssemblyUtil12SectionEntryEEESaIS5_EEC1Ev
000000000001ba68 W _ZNSt12_Vector_baseISt4pairIiSt10shared_ptrIN12AssemblyUtil12SectionEntryEEESaIS5_EEC2Ev
000000000001c782 W _ZNSt12_Vector_baseISt4pairIiSt10shared_ptrIN12AssemblyUtil12SectionEntryEEESaIS5_EED1Ev
000000000001c782 W _ZNSt12_Vector_baseISt4pairIiSt10shared_ptrIN12AssemblyUtil12SectionEntryEEESaIS5_EED2Ev
0000000000029fb8 W _ZNSt12_Vector_baseISt4pairIMN12AssemblyUtil11InstructionEFvtEN15InstructionUtil11eValueToUseEESaIS7_EE11_M_allocateEm
0000000000029ea8 W _ZNSt12_Vector_baseISt4pairIMN12AssemblyUtil11InstructionEFvtEN15InstructionUtil11eValueToUseEESaIS7_EE12_Vector_implC1ERKS8_
0000000000026716 W _ZNSt12_Vector_baseISt4pairIMN12AssemblyUtil11InstructionEFvtEN15InstructionUtil11eValueToUseEESaIS7_EE12_Vector_implC1Ev
0000000000029ea8 W _ZNSt12_Vector_baseISt4pairIMN12AssemblyUtil11InstructionEFvtEN15InstructionUtil11eValueToUseEESaIS7_EE12_Vector_implC2ERKS8_
0000000000026716 W _ZNSt12_Vector_baseISt4pairIMN12AssemblyUtil11InstructionEFvtEN15InstructionUtil11eValueToUseEESaIS7_EE12_Vector_implC2Ev
0000000000025a36 W _ZNSt12_Vector_baseISt4pairIMN12AssemblyUtil11InstructionEFvtEN15InstructionUtil11eValueToUseEESaIS7_EE12_Vector_implD1Ev
0000000000025a36 W _ZNSt12_Vector_baseISt4pairIMN12AssemblyUtil11InstructionEFvtEN15InstructionUtil11eValueToUseEESaIS7_EE12_Vector_implD2Ev
0000000000027be6 W _ZNSt12_Vector_baseISt4pairIMN12AssemblyUtil11InstructionEFvtEN15InstructionUtil11eValueToUseEESaIS7_EE13_M_deallocateEPS7_m
0000000000027ba4 W _ZNSt12_Vector_baseISt4pairIMN12AssemblyUtil11InstructionEFvtEN15InstructionUtil11eValueToUseEESaIS7_EE17_Vector_impl_dataC1Ev
0000000000027ba4 W _ZNSt12_Vector_baseISt4pairIMN12AssemblyUtil11InstructionEFvtEN15InstructionUtil11eValueToUseEESaIS7_EE17_Vector_impl_dataC2Ev
0000000000027c20 W _ZNSt12_Vector_baseISt4pairIMN12AssemblyUtil11InstructionEFvtEN15InstructionUtil11eValueToUseEESaIS7_EE19_M_get_Tp_allocatorEv
0000000000027c70 W _ZNSt12_Vector_baseISt4pairIMN12AssemblyUtil11InstructionEFvtEN15InstructionUtil11eValueToUseEESaIS7_EEC1ERKS8_
0000000000025a56 W _ZNSt12_Vector_baseISt4pairIMN12AssemblyUtil11InstructionEFvtEN15InstructionUtil11eValueToUseEESaIS7_EEC1Ev
0000000000027c70 W _ZNSt12_Vector_baseISt4pairIMN12AssemblyUtil11InstructionEFvtEN15InstructionUtil11eValueToUseEESaIS7_EEC2ERKS8_
0000000000025a56 W _ZNSt12_Vector_baseISt4pairIMN12AssemblyUtil11InstructionEFvtEN15InstructionUtil11eValueToUseEESaIS7_EEC2Ev
0000000000026762 W _ZNSt12_Vector_baseISt4pairIMN12AssemblyUtil11InstructionEFvtEN15InstructionUtil11eValueToUseEESaIS7_EED1Ev
0000000000026762 W _ZNSt12_Vector_baseISt4pairIMN12AssemblyUtil11InstructionEFvtEN15InstructionUtil11eValueToUseEESaIS7_EED2Ev
0000000000029c6a W _ZNSt12_Vector_baseISt4pairIN12AssemblyUtil11InstructionESt6vectorISt10shared_ptrIN15InstructionUtil14CodePopulationEESaIS7_EEESaISA_EE11_M_allocateEm
000000000002a052 W _ZNSt12_Vector_baseISt4pairIN12AssemblyUtil11InstructionESt6vectorISt10shared_ptrIN15InstructionUtil14CodePopulationEESaIS7_EEESaISA_EE12_Vector_implC1ERKSB_
0000000000025b30 W _ZNSt12_Vector_baseISt4pairIN12AssemblyUtil11InstructionESt6vectorISt10shared_ptrIN15InstructionUtil14CodePopulationEESaIS7_EEESaISA_EE12_Vector_implC1Ev
000000000002a052 W _ZNSt12_Vector_baseISt4pairIN12AssemblyUtil11InstructionESt6vectorISt10shared_ptrIN15InstructionUtil14CodePopulationEESaIS7_EEESaISA_EE12_Vector_implC2ERKSB_
0000000000025b30 W _ZNSt12_Vector_baseISt4pairIN12AssemblyUtil11InstructionESt6vectorISt10shared_ptrIN15InstructionUtil14CodePopulationEESaIS7_EEESaISA_EE12_Vector_implC2Ev
00000000000258c4 W _ZNSt12_Vector_baseISt4pairIN12AssemblyUtil11InstructionESt6vectorISt10shared_ptrIN15InstructionUtil14CodePopulationEESaIS7_EEESaISA_EE12_Vector_implD1Ev
00000000000258c4 W _ZNSt12_Vector_baseISt4pairIN12AssemblyUtil11InstructionESt6vectorISt10shared_ptrIN15InstructionUtil14CodePopulationEESaIS7_EEESaISA_EE12_Vector_implD2Ev
0000000000026ba8 W _ZNSt12_Vector_baseISt4pairIN12AssemblyUtil11InstructionESt6vectorISt10shared_ptrIN15InstructionUtil14CodePopulationEESaIS7_EEESaISA_EE13_M_deallocateEPSA_m
000000000002a088 W _ZNSt12_Vector_baseISt4pairIN12AssemblyUtil11InstructionESt6vectorISt10shared_ptrIN15InstructionUtil14CodePopulationEESaIS7_EEESaISA_EE17_M_create_storageEm
0000000000026b66 W _ZNSt12_Vector_baseISt4pairIN12AssemblyUtil11InstructionESt6vectorISt10shared_ptrIN15InstructionUtil14CodePopulationEESaIS7_EEESaISA_EE17_Vector_impl_dataC1Ev
0000000000026b66 W _ZNSt12_Vector_baseISt4pairIN12AssemblyUtil11InstructionESt6vectorISt10shared_ptrIN15InstructionUtil14CodePopulationEESaIS7_EEESaISA_EE17_Vector_impl_dataC2Ev
00000000000277ea W _ZNSt12_Vector_baseISt4pairIN12AssemblyUtil11InstructionESt6vectorISt10shared_ptrIN15InstructionUtil14CodePopulationEESaIS7_EEESaISA_EE19_M_get_Tp_allocatorEv
0000000000027e38 W _ZNSt12_Vector_baseISt4pairIN12AssemblyUtil11InstructionESt6vectorISt10shared_ptrIN15InstructionUtil14CodePopulationEESaIS7_EEESaISA_EEC1EmRKSB_
00000000000258e4 W _ZNSt12_Vector_baseISt4pairIN12AssemblyUtil11InstructionESt6vectorISt10shared_ptrIN15InstructionUtil14CodePopulationEESaIS7_EEESaISA_EEC1Ev
0000000000027e38 W _ZNSt12_Vector_baseISt4pairIN12AssemblyUtil11InstructionESt6vectorISt10shared_ptrIN15InstructionUtil14CodePopulationEESaIS7_EEESaISA_EEC2EmRKSB_
00000000000258e4 W _ZNSt12_Vector_baseISt4pairIN12AssemblyUtil11InstructionESt6vectorISt10shared_ptrIN15InstructionUtil14CodePopulationEESaIS7_EEESaISA_EEC2Ev
0000000000025b7c W _ZNSt12_Vector_baseISt4pairIN12AssemblyUtil11InstructionESt6vectorISt10shared_ptrIN15InstructionUtil14CodePopulationEESaIS7_EEESaISA_EED1Ev
0000000000025b7c W _ZNSt12_Vector_baseISt4pairIN12AssemblyUtil11InstructionESt6vectorISt10shared_ptrIN15InstructionUtil14CodePopulationEESaIS7_EEESaISA_EED2Ev
0000000000014db2 W _ZNSt12_Vector_baseISt4pairINSt7__cxx1112basic_stringIcSt11char_traitsIcESaIcEEEmESaIS7_EE11_M_allocateEm
0000000000011e78 W _ZNSt12_Vector_baseISt4pairINSt7__cxx1112basic_stringIcSt11char_traitsIcESaIcEEEmESaIS7_EE12_Vector_implC1ERKS8_
000000000001e292 W _ZNSt12_Vector_baseISt4pairINSt7__cxx1112basic_stringIcSt11char_traitsIcESaIcEEEmESaIS7_EE12_Vector_implC1Ev
0000000000011e78 W _ZNSt12_Vector_baseISt4pairINSt7__cxx1112basic_stringIcSt11char_traitsIcESaIcEEEmESaIS7_EE12_Vector_implC2ERKS8_
000000000001e292 W _ZNSt12_Vector_baseISt4pairINSt7__cxx1112basic_stringIcSt11char_traitsIcESaIcEEEmESaIS7_EE12_Vector_implC2Ev
000000000000f266 W _ZNSt12_Vector_baseISt4pairINSt7__cxx1112basic_stringIcSt11char_traitsIcESaIcEEEmESaIS7_EE12_Vector_implD1Ev
000000000000f266 W _ZNSt12_Vector_baseISt4pairINSt7__cxx1112basic_stringIcSt11char_traitsIcESaIcEEEmESaIS7_EE12_Vector_implD2Ev
0000000000011f14 W _ZNSt12_Vector_baseISt4pairINSt7__cxx1112basic_stringIcSt11char_traitsIcESaIcEEEmESaIS7_EE13_M_deallocateEPS7_m
0000000000011eae W _ZNSt12_Vector_baseISt4pairINSt7__cxx1112basic_stringIcSt11char_traitsIcESaIcEEEmESaIS7_EE17_M_create_storageEm
0000000000014d80 W _ZNSt12_Vector_baseISt4pairINSt7__cxx1112basic_stringIcSt11char_traitsIcESaIcEEEmESaIS7_EE17_Vector_impl_dataC1Ev
0000000000014d80 W _ZNSt12_Vector_baseISt4pairINSt7__cxx1112basic_stringIcSt11char_traitsIcESaIcEEEmESaIS7_EE17_Vector_impl_dataC2Ev
000000000000f3ea W _ZNSt12_Vector_baseISt4pairINSt7__cxx1112basic_stringIcSt11char_traitsIcESaIcEEEmESaIS7_EE19_M_get_Tp_allocatorEv
000000000000f286 W _ZNSt12_Vector_baseISt4pairINSt7__cxx1112basic_stringIcSt11char_traitsIcESaIcEEEmESaIS7_EEC1EmRKS8_
000000000001e0e6 W _ZNSt12_Vector_baseISt4pairINSt7__cxx1112basic_stringIcSt11char_traitsIcESaIcEEEmESaIS7_EEC1Ev
000000000000f286 W _ZNSt12_Vector_baseISt4pairINSt7__cxx1112basic_stringIcSt11char_traitsIcESaIcEEEmESaIS7_EEC2EmRKS8_
000000000001e0e6 W _ZNSt12_Vector_baseISt4pairINSt7__cxx1112basic_stringIcSt11char_traitsIcESaIcEEEmESaIS7_EEC2Ev
000000000000f2ec W _ZNSt12_Vector_baseISt4pairINSt7__cxx1112basic_stringIcSt11char_traitsIcESaIcEEEmESaIS7_EED1Ev
000000000000f2ec W _ZNSt12_Vector_baseISt4pairINSt7__cxx1112basic_stringIcSt11char_traitsIcESaIcEEEmESaIS7_EED2Ev
0000000000013f14 W _ZNSt12_Vector_baseISt6vectorISt10shared_ptrIN12AssemblyUtil12SectionEntryEESaIS4_EESaIS6_EE11_M_allocateEm
000000000000c0a8 W _ZNSt12_Vector_baseISt6vectorISt10shared_ptrIN12AssemblyUtil12SectionEntryEESaIS4_EESaIS6_EE12_Vector_implC1Ev
000000000000c0a8 W _ZNSt12_Vector_baseISt6vectorISt10shared_ptrIN12AssemblyUtil12SectionEntryEESaIS4_EESaIS6_EE12_Vector_implC2Ev
000000000000b188 W _ZNSt12_Vector_baseISt6vectorISt10shared_ptrIN12AssemblyUtil12SectionEntryEESaIS4_EESaIS6_EE12_Vector_implD1Ev
000000000000b188 W _ZNSt12_Vector_baseISt6vectorISt10shared_ptrIN12AssemblyUtil12SectionEntryEESaIS4_EESaIS6_EE12_Vector_implD2Ev
000000000000f08e W _ZNSt12_Vector_baseISt6vectorISt10shared_ptrIN12AssemblyUtil12SectionEntryEESaIS4_EESaIS6_EE13_M_deallocateEPS6_m
000000000000f04c W _ZNSt12_Vector_baseISt6vectorISt10shared_ptrIN12AssemblyUtil12SectionEntryEESaIS4_EESaIS6_EE17_Vector_impl_dataC1Ev
000000000000f04c W _ZNSt12_Vector_baseISt6vectorISt10shared_ptrIN12AssemblyUtil12SectionEntryEESaIS4_EESaIS6_EE17_Vector_impl_dataC2Ev
000000000000f0c8 W _ZNSt12_Vector_baseISt6vectorISt10shared_ptrIN12AssemblyUtil12SectionEntryEESaIS4_EESaIS6_EE19_M_get_Tp_allocatorEv
000000000000b1a8 W _ZNSt12_Vector_baseISt6vectorISt10shared_ptrIN12AssemblyUtil12SectionEntryEESaIS4_EESaIS6_EEC1Ev
000000000000b1a8 W _ZNSt12_Vector_baseISt6vectorISt10shared_ptrIN12AssemblyUtil12SectionEntryEESaIS4_EESaIS6_EEC2Ev
000000000000c0f4 W _ZNSt12_Vector_baseISt6vectorISt10shared_ptrIN12AssemblyUtil12SectionEntryEESaIS4_EESaIS6_EED1Ev
000000000000c0f4 W _ZNSt12_Vector_baseISt6vectorISt10shared_ptrIN12AssemblyUtil12SectionEntryEESaIS4_EESaIS6_EED2Ev
0000000000013cb0 W _ZNSt12_Vector_baseISt6vectorISt10shared_ptrIN12AssemblyUtil16SymbolTableEntryEESaIS4_EESaIS6_EE11_M_allocateEm
000000000000bfb2 W _ZNSt12_Vector_baseISt6vectorISt10shared_ptrIN12AssemblyUtil16SymbolTableEntryEESaIS4_EESaIS6_EE12_Vector_implC1Ev
000000000000bfb2 W _ZNSt12_Vector_baseISt6vectorISt10shared_ptrIN12AssemblyUtil16SymbolTableEntryEESaIS4_EESaIS6_EE12_Vector_implC2Ev
000000000000b128 W _ZNSt12_Vector_baseISt6vectorISt10shared_ptrIN12AssemblyUtil16SymbolTableEntryEESaIS4_EESaIS6_EE12_Vector_implD1Ev
000000000000b128 W _ZNSt12_Vector_baseISt6vectorISt10shared_ptrIN12AssemblyUtil16SymbolTableEntryEESaIS4_EESaIS6_EE12_Vector_implD2Ev
000000000000efb2 W _ZNSt12_Vector_baseISt6vectorISt10shared_ptrIN12AssemblyUtil16SymbolTableEntryEESaIS4_EESaIS6_EE13_M_deallocateEPS6_m
000000000000ef70 W _ZNSt12_Vector_baseISt6vectorISt10shared_ptrIN12AssemblyUtil16SymbolTableEntryEESaIS4_EESaIS6_EE17_Vector_impl_dataC1Ev
000000000000ef70 W _ZNSt12_Vector_baseISt6vectorISt10shared_ptrIN12AssemblyUtil16SymbolTableEntryEESaIS4_EESaIS6_EE17_Vector_impl_dataC2Ev
000000000000efec W _ZNSt12_Vector_baseISt6vectorISt10shared_ptrIN12AssemblyUtil16SymbolTableEntryEESaIS4_EESaIS6_EE19_M_get_Tp_allocatorEv
000000000000b148 W _ZNSt12_Vector_baseISt6vectorISt10shared_ptrIN12AssemblyUtil16SymbolTableEntryEESaIS4_EESaIS6_EEC1Ev
000000000000b148 W _ZNSt12_Vector_baseISt6vectorISt10shared_ptrIN12AssemblyUtil16SymbolTableEntryEESaIS4_EESaIS6_EEC2Ev
000000000000bffe W _ZNSt12_Vector_baseISt6vectorISt10shared_ptrIN12AssemblyUtil16SymbolTableEntryEESaIS4_EESaIS6_EED1Ev
000000000000bffe W _ZNSt12_Vector_baseISt6vectorISt10shared_ptrIN12AssemblyUtil16SymbolTableEntryEESaIS4_EESaIS6_EED2Ev
0000000000014178 W _ZNSt12_Vector_baseISt6vectorISt10shared_ptrIN12AssemblyUtil20RelocationTableEntryEESaIS4_EESaIS6_EE11_M_allocateEm
000000000000c19e W _ZNSt12_Vector_baseISt6vectorISt10shared_ptrIN12AssemblyUtil20RelocationTableEntryEESaIS4_EESaIS6_EE12_Vector_implC1Ev
000000000000c19e W _ZNSt12_Vector_baseISt6vectorISt10shared_ptrIN12AssemblyUtil20RelocationTableEntryEESaIS4_EESaIS6_EE12_Vector_implC2Ev
000000000000b1e8 W _ZNSt12_Vector_baseISt6vectorISt10shared_ptrIN12AssemblyUtil20RelocationTableEntryEESaIS4_EESaIS6_EE12_Vector_implD1Ev
000000000000b1e8 W _ZNSt12_Vector_baseISt6vectorISt10shared_ptrIN12AssemblyUtil20RelocationTableEntryEESaIS4_EESaIS6_EE12_Vector_implD2Ev
000000000000f16a W _ZNSt12_Vector_baseISt6vectorISt10shared_ptrIN12AssemblyUtil20RelocationTableEntryEESaIS4_EESaIS6_EE13_M_deallocateEPS6_m
000000000000f128 W _ZNSt12_Vector_baseISt6vectorISt10shared_ptrIN12AssemblyUtil20RelocationTableEntryEESaIS4_EESaIS6_EE17_Vector_impl_dataC1Ev
000000000000f128 W _ZNSt12_Vector_baseISt6vectorISt10shared_ptrIN12AssemblyUtil20RelocationTableEntryEESaIS4_EESaIS6_EE17_Vector_impl_dataC2Ev
000000000000f1a4 W _ZNSt12_Vector_baseISt6vectorISt10shared_ptrIN12AssemblyUtil20RelocationTableEntryEESaIS4_EESaIS6_EE19_M_get_Tp_allocatorEv
000000000000b208 W _ZNSt12_Vector_baseISt6vectorISt10shared_ptrIN12AssemblyUtil20RelocationTableEntryEESaIS4_EESaIS6_EEC1Ev
000000000000b208 W _ZNSt12_Vector_baseISt6vectorISt10shared_ptrIN12AssemblyUtil20RelocationTableEntryEESaIS4_EESaIS6_EEC2Ev
000000000000c1ea W _ZNSt12_Vector_baseISt6vectorISt10shared_ptrIN12AssemblyUtil20RelocationTableEntryEESaIS4_EESaIS6_EED1Ev
000000000000c1ea W _ZNSt12_Vector_baseISt6vectorISt10shared_ptrIN12AssemblyUtil20RelocationTableEntryEESaIS4_EESaIS6_EED2Ev
                 U _ZNSt13basic_fstreamIcSt11char_traitsIcEE4openERKNSt7__cxx1112basic_stringIcS1_SaIcEEESt13_Ios_Openmode@GLIBCXX_3.4.21
                 U _ZNSt13basic_fstreamIcSt11char_traitsIcEE5closeEv@GLIBCXX_3.4
                 U _ZNSt13basic_fstreamIcSt11char_traitsIcEEC1Ev@GLIBCXX_3.4
                 U _ZNSt13basic_fstreamIcSt11char_traitsIcEED1Ev@GLIBCXX_3.4
0000000000028ee2 W _ZNSt13_Rb_tree_nodeISt4pairIKN10ParserUtil12eOperandTypeESt3mapINS1_15eAddressingTypeESt6vectorIS0_IN12AssemblyUtil11InstructionES6_ISt10shared_ptrIN15InstructionUtil14CodePopulationEESaISC_EEESaISF_EESt4lessIS5_ESaIS0_IKS5_SH_EEEEE9_M_valptrEv
00000000000295b2 W _ZNSt13_Rb_tree_nodeISt4pairIKN10ParserUtil15eAddressingTypeESt6vectorIS0_IN12AssemblyUtil11InstructionES4_ISt10shared_ptrIN15InstructionUtil14CodePopulationEESaISA_EEESaISD_EEEE9_M_valptrEv
0000000000028850 W _ZNSt13_Rb_tree_nodeISt4pairIKN10ParserUtil22eInstructionIdentifierESt3mapINS1_12eOperandTypeES4_INS1_15eAddressingTypeESt6vectorIS0_IN12AssemblyUtil11InstructionES7_ISt10shared_ptrIN15InstructionUtil14CodePopulationEESaISD_EEESaISG_EESt4lessIS6_ESaIS0_IKS6_SI_EEESJ_IS5_ESaIS0_IKS5_SO_EEEEE9_M_valptrEv
000000000001351e W _ZNSt13_Rb_tree_nodeISt4pairIKNSt7__cxx1112basic_stringIcSt11char_traitsIcESaIcEEEN10LinkerUtil15eInputFileStateEEE9_M_valptrEv
0000000000010620 W _ZNSt13_Rb_tree_nodeISt4pairIKNSt7__cxx1112basic_stringIcSt11char_traitsIcESaIcEEESt10shared_ptrIN10LinkerUtil16SectionMergeDataEEEE9_M_valptrEv
0000000000032624 W _ZNSt13unordered_mapINSt7__cxx1112basic_stringIcSt11char_traitsIcESaIcEEEN10ParserUtil4eCSRESt4hashIS5_ESt8equal_toIS5_ESaISt4pairIKS5_S7_EEEC1ESt16initializer_listISE_EmRKS9_RKSB_RKSF_
0000000000032624 W _ZNSt13unordered_mapINSt7__cxx1112basic_stringIcSt11char_traitsIcESaIcEEEN10ParserUtil4eCSRESt4hashIS5_ESt8equal_toIS5_ESaISt4pairIKS5_S7_EEEC2ESt16initializer_listISE_EmRKS9_RKSB_RKSF_
0000000000036852 W _ZNSt13unordered_mapINSt7__cxx1112basic_stringIcSt11char_traitsIcESaIcEEEN10ParserUtil4eCSRESt4hashIS5_ESt8equal_toIS5_ESaISt4pairIKS5_S7_EEED1Ev
0000000000036852 W _ZNSt13unordered_mapINSt7__cxx1112basic_stringIcSt11char_traitsIcESaIcEEEN10ParserUtil4eCSRESt4hashIS5_ESt8equal_toIS5_ESaISt4pairIKS5_S7_EEED2Ev
0000000000032686 W _ZNSt13unordered_mapINSt7__cxx1112basic_stringIcSt11char_traitsIcESaIcEEEN10ParserUtil4eCSRESt4hashIS5_ESt8equal_toIS5_ESaISt4pairIKS5_S7_EEEixERSD_
0000000000032510 W _ZNSt13unordered_mapINSt7__cxx1112basic_stringIcSt11char_traitsIcESaIcEEEN10ParserUtil4eGPRESt4hashIS5_ESt8equal_toIS5_ESaISt4pairIKS5_S7_EEEC1ESt16initializer_listISE_EmRKS9_RKSB_RKSF_
0000000000032510 W _ZNSt13unordered_mapINSt7__cxx1112basic_stringIcSt11char_traitsIcESaIcEEEN10ParserUtil4eGPRESt4hashIS5_ESt8equal_toIS5_ESaISt4pairIKS5_S7_EEEC2ESt16initializer_listISE_EmRKS9_RKSB_RKSF_
0000000000036832 W _ZNSt13unordered_mapINSt7__cxx1112basic_stringIcSt11char_traitsIcESaIcEEEN10ParserUtil4eGPRESt4hashIS5_ESt8equal_toIS5_ESaISt4pairIKS5_S7_EEED1Ev
0000000000036832 W _ZNSt13unordered_mapINSt7__cxx1112basic_stringIcSt11char_traitsIcESaIcEEEN10ParserUtil4eGPRESt4hashIS5_ESt8equal_toIS5_ESaISt4pairIKS5_S7_EEED2Ev
0000000000032572 W _ZNSt13unordered_mapINSt7__cxx1112basic_stringIcSt11char_traitsIcESaIcEEEN10ParserUtil4eGPRESt4hashIS5_ESt8equal_toIS5_ESaISt4pairIKS5_S7_EEEixERSD_
                 U _ZNSt14basic_ifstreamIcSt11char_traitsIcEEC1ERKNSt7__cxx1112basic_stringIcS1_SaIcEEESt13_Ios_Openmode@GLIBCXX_3.4.21
                 U _ZNSt14basic_ifstreamIcSt11char_traitsIcEED1Ev@GLIBCXX_3.4
                 U _ZNSt14basic_ofstreamIcSt11char_traitsIcEEC1EPKcSt13_Ios_Openmode@GLIBCXX_3.4
                 U _ZNSt14basic_ofstreamIcSt11char_traitsIcEED1Ev@GLIBCXX_3.4
0000000000035e77 W _ZNSt14pointer_traitsIPNSt8__detail10_Hash_nodeISt4pairIKNSt7__cxx1112basic_stringIcSt11char_traitsIcESaIcEEEN10ParserUtil4eCSREELb1EEEE10pointer_toERSD_
0000000000035903 W _ZNSt14pointer_traitsIPNSt8__detail10_Hash_nodeISt4pairIKNSt7__cxx1112basic_stringIcSt11char_traitsIcESaIcEEEN10ParserUtil4eGPREELb1EEEE10pointer_toERSD_
00000000000355b3 W _ZNSt14pointer_traitsIPPNSt8__detail15_Hash_node_baseEE10pointer_toERS2_
000000000001a5c8 W _ZNSt14__shared_countILN9__gnu_cxx12_Lock_policyE2EE7_M_swapERS2_
000000000000dcb0 W _ZNSt14__shared_countILN9__gnu_cxx12_Lock_policyE2EEaSERKS2_
000000000000c7d0 W _ZNSt14__shared_countILN9__gnu_cxx12_Lock_policyE2EEC1ERKS2_
000000000001a5ae W _ZNSt14__shared_countILN9__gnu_cxx12_Lock_policyE2EEC1Ev
00000000000176d2 W _ZNSt14__shared_countILN9__gnu_cxx12_Lock_policyE2EEC1IN10LinkerUtil16SectionMergeDataESaIS5_EJEEERPT_St20_Sp_alloc_shared_tagIT0_EDpOT1_
000000000001725e W _ZNSt14__shared_countILN9__gnu_cxx12_Lock_policyE2EEC1IN12AssemblyUtil12SectionEntryESaIS5_EJEEERPT_St20_Sp_alloc_shared_tagIT0_EDpOT1_
00000000000184d2 W _ZNSt14__shared_countILN9__gnu_cxx12_Lock_policyE2EEC1IN12AssemblyUtil16SymbolTableEntryESaIS5_EJEEERPT_St20_Sp_alloc_shared_tagIT0_EDpOT1_
0000000000020a28 W _ZNSt14__shared_countILN9__gnu_cxx12_Lock_policyE2EEC1IN12AssemblyUtil16SymbolTableEntryESaIS5_EJRNSt7__cxx1112basic_stringIcSt11char_traitsIcESaIcEEESD_RiRbSF_SE_EEERPT_St20_Sp_alloc_shared_tagIT0_EDpOT1_
000000000001872a W _ZNSt14__shared_countILN9__gnu_cxx12_Lock_policyE2EEC1IN12AssemblyUtil20RelocationTableEntryESaIS5_EJEEERPT_St20_Sp_alloc_shared_tagIT0_EDpOT1_
000000000002c11c W _ZNSt14__shared_countILN9__gnu_cxx12_Lock_policyE2EEC1IN15InstructionUtil14CodePopulationESaIS5_EJRMN12AssemblyUtil11InstructionEFvtERNS4_11eValueToUseEEEERPT_St20_Sp_alloc_shared_tagIT0_EDpOT1_
000000000000c7d0 W _ZNSt14__shared_countILN9__gnu_cxx12_Lock_policyE2EEC2ERKS2_
000000000001a5ae W _ZNSt14__shared_countILN9__gnu_cxx12_Lock_policyE2EEC2Ev
00000000000176d2 W _ZNSt14__shared_countILN9__gnu_cxx12_Lock_policyE2EEC2IN10LinkerUtil16SectionMergeDataESaIS5_EJEEERPT_St20_Sp_alloc_shared_tagIT0_EDpOT1_
000000000001725e W _ZNSt14__shared_countILN9__gnu_cxx12_Lock_policyE2EEC2IN12AssemblyUtil12SectionEntryESaIS5_EJEEERPT_St20_Sp_alloc_shared_tagIT0_EDpOT1_
00000000000184d2 W _ZNSt14__shared_countILN9__gnu_cxx12_Lock_policyE2EEC2IN12AssemblyUtil16SymbolTableEntryESaIS5_EJEEERPT_St20_Sp_alloc_shared_tagIT0_EDpOT1_
0000000000020a28 W _ZNSt14__shared_countILN9__gnu_cxx12_Lock_policyE2EEC2IN12AssemblyUtil16SymbolTableEntryESaIS5_EJRNSt7__cxx1112basic_stringIcSt11char_traitsIcESaIcEEESD_RiRbSF_SE_EEERPT_St20_Sp_alloc_shared_tagIT0_EDpOT1_
000000000001872a W _ZNSt14__shared_countILN9__gnu_cxx12_Lock_policyE2EEC2IN12AssemblyUtil20RelocationTableEntryESaIS5_EJEEERPT_St20_Sp_alloc_shared_tagIT0_EDpOT1_
000000000002c11c W _ZNSt14__shared_countILN9__gnu_cxx12_Lock_policyE2EEC2IN15InstructionUtil14CodePopulationESaIS5_EJRMN12AssemblyUtil11InstructionEFvtERNS4_11eValueToUseEEEERPT_St20_Sp_alloc_shared_tagIT0_EDpOT1_
000000000000bb1a W _ZNSt14__shared_countILN9__gnu_cxx12_Lock_policyE2EED1Ev
000000000000bb1a W _ZNSt14__shared_countILN9__gnu_cxx12_Lock_policyE2EED2Ev
000000000001d963 W _ZNSt14_Sp_ebo_helperILi0ESaIN10LinkerUtil16SectionMergeDataEELb1EE6_S_getERS3_
000000000001ba1e W _ZNSt14_Sp_ebo_helperILi0ESaIN10LinkerUtil16SectionMergeDataEELb1EEC1ERKS2_
000000000001ba1e W _ZNSt14_Sp_ebo_helperILi0ESaIN10LinkerUtil16SectionMergeDataEELb1EEC2ERKS2_
000000000001935e W _ZNSt14_Sp_ebo_helperILi0ESaIN10LinkerUtil16SectionMergeDataEELb1EED1Ev
000000000001935e W _ZNSt14_Sp_ebo_helperILi0ESaIN10LinkerUtil16SectionMergeDataEELb1EED2Ev
000000000001d9cd W _ZNSt14_Sp_ebo_helperILi0ESaIN12AssemblyUtil12SectionEntryEELb1EE6_S_getERS3_
000000000001b756 W _ZNSt14_Sp_ebo_helperILi0ESaIN12AssemblyUtil12SectionEntryEELb1EEC1ERKS2_
000000000001b756 W _ZNSt14_Sp_ebo_helperILi0ESaIN12AssemblyUtil12SectionEntryEELb1EEC2ERKS2_
0000000000018eae W _ZNSt14_Sp_ebo_helperILi0ESaIN12AssemblyUtil12SectionEntryEELb1EED1Ev
0000000000018eae W _ZNSt14_Sp_ebo_helperILi0ESaIN12AssemblyUtil12SectionEntryEELb1EED2Ev
000000000001d8fd W _ZNSt14_Sp_ebo_helperILi0ESaIN12AssemblyUtil16SymbolTableEntryEELb1EE6_S_getERS3_
000000000001bfcc W _ZNSt14_Sp_ebo_helperILi0ESaIN12AssemblyUtil16SymbolTableEntryEELb1EEC1ERKS2_
000000000001bfcc W _ZNSt14_Sp_ebo_helperILi0ESaIN12AssemblyUtil16SymbolTableEntryEELb1EEC2ERKS2_
000000000001a084 W _ZNSt14_Sp_ebo_helperILi0ESaIN12AssemblyUtil16SymbolTableEntryEELb1EED1Ev
000000000001a084 W _ZNSt14_Sp_ebo_helperILi0ESaIN12AssemblyUtil16SymbolTableEntryEELb1EED2Ev
000000000001d898 W _ZNSt14_Sp_ebo_helperILi0ESaIN12AssemblyUtil20RelocationTableEntryEELb1EE6_S_getERS3_
000000000001c276 W _ZNSt14_Sp_ebo_helperILi0ESaIN12AssemblyUtil20RelocationTableEntryEELb1EEC1ERKS2_
000000000001c276 W _ZNSt14_Sp_ebo_helperILi0ESaIN12AssemblyUtil20RelocationTableEntryEELb1EEC2ERKS2_
000000000001a47c W _ZNSt14_Sp_ebo_helperILi0ESaIN12AssemblyUtil20RelocationTableEntryEELb1EED1Ev
000000000001a47c W _ZNSt14_Sp_ebo_helperILi0ESaIN12AssemblyUtil20RelocationTableEntryEELb1EED2Ev
00000000000300da W _ZNSt14_Sp_ebo_helperILi0ESaIN15InstructionUtil14CodePopulationEELb1EE6_S_getERS3_
000000000002e57c W _ZNSt14_Sp_ebo_helperILi0ESaIN15InstructionUtil14CodePopulationEELb1EEC1ERKS2_
000000000002e57c W _ZNSt14_Sp_ebo_helperILi0ESaIN15InstructionUtil14CodePopulationEELb1EEC2ERKS2_
000000000002d25e W _ZNSt14_Sp_ebo_helperILi0ESaIN15InstructionUtil14CodePopulationEELb1EED1Ev
000000000002d25e W _ZNSt14_Sp_ebo_helperILi0ESaIN15InstructionUtil14CodePopulationEELb1EED2Ev
0000000000019312 W _ZNSt15__allocated_ptrISaISt23_Sp_counted_ptr_inplaceIN10LinkerUtil16SectionMergeDataESaIS2_ELN9__gnu_cxx12_Lock_policyE2EEEE3getEv
000000000001944c W _ZNSt15__allocated_ptrISaISt23_Sp_counted_ptr_inplaceIN10LinkerUtil16SectionMergeDataESaIS2_ELN9__gnu_cxx12_Lock_policyE2EEEEaSEDn
000000000001ab90 W _ZNSt15__allocated_ptrISaISt23_Sp_counted_ptr_inplaceIN10LinkerUtil16SectionMergeDataESaIS2_ELN9__gnu_cxx12_Lock_policyE2EEEEC1ERS7_PS6_
000000000001ab90 W _ZNSt15__allocated_ptrISaISt23_Sp_counted_ptr_inplaceIN10LinkerUtil16SectionMergeDataESaIS2_ELN9__gnu_cxx12_Lock_policyE2EEEEC2ERS7_PS6_
00000000000192d2 W _ZNSt15__allocated_ptrISaISt23_Sp_counted_ptr_inplaceIN10LinkerUtil16SectionMergeDataESaIS2_ELN9__gnu_cxx12_Lock_policyE2EEEED1Ev
00000000000192d2 W _ZNSt15__allocated_ptrISaISt23_Sp_counted_ptr_inplaceIN10LinkerUtil16SectionMergeDataESaIS2_ELN9__gnu_cxx12_Lock_policyE2EEEED2Ev
0000000000018e62 W _ZNSt15__allocated_ptrISaISt23_Sp_counted_ptr_inplaceIN12AssemblyUtil12SectionEntryESaIS2_ELN9__gnu_cxx12_Lock_policyE2EEEE3getEv
0000000000018f9c W _ZNSt15__allocated_ptrISaISt23_Sp_counted_ptr_inplaceIN12AssemblyUtil12SectionEntryESaIS2_ELN9__gnu_cxx12_Lock_policyE2EEEEaSEDn
000000000001a8c2 W _ZNSt15__allocated_ptrISaISt23_Sp_counted_ptr_inplaceIN12AssemblyUtil12SectionEntryESaIS2_ELN9__gnu_cxx12_Lock_policyE2EEEEC1ERS7_PS6_
000000000001a8c2 W _ZNSt15__allocated_ptrISaISt23_Sp_counted_ptr_inplaceIN12AssemblyUtil12SectionEntryESaIS2_ELN9__gnu_cxx12_Lock_policyE2EEEEC2ERS7_PS6_
0000000000018e22 W _ZNSt15__allocated_ptrISaISt23_Sp_counted_ptr_inplaceIN12AssemblyUtil12SectionEntryESaIS2_ELN9__gnu_cxx12_Lock_policyE2EEEED1Ev
0000000000018e22 W _ZNSt15__allocated_ptrISaISt23_Sp_counted_ptr_inplaceIN12AssemblyUtil12SectionEntryESaIS2_ELN9__gnu_cxx12_Lock_policyE2EEEED2Ev
000000000001a038 W _ZNSt15__allocated_ptrISaISt23_Sp_counted_ptr_inplaceIN12AssemblyUtil16SymbolTableEntryESaIS2_ELN9__gnu_cxx12_Lock_policyE2EEEE3getEv
000000000001a1a0 W _ZNSt15__allocated_ptrISaISt23_Sp_counted_ptr_inplaceIN12AssemblyUtil16SymbolTableEntryESaIS2_ELN9__gnu_cxx12_Lock_policyE2EEEEaSEDn
000000000001b250 W _ZNSt15__allocated_ptrISaISt23_Sp_counted_ptr_inplaceIN12AssemblyUtil16SymbolTableEntryESaIS2_ELN9__gnu_cxx12_Lock_policyE2EEEEC1ERS7_PS6_
000000000001b250 W _ZNSt15__allocated_ptrISaISt23_Sp_counted_ptr_inplaceIN12AssemblyUtil16SymbolTableEntryESaIS2_ELN9__gnu_cxx12_Lock_policyE2EEEEC2ERS7_PS6_
0000000000019ff8 W _ZNSt15__allocated_ptrISaISt23_Sp_counted_ptr_inplaceIN12AssemblyUtil16SymbolTableEntryESaIS2_ELN9__gnu_cxx12_Lock_policyE2EEEED1Ev
0000000000019ff8 W _ZNSt15__allocated_ptrISaISt23_Sp_counted_ptr_inplaceIN12AssemblyUtil16SymbolTableEntryESaIS2_ELN9__gnu_cxx12_Lock_policyE2EEEED2Ev
000000000001a430 W _ZNSt15__allocated_ptrISaISt23_Sp_counted_ptr_inplaceIN12AssemblyUtil20RelocationTableEntryESaIS2_ELN9__gnu_cxx12_Lock_policyE2EEEE3getEv
000000000001a56a W _ZNSt15__allocated_ptrISaISt23_Sp_counted_ptr_inplaceIN12AssemblyUtil20RelocationTableEntryESaIS2_ELN9__gnu_cxx12_Lock_policyE2EEEEaSEDn
000000000001b426 W _ZNSt15__allocated_ptrISaISt23_Sp_counted_ptr_inplaceIN12AssemblyUtil20RelocationTableEntryESaIS2_ELN9__gnu_cxx12_Lock_policyE2EEEEC1ERS7_PS6_
000000000001b426 W _ZNSt15__allocated_ptrISaISt23_Sp_counted_ptr_inplaceIN12AssemblyUtil20RelocationTableEntryESaIS2_ELN9__gnu_cxx12_Lock_policyE2EEEEC2ERS7_PS6_
000000000001a3f0 W _ZNSt15__allocated_ptrISaISt23_Sp_counted_ptr_inplaceIN12AssemblyUtil20RelocationTableEntryESaIS2_ELN9__gnu_cxx12_Lock_policyE2EEEED1Ev
000000000001a3f0 W _ZNSt15__allocated_ptrISaISt23_Sp_counted_ptr_inplaceIN12AssemblyUtil20RelocationTableEntryESaIS2_ELN9__gnu_cxx12_Lock_policyE2EEEED2Ev
000000000002d212 W _ZNSt15__allocated_ptrISaISt23_Sp_counted_ptr_inplaceIN15InstructionUtil14CodePopulationESaIS2_ELN9__gnu_cxx12_Lock_policyE2EEEE3getEv
000000000002d3a8 W _ZNSt15__allocated_ptrISaISt23_Sp_counted_ptr_inplaceIN15InstructionUtil14CodePopulationESaIS2_ELN9__gnu_cxx12_Lock_policyE2EEEEaSEDn
000000000002dfd4 W _ZNSt15__allocated_ptrISaISt23_Sp_counted_ptr_inplaceIN15InstructionUtil14CodePopulationESaIS2_ELN9__gnu_cxx12_Lock_policyE2EEEEC1ERS7_PS6_
000000000002dfd4 W _ZNSt15__allocated_ptrISaISt23_Sp_counted_ptr_inplaceIN15InstructionUtil14CodePopulationESaIS2_ELN9__gnu_cxx12_Lock_policyE2EEEEC2ERS7_PS6_
000000000002d1d2 W _ZNSt15__allocated_ptrISaISt23_Sp_counted_ptr_inplaceIN15InstructionUtil14CodePopulationESaIS2_ELN9__gnu_cxx12_Lock_policyE2EEEED1Ev
000000000002d1d2 W _ZNSt15__allocated_ptrISaISt23_Sp_counted_ptr_inplaceIN15InstructionUtil14CodePopulationESaIS2_ELN9__gnu_cxx12_Lock_policyE2EEEED2Ev
000000000000a9ba W _ZNSt15_Rb_tree_header8_M_resetEv
000000000000a990 W _ZNSt15_Rb_tree_headerC1Ev
000000000000a990 W _ZNSt15_Rb_tree_headerC2Ev
0000000000011656 W _ZNSt16allocator_traitsISaIcEE37select_on_container_copy_constructionERKS0_
00000000000186f8 W _ZNSt16allocator_traitsISaIhEE10deallocateERS0_Phm
0000000000021ea6 W _ZNSt16allocator_traitsISaIhEE37select_on_container_copy_constructionERKS0_
000000000001866a W _ZNSt16allocator_traitsISaIhEE8allocateERS0_m
000000000001b354 W _ZNSt16allocator_traitsISaIhEE8max_sizeERKS0_
000000000001426c W _ZNSt16allocator_traitsISaIhEE9constructIhJhEEEvRS0_PT_DpOT0_
0000000000020547 W _ZNSt16allocator_traitsISaIhEE9constructIhJRKhEEEvRS0_PT_DpOT0_
000000000001d826 W _ZNSt16allocator_traitsISaIN10LinkerUtil16SectionMergeDataEEE7destroyIS1_EEvRS2_PT_
000000000001ac4c W _ZNSt16allocator_traitsISaIN10LinkerUtil16SectionMergeDataEEE9constructIS1_JEEEvRS2_PT_DpOT0_
000000000001d86e W _ZNSt16allocator_traitsISaIN12AssemblyUtil12SectionEntryEEE7destroyIS1_EEvRS2_PT_
000000000001a9b2 W _ZNSt16allocator_traitsISaIN12AssemblyUtil12SectionEntryEEE9constructIS1_JEEEvRS2_PT_DpOT0_
000000000001d7de W _ZNSt16allocator_traitsISaIN12AssemblyUtil16SymbolTableEntryEEE7destroyIS1_EEvRS2_PT_
000000000001b30c W _ZNSt16allocator_traitsISaIN12AssemblyUtil16SymbolTableEntryEEE9constructIS1_JEEEvRS2_PT_DpOT0_
0000000000020df0 W _ZNSt16allocator_traitsISaIN12AssemblyUtil16SymbolTableEntryEEE9constructIS1_JRNSt7__cxx1112basic_stringIcSt11char_traitsIcESaIcEEESB_RiRbSD_SC_EEEvRS2_PT_DpOT0_
000000000001d796 W _ZNSt16allocator_traitsISaIN12AssemblyUtil20RelocationTableEntryEEE7destroyIS1_EEvRS2_PT_
000000000001b4e2 W _ZNSt16allocator_traitsISaIN12AssemblyUtil20RelocationTableEntryEEE9constructIS1_JEEEvRS2_PT_DpOT0_
00000000000300b0 W _ZNSt16allocator_traitsISaIN15InstructionUtil14CodePopulationEEE7destroyIS1_EEvRS2_PT_
000000000002e090 W _ZNSt16allocator_traitsISaIN15InstructionUtil14CodePopulationEEE9constructIS1_JRMN12AssemblyUtil11InstructionEFvtERNS0_11eValueToUseEEEEvRS2_PT_DpOT0_
0000000000014fa3 W _ZNSt16allocator_traitsISaINSt7__cxx1112basic_stringIcSt11char_traitsIcESaIcEEEEE10deallocateERS6_PS5_m
0000000000011fce W _ZNSt16allocator_traitsISaINSt7__cxx1112basic_stringIcSt11char_traitsIcESaIcEEEEE37select_on_container_copy_constructionERKS6_
000000000001e76e W _ZNSt16allocator_traitsISaINSt7__cxx1112basic_stringIcSt11char_traitsIcESaIcEEEEE7destroyIS5_EEvRS6_PT_
0000000000016def W _ZNSt16allocator_traitsISaINSt7__cxx1112basic_stringIcSt11char_traitsIcESaIcEEEEE8allocateERS6_m
000000000001e8e7 W _ZNSt16allocator_traitsISaINSt7__cxx1112basic_stringIcSt11char_traitsIcESaIcEEEEE8max_sizeERKS6_
0000000000030f58 W _ZNSt16allocator_traitsISaINSt7__cxx1112basic_stringIcSt11char_traitsIcESaIcEEEEE9constructIS5_JRKS5_EEEvRS6_PT_DpOT0_
000000000001e3b5 W _ZNSt16allocator_traitsISaINSt7__cxx1112basic_stringIcSt11char_traitsIcESaIcEEEEE9constructIS5_JS5_EEEvRS6_PT_DpOT0_
00000000000350be W _ZNSt16allocator_traitsISaINSt8__detail10_Hash_nodeISt4pairIKNSt7__cxx1112basic_stringIcSt11char_traitsIcESaIcEEEN10ParserUtil4eCSREELb1EEEEE10deallocateERSE_PSD_m
00000000000350f0 W _ZNSt16allocator_traitsISaINSt8__detail10_Hash_nodeISt4pairIKNSt7__cxx1112basic_stringIcSt11char_traitsIcESaIcEEEN10ParserUtil4eCSREELb1EEEEE7destroyISC_EEvRSE_PT_
000000000003500e W _ZNSt16allocator_traitsISaINSt8__detail10_Hash_nodeISt4pairIKNSt7__cxx1112basic_stringIcSt11char_traitsIcESaIcEEEN10ParserUtil4eCSREELb1EEEEE8allocateERSE_m
00000000000365bc W _ZNSt16allocator_traitsISaINSt8__detail10_Hash_nodeISt4pairIKNSt7__cxx1112basic_stringIcSt11char_traitsIcESaIcEEEN10ParserUtil4eCSREELb1EEEEE9constructISC_JRKSC_EEEvRSE_PT_DpOT0_
000000000003504e W _ZNSt16allocator_traitsISaINSt8__detail10_Hash_nodeISt4pairIKNSt7__cxx1112basic_stringIcSt11char_traitsIcESaIcEEEN10ParserUtil4eCSREELb1EEEEE9constructISC_JRKSt21piecewise_construct_tSt5tupleIJRS9_EESK_IJEEEEEvRSE_PT_DpOT0_
0000000000034858 W _ZNSt16allocator_traitsISaINSt8__detail10_Hash_nodeISt4pairIKNSt7__cxx1112basic_stringIcSt11char_traitsIcESaIcEEEN10ParserUtil4eGPREELb1EEEEE10deallocateERSE_PSD_m
000000000003488a W _ZNSt16allocator_traitsISaINSt8__detail10_Hash_nodeISt4pairIKNSt7__cxx1112basic_stringIcSt11char_traitsIcESaIcEEEN10ParserUtil4eGPREELb1EEEEE7destroyISC_EEvRSE_PT_
00000000000347a8 W _ZNSt16allocator_traitsISaINSt8__detail10_Hash_nodeISt4pairIKNSt7__cxx1112basic_stringIcSt11char_traitsIcESaIcEEEN10ParserUtil4eGPREELb1EEEEE8allocateERSE_m
00000000000364b3 W _ZNSt16allocator_traitsISaINSt8__detail10_Hash_nodeISt4pairIKNSt7__cxx1112basic_stringIcSt11char_traitsIcESaIcEEEN10ParserUtil4eGPREELb1EEEEE9constructISC_JRKSC_EEEvRSE_PT_DpOT0_
00000000000347e8 W _ZNSt16allocator_traitsISaINSt8__detail10_Hash_nodeISt4pairIKNSt7__cxx1112basic_stringIcSt11char_traitsIcESaIcEEEN10ParserUtil4eGPREELb1EEEEE9constructISC_JRKSt21piecewise_construct_tSt5tupleIJRS9_EESK_IJEEEEEvRSE_PT_DpOT0_
0000000000035615 W _ZNSt16allocator_traitsISaIPNSt8__detail15_Hash_node_baseEEE10deallocateERS3_PS2_m
0000000000035f3b W _ZNSt16allocator_traitsISaIPNSt8__detail15_Hash_node_baseEEE8allocateERS3_m
00000000000125f7 W _ZNSt16allocator_traitsISaISt10shared_ptrIN10LinkerUtil16SectionMergeDataEEEE10deallocateERS4_PS3_m
0000000000013385 W _ZNSt16allocator_traitsISaISt10shared_ptrIN10LinkerUtil16SectionMergeDataEEEE7destroyIS3_EEvRS4_PT_
0000000000015a65 W _ZNSt16allocator_traitsISaISt10shared_ptrIN10LinkerUtil16SectionMergeDataEEEE8allocateERS4_m
0000000000019632 W _ZNSt16allocator_traitsISaISt10shared_ptrIN10LinkerUtil16SectionMergeDataEEEE8max_sizeERKS4_
0000000000010642 W _ZNSt16allocator_traitsISaISt10shared_ptrIN10LinkerUtil16SectionMergeDataEEEE9constructIS3_JRKS3_EEEvRS4_PT_DpOT0_
000000000001bbb1 W _ZNSt16allocator_traitsISaISt10shared_ptrIN10LinkerUtil16SectionMergeDataEEEE9constructIS3_JS3_EEEvRS4_PT_DpOT0_
0000000000011c2f W _ZNSt16allocator_traitsISaISt10shared_ptrIN12AssemblyUtil12SectionEntryEEEE10deallocateERS4_PS3_m
0000000000019c44 W _ZNSt16allocator_traitsISaISt10shared_ptrIN12AssemblyUtil12SectionEntryEEEE37select_on_container_copy_constructionERKS4_
00000000000128b1 W _ZNSt16allocator_traitsISaISt10shared_ptrIN12AssemblyUtil12SectionEntryEEEE7destroyIS3_EEvRS4_PT_
0000000000015361 W _ZNSt16allocator_traitsISaISt10shared_ptrIN12AssemblyUtil12SectionEntryEEEE8allocateERS4_m
0000000000018fe0 W _ZNSt16allocator_traitsISaISt10shared_ptrIN12AssemblyUtil12SectionEntryEEEE8max_sizeERKS4_
000000000000fed4 W _ZNSt16allocator_traitsISaISt10shared_ptrIN12AssemblyUtil12SectionEntryEEEE9constructIS3_JRKS3_EEEvRS4_PT_DpOT0_
000000000001b892 W _ZNSt16allocator_traitsISaISt10shared_ptrIN12AssemblyUtil12SectionEntryEEEE9constructIS3_JS3_EEEvRS4_PT_DpOT0_
0000000000011bc3 W _ZNSt16allocator_traitsISaISt10shared_ptrIN12AssemblyUtil16SymbolTableEntryEEEE10deallocateERS4_PS3_m
0000000000019aac W _ZNSt16allocator_traitsISaISt10shared_ptrIN12AssemblyUtil16SymbolTableEntryEEEE37select_on_container_copy_constructionERKS4_
0000000000012369 W _ZNSt16allocator_traitsISaISt10shared_ptrIN12AssemblyUtil16SymbolTableEntryEEEE7destroyIS3_EEvRS4_PT_
00000000000150f0 W _ZNSt16allocator_traitsISaISt10shared_ptrIN12AssemblyUtil16SymbolTableEntryEEEE8allocateERS4_m
0000000000018c54 W _ZNSt16allocator_traitsISaISt10shared_ptrIN12AssemblyUtil16SymbolTableEntryEEEE8max_sizeERKS4_
000000000000f7db W _ZNSt16allocator_traitsISaISt10shared_ptrIN12AssemblyUtil16SymbolTableEntryEEEE9constructIS3_JRKS3_EEEvRS4_PT_DpOT0_
000000000001b5f2 W _ZNSt16allocator_traitsISaISt10shared_ptrIN12AssemblyUtil16SymbolTableEntryEEEE9constructIS3_JS3_EEEvRS4_PT_DpOT0_
0000000000011c9b W _ZNSt16allocator_traitsISaISt10shared_ptrIN12AssemblyUtil20RelocationTableEntryEEEE10deallocateERS4_PS3_m
0000000000019ddc W _ZNSt16allocator_traitsISaISt10shared_ptrIN12AssemblyUtil20RelocationTableEntryEEEE37select_on_container_copy_constructionERKS4_
00000000000125a7 W _ZNSt16allocator_traitsISaISt10shared_ptrIN12AssemblyUtil20RelocationTableEntryEEEE7destroyIS3_EEvRS4_PT_
00000000000151c5 W _ZNSt16allocator_traitsISaISt10shared_ptrIN12AssemblyUtil20RelocationTableEntryEEEE8allocateERS4_m
0000000000018cf9 W _ZNSt16allocator_traitsISaISt10shared_ptrIN12AssemblyUtil20RelocationTableEntryEEEE8max_sizeERKS4_
000000000000fa8a W _ZNSt16allocator_traitsISaISt10shared_ptrIN12AssemblyUtil20RelocationTableEntryEEEE9constructIS3_JRKS3_EEEvRS4_PT_DpOT0_
000000000001b641 W _ZNSt16allocator_traitsISaISt10shared_ptrIN12AssemblyUtil20RelocationTableEntryEEEE9constructIS3_JS3_EEEvRS4_PT_DpOT0_
0000000000027fb3 W _ZNSt16allocator_traitsISaISt10shared_ptrIN15InstructionUtil14CodePopulationEEEE10deallocateERS4_PS3_m
000000000002a5ec W _ZNSt16allocator_traitsISaISt10shared_ptrIN15InstructionUtil14CodePopulationEEEE37select_on_container_copy_constructionERKS4_
000000000002a4bc W _ZNSt16allocator_traitsISaISt10shared_ptrIN15InstructionUtil14CodePopulationEEEE7destroyIS3_EEvRS4_PT_
000000000002c094 W _ZNSt16allocator_traitsISaISt10shared_ptrIN15InstructionUtil14CodePopulationEEEE8allocateERS4_m
000000000002dee1 W _ZNSt16allocator_traitsISaISt10shared_ptrIN15InstructionUtil14CodePopulationEEEE8max_sizeERKS4_
0000000000028021 W _ZNSt16allocator_traitsISaISt10shared_ptrIN15InstructionUtil14CodePopulationEEEE9constructIS3_JS3_EEEvRS4_PT_DpOT0_
000000000002c7de W _ZNSt16allocator_traitsISaISt13_Rb_tree_nodeISt4pairIKN10ParserUtil12eOperandTypeESt3mapINS2_15eAddressingTypeESt6vectorIS1_IN12AssemblyUtil11InstructionES7_ISt10shared_ptrIN15InstructionUtil14CodePopulationEESaISD_EEESaISG_EESt4lessIS6_ESaIS1_IKS6_SI_EEEEEEE10deallocateERSR_PSQ_m
000000000002c7b4 W _ZNSt16allocator_traitsISaISt13_Rb_tree_nodeISt4pairIKN10ParserUtil12eOperandTypeESt3mapINS2_15eAddressingTypeESt6vectorIS1_IN12AssemblyUtil11InstructionES7_ISt10shared_ptrIN15InstructionUtil14CodePopulationEESaISD_EEESaISG_EESt4lessIS6_ESaIS1_IKS6_SI_EEEEEEE7destroyISP_EEvRSR_PT_
000000000002c660 W _ZNSt16allocator_traitsISaISt13_Rb_tree_nodeISt4pairIKN10ParserUtil12eOperandTypeESt3mapINS2_15eAddressingTypeESt6vectorIS1_IN12AssemblyUtil11InstructionES7_ISt10shared_ptrIN15InstructionUtil14CodePopulationEESaISD_EEESaISG_EESt4lessIS6_ESaIS1_IKS6_SI_EEEEEEE8allocateERSR_m
000000000002c68e W _ZNSt16allocator_traitsISaISt13_Rb_tree_nodeISt4pairIKN10ParserUtil12eOperandTypeESt3mapINS2_15eAddressingTypeESt6vectorIS1_IN12AssemblyUtil11InstructionES7_ISt10shared_ptrIN15InstructionUtil14CodePopulationEESaISD_EEESaISG_EESt4lessIS6_ESaIS1_IKS6_SI_EEEEEEE9constructISP_JRKSt21piecewise_construct_tSt5tupleIJRS4_EESX_IJEEEEEvRSR_PT_DpOT0_
000000000002c9de W _ZNSt16allocator_traitsISaISt13_Rb_tree_nodeISt4pairIKN10ParserUtil15eAddressingTypeESt6vectorIS1_IN12AssemblyUtil11InstructionES5_ISt10shared_ptrIN15InstructionUtil14CodePopulationEESaISB_EEESaISE_EEEEEE10deallocateERSJ_PSI_m
000000000002c9b4 W _ZNSt16allocator_traitsISaISt13_Rb_tree_nodeISt4pairIKN10ParserUtil15eAddressingTypeESt6vectorIS1_IN12AssemblyUtil11InstructionES5_ISt10shared_ptrIN15InstructionUtil14CodePopulationEESaISB_EEESaISE_EEEEEE7destroyISH_EEvRSJ_PT_
000000000002c860 W _ZNSt16allocator_traitsISaISt13_Rb_tree_nodeISt4pairIKN10ParserUtil15eAddressingTypeESt6vectorIS1_IN12AssemblyUtil11InstructionES5_ISt10shared_ptrIN15InstructionUtil14CodePopulationEESaISB_EEESaISE_EEEEEE8allocateERSJ_m
000000000002c88e W _ZNSt16allocator_traitsISaISt13_Rb_tree_nodeISt4pairIKN10ParserUtil15eAddressingTypeESt6vectorIS1_IN12AssemblyUtil11InstructionES5_ISt10shared_ptrIN15InstructionUtil14CodePopulationEESaISB_EEESaISE_EEEEEE9constructISH_JRKSt21piecewise_construct_tSt5tupleIJRS4_EESP_IJEEEEEvRSJ_PT_DpOT0_
000000000002bfd2 W _ZNSt16allocator_traitsISaISt13_Rb_tree_nodeISt4pairIKN10ParserUtil22eInstructionIdentifierESt3mapINS2_12eOperandTypeES5_INS2_15eAddressingTypeESt6vectorIS1_IN12AssemblyUtil11InstructionES8_ISt10shared_ptrIN15InstructionUtil14CodePopulationEESaISE_EEESaISH_EESt4lessIS7_ESaIS1_IKS7_SJ_EEESK_IS6_ESaIS1_IKS6_SP_EEEEEEE10deallocateERSX_PSW_m
000000000002bfa8 W _ZNSt16allocator_traitsISaISt13_Rb_tree_nodeISt4pairIKN10ParserUtil22eInstructionIdentifierESt3mapINS2_12eOperandTypeES5_INS2_15eAddressingTypeESt6vectorIS1_IN12AssemblyUtil11InstructionES8_ISt10shared_ptrIN15InstructionUtil14CodePopulationEESaISE_EEESaISH_EESt4lessIS7_ESaIS1_IKS7_SJ_EEESK_IS6_ESaIS1_IKS6_SP_EEEEEEE7destroyISV_EEvRSX_PT_
000000000002c4bc W _ZNSt16allocator_traitsISaISt13_Rb_tree_nodeISt4pairIKN10ParserUtil22eInstructionIdentifierESt3mapINS2_12eOperandTypeES5_INS2_15eAddressingTypeESt6vectorIS1_IN12AssemblyUtil11InstructionES8_ISt10shared_ptrIN15InstructionUtil14CodePopulationEESaISE_EEESaISH_EESt4lessIS7_ESaIS1_IKS7_SJ_EEESK_IS6_ESaIS1_IKS6_SP_EEEEEEE8allocateERSX_m
000000000002c4ea W _ZNSt16allocator_traitsISaISt13_Rb_tree_nodeISt4pairIKN10ParserUtil22eInstructionIdentifierESt3mapINS2_12eOperandTypeES5_INS2_15eAddressingTypeESt6vectorIS1_IN12AssemblyUtil11InstructionES8_ISt10shared_ptrIN15InstructionUtil14CodePopulationEESaISE_EEESaISH_EESt4lessIS7_ESaIS1_IKS7_SJ_EEESK_IS6_ESaIS1_IKS6_SP_EEEEEEE9constructISV_JRKSt21piecewise_construct_tSt5tupleIJRS4_EES13_IJEEEEEvRSX_PT_DpOT0_
0000000000017da4 W _ZNSt16allocator_traitsISaISt13_Rb_tree_nodeISt4pairIKNSt7__cxx1112basic_stringIcSt11char_traitsIcESaIcEEEN10LinkerUtil15eInputFileStateEEEEE10deallocateERSD_PSC_m
0000000000017d7a W _ZNSt16allocator_traitsISaISt13_Rb_tree_nodeISt4pairIKNSt7__cxx1112basic_stringIcSt11char_traitsIcESaIcEEEN10LinkerUtil15eInputFileStateEEEEE7destroyISB_EEvRSD_PT_
0000000000017c26 W _ZNSt16allocator_traitsISaISt13_Rb_tree_nodeISt4pairIKNSt7__cxx1112basic_stringIcSt11char_traitsIcESaIcEEEN10LinkerUtil15eInputFileStateEEEEE8allocateERSD_m
000000000001b5a3 W _ZNSt16allocator_traitsISaISt13_Rb_tree_nodeISt4pairIKNSt7__cxx1112basic_stringIcSt11char_traitsIcESaIcEEEN10LinkerUtil15eInputFileStateEEEEE9constructISB_JRKSB_EEEvRSD_PT_DpOT0_
0000000000017c54 W _ZNSt16allocator_traitsISaISt13_Rb_tree_nodeISt4pairIKNSt7__cxx1112basic_stringIcSt11char_traitsIcESaIcEEEN10LinkerUtil15eInputFileStateEEEEE9constructISB_JRKSt21piecewise_construct_tSt5tupleIJRS8_EESJ_IJEEEEEvRSD_PT_DpOT0_
00000000000176a0 W _ZNSt16allocator_traitsISaISt13_Rb_tree_nodeISt4pairIKNSt7__cxx1112basic_stringIcSt11char_traitsIcESaIcEEESt10shared_ptrIN10LinkerUtil16SectionMergeDataEEEEEE10deallocateERSF_PSE_m
0000000000017676 W _ZNSt16allocator_traitsISaISt13_Rb_tree_nodeISt4pairIKNSt7__cxx1112basic_stringIcSt11char_traitsIcESaIcEEESt10shared_ptrIN10LinkerUtil16SectionMergeDataEEEEEE7destroyISD_EEvRSF_PT_
0000000000017811 W _ZNSt16allocator_traitsISaISt13_Rb_tree_nodeISt4pairIKNSt7__cxx1112basic_stringIcSt11char_traitsIcESaIcEEESt10shared_ptrIN10LinkerUtil16SectionMergeDataEEEEEE8allocateERSF_m
000000000001783f W _ZNSt16allocator_traitsISaISt13_Rb_tree_nodeISt4pairIKNSt7__cxx1112basic_stringIcSt11char_traitsIcESaIcEEESt10shared_ptrIN10LinkerUtil16SectionMergeDataEEEEEE9constructISD_JRKSt21piecewise_construct_tSt5tupleIJRS8_EESL_IJEEEEEvRSF_PT_DpOT0_
000000000001abca W _ZNSt16allocator_traitsISaISt23_Sp_counted_ptr_inplaceIN10LinkerUtil16SectionMergeDataESaIS2_ELN9__gnu_cxx12_Lock_policyE2EEEE10deallocateERS7_PS6_m
000000000001ab61 W _ZNSt16allocator_traitsISaISt23_Sp_counted_ptr_inplaceIN10LinkerUtil16SectionMergeDataESaIS2_ELN9__gnu_cxx12_Lock_policyE2EEEE8allocateERS7_m
000000000001a8fc W _ZNSt16allocator_traitsISaISt23_Sp_counted_ptr_inplaceIN12AssemblyUtil12SectionEntryESaIS2_ELN9__gnu_cxx12_Lock_policyE2EEEE10deallocateERS7_PS6_m
000000000001a893 W _ZNSt16allocator_traitsISaISt23_Sp_counted_ptr_inplaceIN12AssemblyUtil12SectionEntryESaIS2_ELN9__gnu_cxx12_Lock_policyE2EEEE8allocateERS7_m
000000000001b28a W _ZNSt16allocator_traitsISaISt23_Sp_counted_ptr_inplaceIN12AssemblyUtil16SymbolTableEntryESaIS2_ELN9__gnu_cxx12_Lock_policyE2EEEE10deallocateERS7_PS6_m
000000000001b221 W _ZNSt16allocator_traitsISaISt23_Sp_counted_ptr_inplaceIN12AssemblyUtil16SymbolTableEntryESaIS2_ELN9__gnu_cxx12_Lock_policyE2EEEE8allocateERS7_m
000000000001b460 W _ZNSt16allocator_traitsISaISt23_Sp_counted_ptr_inplaceIN12AssemblyUtil20RelocationTableEntryESaIS2_ELN9__gnu_cxx12_Lock_policyE2EEEE10deallocateERS7_PS6_m
000000000001b3f7 W _ZNSt16allocator_traitsISaISt23_Sp_counted_ptr_inplaceIN12AssemblyUtil20RelocationTableEntryESaIS2_ELN9__gnu_cxx12_Lock_policyE2EEEE8allocateERS7_m
000000000002e00e W _ZNSt16allocator_traitsISaISt23_Sp_counted_ptr_inplaceIN15InstructionUtil14CodePopulationESaIS2_ELN9__gnu_cxx12_Lock_policyE2EEEE10deallocateERS7_PS6_m
000000000002dfa5 W _ZNSt16allocator_traitsISaISt23_Sp_counted_ptr_inplaceIN15InstructionUtil14CodePopulationESaIS2_ELN9__gnu_cxx12_Lock_policyE2EEEE8allocateERS7_m
0000000000016a5f W _ZNSt16allocator_traitsISaISt4pairIiSt10shared_ptrIN12AssemblyUtil12SectionEntryEEEEE10deallocateERS6_PS5_m
000000000001479c W _ZNSt16allocator_traitsISaISt4pairIiSt10shared_ptrIN12AssemblyUtil12SectionEntryEEEEE7destroyIS5_EEvRS6_PT_
00000000000169ae W _ZNSt16allocator_traitsISaISt4pairIiSt10shared_ptrIN12AssemblyUtil12SectionEntryEEEEE8allocateERS6_m
000000000001a5ff W _ZNSt16allocator_traitsISaISt4pairIiSt10shared_ptrIN12AssemblyUtil12SectionEntryEEEEE8max_sizeERKS6_
0000000000011705 W _ZNSt16allocator_traitsISaISt4pairIiSt10shared_ptrIN12AssemblyUtil12SectionEntryEEEEE9constructIS5_JS5_EEEvRS6_PT_DpOT0_
0000000000029e4c W _ZNSt16allocator_traitsISaISt4pairIMN12AssemblyUtil11InstructionEFvtEN15InstructionUtil11eValueToUseEEEE10deallocateERS8_PS7_m
000000000002be51 W _ZNSt16allocator_traitsISaISt4pairIMN12AssemblyUtil11InstructionEFvtEN15InstructionUtil11eValueToUseEEEE8allocateERS8_m
000000000002ccff W _ZNSt16allocator_traitsISaISt4pairIMN12AssemblyUtil11InstructionEFvtEN15InstructionUtil11eValueToUseEEEE8max_sizeERKS8_
0000000000027f71 W _ZNSt16allocator_traitsISaISt4pairIN12AssemblyUtil11InstructionESt6vectorISt10shared_ptrIN15InstructionUtil14CodePopulationEESaIS7_EEEEE10deallocateERSB_PSA_m
000000000002a024 W _ZNSt16allocator_traitsISaISt4pairIN12AssemblyUtil11InstructionESt6vectorISt10shared_ptrIN15InstructionUtil14CodePopulationEESaIS7_EEEEE37select_on_container_copy_constructionERKSB_
000000000002a9fe W _ZNSt16allocator_traitsISaISt4pairIN12AssemblyUtil11InstructionESt6vectorISt10shared_ptrIN15InstructionUtil14CodePopulationEESaIS7_EEEEE7destroyISA_EEvRSB_PT_
000000000002baee W _ZNSt16allocator_traitsISaISt4pairIN12AssemblyUtil11InstructionESt6vectorISt10shared_ptrIN15InstructionUtil14CodePopulationEESaIS7_EEEEE8allocateERSB_m
000000000002e128 W _ZNSt16allocator_traitsISaISt4pairIN12AssemblyUtil11InstructionESt6vectorISt10shared_ptrIN15InstructionUtil14CodePopulationEESaIS7_EEEEE8max_sizeERKSB_
000000000002851d W _ZNSt16allocator_traitsISaISt4pairIN12AssemblyUtil11InstructionESt6vectorISt10shared_ptrIN15InstructionUtil14CodePopulationEESaIS7_EEEEE9constructISA_JSA_EEEvRSB_PT_DpOT0_
0000000000014de9 W _ZNSt16allocator_traitsISaISt4pairINSt7__cxx1112basic_stringIcSt11char_traitsIcESaIcEEEmEEE10deallocateERS8_PS7_m
0000000000011e3b W _ZNSt16allocator_traitsISaISt4pairINSt7__cxx1112basic_stringIcSt11char_traitsIcESaIcEEEmEEE37select_on_container_copy_constructionERKS8_
000000000003165d W _ZNSt16allocator_traitsISaISt4pairINSt7__cxx1112basic_stringIcSt11char_traitsIcESaIcEEEmEEE7destroyIS7_EEvRS8_PT_
0000000000016c19 W _ZNSt16allocator_traitsISaISt4pairINSt7__cxx1112basic_stringIcSt11char_traitsIcESaIcEEEmEEE8allocateERS8_m
00000000000317d7 W _ZNSt16allocator_traitsISaISt4pairINSt7__cxx1112basic_stringIcSt11char_traitsIcESaIcEEEmEEE8max_sizeERKS8_
00000000000311f3 W _ZNSt16allocator_traitsISaISt4pairINSt7__cxx1112basic_stringIcSt11char_traitsIcESaIcEEEmEEE9constructIS7_JS7_EEEvRS8_PT_DpOT0_
0000000000011d73 W _ZNSt16allocator_traitsISaISt6vectorISt10shared_ptrIN12AssemblyUtil12SectionEntryEESaIS4_EEEE10deallocateERS7_PS6_m
0000000000013f81 W _ZNSt16allocator_traitsISaISt6vectorISt10shared_ptrIN12AssemblyUtil12SectionEntryEESaIS4_EEEE7destroyIS6_EEvRS7_PT_
0000000000016324 W _ZNSt16allocator_traitsISaISt6vectorISt10shared_ptrIN12AssemblyUtil12SectionEntryEESaIS4_EEEE8allocateERS7_m
0000000000019d37 W _ZNSt16allocator_traitsISaISt6vectorISt10shared_ptrIN12AssemblyUtil12SectionEntryEESaIS4_EEEE8max_sizeERKS7_
0000000000010e4b W _ZNSt16allocator_traitsISaISt6vectorISt10shared_ptrIN12AssemblyUtil12SectionEntryEESaIS4_EEEE9constructIS6_JRKS6_EEEvRS7_PT_DpOT0_
000000000001be0e W _ZNSt16allocator_traitsISaISt6vectorISt10shared_ptrIN12AssemblyUtil12SectionEntryEESaIS4_EEEE9constructIS6_JS6_EEEvRS7_PT_DpOT0_
0000000000011d07 W _ZNSt16allocator_traitsISaISt6vectorISt10shared_ptrIN12AssemblyUtil16SymbolTableEntryEESaIS4_EEEE10deallocateERS7_PS6_m
0000000000013d1d W _ZNSt16allocator_traitsISaISt6vectorISt10shared_ptrIN12AssemblyUtil16SymbolTableEntryEESaIS4_EEEE7destroyIS6_EEvRS7_PT_
000000000001611e W _ZNSt16allocator_traitsISaISt6vectorISt10shared_ptrIN12AssemblyUtil16SymbolTableEntryEESaIS4_EEEE8allocateERS7_m
0000000000019b9f W _ZNSt16allocator_traitsISaISt6vectorISt10shared_ptrIN12AssemblyUtil16SymbolTableEntryEESaIS4_EEEE8max_sizeERKS7_
0000000000010b92 W _ZNSt16allocator_traitsISaISt6vectorISt10shared_ptrIN12AssemblyUtil16SymbolTableEntryEESaIS4_EEEE9constructIS6_JRKS6_EEEvRS7_PT_DpOT0_
000000000001bd64 W _ZNSt16allocator_traitsISaISt6vectorISt10shared_ptrIN12AssemblyUtil16SymbolTableEntryEESaIS4_EEEE9constructIS6_JS6_EEEvRS7_PT_DpOT0_
0000000000011ddf W _ZNSt16allocator_traitsISaISt6vectorISt10shared_ptrIN12AssemblyUtil20RelocationTableEntryEESaIS4_EEEE10deallocateERS7_PS6_m
00000000000141e5 W _ZNSt16allocator_traitsISaISt6vectorISt10shared_ptrIN12AssemblyUtil20RelocationTableEntryEESaIS4_EEEE7destroyIS6_EEvRS7_PT_
000000000001652a W _ZNSt16allocator_traitsISaISt6vectorISt10shared_ptrIN12AssemblyUtil20RelocationTableEntryEESaIS4_EEEE8allocateERS7_m
0000000000019ecf W _ZNSt16allocator_traitsISaISt6vectorISt10shared_ptrIN12AssemblyUtil20RelocationTableEntryEESaIS4_EEEE8max_sizeERKS7_
0000000000011103 W _ZNSt16allocator_traitsISaISt6vectorISt10shared_ptrIN12AssemblyUtil20RelocationTableEntryEESaIS4_EEEE9constructIS6_JRKS6_EEEvRS7_PT_DpOT0_
000000000001beb8 W _ZNSt16allocator_traitsISaISt6vectorISt10shared_ptrIN12AssemblyUtil20RelocationTableEntryEESaIS4_EEEE9constructIS6_JS6_EEEvRS7_PT_DpOT0_
00000000000116c2 W _ZNSt16_Sp_counted_baseILN9__gnu_cxx12_Lock_policyE2EE10_M_destroyEv
000000000000e882 W _ZNSt16_Sp_counted_baseILN9__gnu_cxx12_Lock_policyE2EE10_M_releaseEv
000000000000f76e W _ZNSt16_Sp_counted_baseILN9__gnu_cxx12_Lock_policyE2EE15_M_add_ref_copyEv
000000000001a954 W _ZNSt16_Sp_counted_baseILN9__gnu_cxx12_Lock_policyE2EEC1Ev
000000000001a954 W _ZNSt16_Sp_counted_baseILN9__gnu_cxx12_Lock_policyE2EEC2Ev
000000000001451e W _ZNSt16_Sp_counted_baseILN9__gnu_cxx12_Lock_policyE2EED0Ev
0000000000014500 W _ZNSt16_Sp_counted_baseILN9__gnu_cxx12_Lock_policyE2EED1Ev
0000000000014500 W _ZNSt16_Sp_counted_baseILN9__gnu_cxx12_Lock_policyE2EED2Ev
00000000000294e4 W _ZNSt17_Rb_tree_iteratorISt4pairIKN10ParserUtil12eOperandTypeESt3mapINS1_15eAddressingTypeESt6vectorIS0_IN12AssemblyUtil11InstructionES6_ISt10shared_ptrIN15InstructionUtil14CodePopulationEESaISC_EEESaISF_EESt4lessIS5_ESaIS0_IKS5_SH_EEEEEC1EPSt18_Rb_tree_node_base
00000000000294e4 W _ZNSt17_Rb_tree_iteratorISt4pairIKN10ParserUtil12eOperandTypeESt3mapINS1_15eAddressingTypeESt6vectorIS0_IN12AssemblyUtil11InstructionES6_ISt10shared_ptrIN15InstructionUtil14CodePopulationEESaISC_EEESaISF_EESt4lessIS5_ESaIS0_IKS5_SH_EEEEEC2EPSt18_Rb_tree_node_base
000000000002b428 W _ZNSt17_Rb_tree_iteratorISt4pairIKN10ParserUtil12eOperandTypeESt3mapINS1_15eAddressingTypeESt6vectorIS0_IN12AssemblyUtil11InstructionES6_ISt10shared_ptrIN15InstructionUtil14CodePopulationEESaISC_EEESaISF_EESt4lessIS5_ESaIS0_IKS5_SH_EEEEEmmEv
000000000002b46a W _ZNSt17_Rb_tree_iteratorISt4pairIKN10ParserUtil12eOperandTypeESt3mapINS1_15eAddressingTypeESt6vectorIS0_IN12AssemblyUtil11InstructionES6_ISt10shared_ptrIN15InstructionUtil14CodePopulationEESaISC_EEESaISF_EESt4lessIS5_ESaIS0_IKS5_SH_EEEEEppEv
0000000000029bb4 W _ZNSt17_Rb_tree_iteratorISt4pairIKN10ParserUtil15eAddressingTypeESt6vectorIS0_IN12AssemblyUtil11InstructionES4_ISt10shared_ptrIN15InstructionUtil14CodePopulationEESaISA_EEESaISD_EEEEC1EPSt18_Rb_tree_node_base
0000000000029bb4 W _ZNSt17_Rb_tree_iteratorISt4pairIKN10ParserUtil15eAddressingTypeESt6vectorIS0_IN12AssemblyUtil11InstructionES4_ISt10shared_ptrIN15InstructionUtil14CodePopulationEESaISA_EEESaISD_EEEEC2EPSt18_Rb_tree_node_base
000000000002b9cc W _ZNSt17_Rb_tree_iteratorISt4pairIKN10ParserUtil15eAddressingTypeESt6vectorIS0_IN12AssemblyUtil11InstructionES4_ISt10shared_ptrIN15InstructionUtil14CodePopulationEESaISA_EEESaISD_EEEEmmEv
000000000002ba0e W _ZNSt17_Rb_tree_iteratorISt4pairIKN10ParserUtil15eAddressingTypeESt6vectorIS0_IN12AssemblyUtil11InstructionES4_ISt10shared_ptrIN15InstructionUtil14CodePopulationEESaISA_EEESaISD_EEEEppEv
0000000000028e14 W _ZNSt17_Rb_tree_iteratorISt4pairIKN10ParserUtil22eInstructionIdentifierESt3mapINS1_12eOperandTypeES4_INS1_15eAddressingTypeESt6vectorIS0_IN12AssemblyUtil11InstructionES7_ISt10shared_ptrIN15InstructionUtil14CodePopulationEESaISD_EEESaISG_EESt4lessIS6_ESaIS0_IKS6_SI_EEESJ_IS5_ESaIS0_IKS5_SO_EEEEEC1EPSt18_Rb_tree_node_base
0000000000028e14 W _ZNSt17_Rb_tree_iteratorISt4pairIKN10ParserUtil22eInstructionIdentifierESt3mapINS1_12eOperandTypeES4_INS1_15eAddressingTypeESt6vectorIS0_IN12AssemblyUtil11InstructionES7_ISt10shared_ptrIN15InstructionUtil14CodePopulationEESaISD_EEESaISG_EESt4lessIS6_ESaIS0_IKS6_SI_EEESJ_IS5_ESaIS0_IKS5_SO_EEEEEC2EPSt18_Rb_tree_node_base
000000000002af16 W _ZNSt17_Rb_tree_iteratorISt4pairIKN10ParserUtil22eInstructionIdentifierESt3mapINS1_12eOperandTypeES4_INS1_15eAddressingTypeESt6vectorIS0_IN12AssemblyUtil11InstructionES7_ISt10shared_ptrIN15InstructionUtil14CodePopulationEESaISD_EEESaISG_EESt4lessIS6_ESaIS0_IKS6_SI_EEESJ_IS5_ESaIS0_IKS5_SO_EEEEEmmEv
000000000002af42 W _ZNSt17_Rb_tree_iteratorISt4pairIKN10ParserUtil22eInstructionIdentifierESt3mapINS1_12eOperandTypeES4_INS1_15eAddressingTypeESt6vectorIS0_IN12AssemblyUtil11InstructionES7_ISt10shared_ptrIN15InstructionUtil14CodePopulationEESaISD_EEESaISG_EESt4lessIS6_ESaIS0_IKS6_SI_EEESJ_IS5_ESaIS0_IKS5_SO_EEEEEppEv
00000000000134a0 W _ZNSt17_Rb_tree_iteratorISt4pairIKNSt7__cxx1112basic_stringIcSt11char_traitsIcESaIcEEEN10LinkerUtil15eInputFileStateEEEC1EPSt18_Rb_tree_node_base
00000000000134a0 W _ZNSt17_Rb_tree_iteratorISt4pairIKNSt7__cxx1112basic_stringIcSt11char_traitsIcESaIcEEEN10LinkerUtil15eInputFileStateEEEC2EPSt18_Rb_tree_node_base
0000000000015eaa W _ZNSt17_Rb_tree_iteratorISt4pairIKNSt7__cxx1112basic_stringIcSt11char_traitsIcESaIcEEEN10LinkerUtil15eInputFileStateEEEmmEv
0000000000015ed6 W _ZNSt17_Rb_tree_iteratorISt4pairIKNSt7__cxx1112basic_stringIcSt11char_traitsIcESaIcEEEN10LinkerUtil15eInputFileStateEEEppEv
0000000000012ab0 W _ZNSt17_Rb_tree_iteratorISt4pairIKNSt7__cxx1112basic_stringIcSt11char_traitsIcESaIcEEESt10shared_ptrIN10LinkerUtil16SectionMergeDataEEEEC1EPSt18_Rb_tree_node_base
0000000000012ab0 W _ZNSt17_Rb_tree_iteratorISt4pairIKNSt7__cxx1112basic_stringIcSt11char_traitsIcESaIcEEESt10shared_ptrIN10LinkerUtil16SectionMergeDataEEEEC2EPSt18_Rb_tree_node_base
0000000000015962 W _ZNSt17_Rb_tree_iteratorISt4pairIKNSt7__cxx1112basic_stringIcSt11char_traitsIcESaIcEEESt10shared_ptrIN10LinkerUtil16SectionMergeDataEEEEmmEv
000000000000dd60 W _ZNSt17_Rb_tree_iteratorISt4pairIKNSt7__cxx1112basic_stringIcSt11char_traitsIcESaIcEEESt10shared_ptrIN10LinkerUtil16SectionMergeDataEEEEppEv
000000000000aa5f W _ZNSt19_Sp_make_shared_tag5_S_tiEv
000000000001c8c7 W _ZNSt20__copy_move_backwardILb1ELb0ESt26random_access_iterator_tagE13__copy_move_bIPSt10shared_ptrIN10LinkerUtil16SectionMergeDataEES7_EET0_T_S9_S8_
000000000001c6c0 W _ZNSt20__copy_move_backwardILb1ELb0ESt26random_access_iterator_tagE13__copy_move_bIPSt4pairINSt7__cxx1112basic_stringIcSt11char_traitsIcESaIcEEEmESB_EET0_T_SD_SC_
000000000002f4c6 W _ZNSt20_Rb_tree_key_compareISt4lessIN10ParserUtil12eOperandTypeEEEC1Ev
000000000002f4c6 W _ZNSt20_Rb_tree_key_compareISt4lessIN10ParserUtil12eOperandTypeEEEC2Ev
000000000002f514 W _ZNSt20_Rb_tree_key_compareISt4lessIN10ParserUtil15eAddressingTypeEEEC1Ev
000000000002f514 W _ZNSt20_Rb_tree_key_compareISt4lessIN10ParserUtil15eAddressingTypeEEEC2Ev
0000000000026a9e W _ZNSt20_Rb_tree_key_compareISt4lessIN10ParserUtil22eInstructionIdentifierEEEC1Ev
0000000000026a9e W _ZNSt20_Rb_tree_key_compareISt4lessIN10ParserUtil22eInstructionIdentifierEEEC2Ev
00000000000148fc W _ZNSt20_Rb_tree_key_compareISt4lessINSt7__cxx1112basic_stringIcSt11char_traitsIcESaIcEEEEEC1ERKS7_
000000000001011e W _ZNSt20_Rb_tree_key_compareISt4lessINSt7__cxx1112basic_stringIcSt11char_traitsIcESaIcEEEEEC1Ev
00000000000148fc W _ZNSt20_Rb_tree_key_compareISt4lessINSt7__cxx1112basic_stringIcSt11char_traitsIcESaIcEEEEEC2ERKS7_
000000000001011e W _ZNSt20_Rb_tree_key_compareISt4lessINSt7__cxx1112basic_stringIcSt11char_traitsIcESaIcEEEEEC2Ev
0000000000014fd5 W _ZNSt20__uninitialized_copyILb0EE13__uninit_copyIN9__gnu_cxx17__normal_iteratorIPKNSt7__cxx1112basic_stringIcSt11char_traitsIcESaIcEEESt6vectorIS9_SaIS9_EEEEPS9_EET0_T_SI_SH_
000000000001afec W _ZNSt20__uninitialized_copyILb0EE13__uninit_copyIN9__gnu_cxx17__normal_iteratorIPKSt10shared_ptrIN12AssemblyUtil12SectionEntryEESt6vectorIS7_SaIS7_EEEEPS7_EET0_T_SG_SF_
000000000001aecc W _ZNSt20__uninitialized_copyILb0EE13__uninit_copyIN9__gnu_cxx17__normal_iteratorIPKSt10shared_ptrIN12AssemblyUtil16SymbolTableEntryEESt6vectorIS7_SaIS7_EEEEPS7_EET0_T_SG_SF_
000000000001b10c W _ZNSt20__uninitialized_copyILb0EE13__uninit_copyIN9__gnu_cxx17__normal_iteratorIPKSt10shared_ptrIN12AssemblyUtil20RelocationTableEntryEESt6vectorIS7_SaIS7_EEEEPS7_EET0_T_SG_SF_
000000000002c302 W _ZNSt20__uninitialized_copyILb0EE13__uninit_copyIN9__gnu_cxx17__normal_iteratorIPKSt10shared_ptrIN15InstructionUtil14CodePopulationEESt6vectorIS7_SaIS7_EEEEPS7_EET0_T_SG_SF_
000000000002bede W _ZNSt20__uninitialized_copyILb0EE13__uninit_copyIN9__gnu_cxx17__normal_iteratorIPKSt4pairIN12AssemblyUtil11InstructionESt6vectorISt10shared_ptrIN15InstructionUtil14CodePopulationEESaISB_EEES7_ISE_SaISE_EEEEPSE_EET0_T_SM_SL_
0000000000014e1b W _ZNSt20__uninitialized_copyILb0EE13__uninit_copyIN9__gnu_cxx17__normal_iteratorIPKSt4pairINSt7__cxx1112basic_stringIcSt11char_traitsIcESaIcEEEmESt6vectorISB_SaISB_EEEEPSB_EET0_T_SK_SJ_
000000000002cda4 W _ZNSt20__uninitialized_copyILb0EE13__uninit_copyIPKSt4pairIMN12AssemblyUtil11InstructionEFvtEN15InstructionUtil11eValueToUseEEPS9_EET0_T_SE_SD_
000000000002faf4 W _ZNSt20__uninitialized_copyILb0EE13__uninit_copyIPSt10shared_ptrIN15InstructionUtil14CodePopulationEES6_EET0_T_S8_S7_
000000000002bcd1 W _ZNSt20__uninitialized_copyILb0EE13__uninit_copyIPSt4pairIN12AssemblyUtil11InstructionESt6vectorISt10shared_ptrIN15InstructionUtil14CodePopulationEESaIS9_EEESD_EET0_T_SF_SE_
000000000002209d W _ZNSt20__uninitialized_copyILb1EE13__uninit_copyIN9__gnu_cxx17__normal_iteratorIPKhSt6vectorIhSaIhEEEEPhEET0_T_SC_SB_
000000000002f96e W _ZNSt20__uninitialized_copyILb1EE13__uninit_copyIPhS2_EET0_T_S4_S3_
000000000002213a W _ZNSt20__uninitialized_copyILb1EE13__uninit_copyIPKhPhEET0_T_S6_S5_
0000000000027410 W _ZNSt23_Rb_tree_const_iteratorISt4pairIKN10ParserUtil12eOperandTypeESt3mapINS1_15eAddressingTypeESt6vectorIS0_IN12AssemblyUtil11InstructionES6_ISt10shared_ptrIN15InstructionUtil14CodePopulationEESaISC_EEESaISF_EESt4lessIS5_ESaIS0_IKS5_SH_EEEEEC1ERKSt17_Rb_tree_iteratorISO_E
0000000000027410 W _ZNSt23_Rb_tree_const_iteratorISt4pairIKN10ParserUtil12eOperandTypeESt3mapINS1_15eAddressingTypeESt6vectorIS0_IN12AssemblyUtil11InstructionES6_ISt10shared_ptrIN15InstructionUtil14CodePopulationEESaISC_EEESaISF_EESt4lessIS5_ESaIS0_IKS5_SH_EEEEEC2ERKSt17_Rb_tree_iteratorISO_E
0000000000027682 W _ZNSt23_Rb_tree_const_iteratorISt4pairIKN10ParserUtil15eAddressingTypeESt6vectorIS0_IN12AssemblyUtil11InstructionES4_ISt10shared_ptrIN15InstructionUtil14CodePopulationEESaISA_EEESaISD_EEEEC1ERKSt17_Rb_tree_iteratorISG_E
0000000000027682 W _ZNSt23_Rb_tree_const_iteratorISt4pairIKN10ParserUtil15eAddressingTypeESt6vectorIS0_IN12AssemblyUtil11InstructionES4_ISt10shared_ptrIN15InstructionUtil14CodePopulationEESaISA_EEESaISD_EEEEC2ERKSt17_Rb_tree_iteratorISG_E
000000000002719e W _ZNSt23_Rb_tree_const_iteratorISt4pairIKN10ParserUtil22eInstructionIdentifierESt3mapINS1_12eOperandTypeES4_INS1_15eAddressingTypeESt6vectorIS0_IN12AssemblyUtil11InstructionES7_ISt10shared_ptrIN15InstructionUtil14CodePopulationEESaISD_EEESaISG_EESt4lessIS6_ESaIS0_IKS6_SI_EEESJ_IS5_ESaIS0_IKS5_SO_EEEEEC1ERKSt17_Rb_tree_iteratorISU_E
000000000002719e W _ZNSt23_Rb_tree_const_iteratorISt4pairIKN10ParserUtil22eInstructionIdentifierESt3mapINS1_12eOperandTypeES4_INS1_15eAddressingTypeESt6vectorIS0_IN12AssemblyUtil11InstructionES7_ISt10shared_ptrIN15InstructionUtil14CodePopulationEESaISD_EEESaISG_EESt4lessIS6_ESaIS0_IKS6_SI_EEESJ_IS5_ESaIS0_IKS5_SO_EEEEEC2ERKSt17_Rb_tree_iteratorISU_E
0000000000010a2a W _ZNSt23_Rb_tree_const_iteratorISt4pairIKNSt7__cxx1112basic_stringIcSt11char_traitsIcESaIcEEEN10LinkerUtil15eInputFileStateEEEC1ERKSt17_Rb_tree_iteratorISA_E
0000000000010a2a W _ZNSt23_Rb_tree_const_iteratorISt4pairIKNSt7__cxx1112basic_stringIcSt11char_traitsIcESaIcEEEN10LinkerUtil15eInputFileStateEEEC2ERKSt17_Rb_tree_iteratorISA_E
0000000000010468 W _ZNSt23_Rb_tree_const_iteratorISt4pairIKNSt7__cxx1112basic_stringIcSt11char_traitsIcESaIcEEESt10shared_ptrIN10LinkerUtil16SectionMergeDataEEEEC1ERKSt17_Rb_tree_iteratorISC_E
0000000000010468 W _ZNSt23_Rb_tree_const_iteratorISt4pairIKNSt7__cxx1112basic_stringIcSt11char_traitsIcESaIcEEESt10shared_ptrIN10LinkerUtil16SectionMergeDataEEEEC2ERKSt17_Rb_tree_iteratorISC_E
000000000001d4d8 W _ZNSt23_Sp_counted_ptr_inplaceIN10LinkerUtil16SectionMergeDataESaIS1_ELN9__gnu_cxx12_Lock_policyE2EE10_M_destroyEv
000000000001d496 W _ZNSt23_Sp_counted_ptr_inplaceIN10LinkerUtil16SectionMergeDataESaIS1_ELN9__gnu_cxx12_Lock_policyE2EE10_M_disposeEv
000000000001d56a W _ZNSt23_Sp_counted_ptr_inplaceIN10LinkerUtil16SectionMergeDataESaIS1_ELN9__gnu_cxx12_Lock_policyE2EE14_M_get_deleterERKSt9type_info
000000000001d808 W _ZNSt23_Sp_counted_ptr_inplaceIN10LinkerUtil16SectionMergeDataESaIS1_ELN9__gnu_cxx12_Lock_policyE2EE5_Impl8_M_allocEv
000000000001ac22 W _ZNSt23_Sp_counted_ptr_inplaceIN10LinkerUtil16SectionMergeDataESaIS1_ELN9__gnu_cxx12_Lock_policyE2EE5_ImplC1ES2_
000000000001ac22 W _ZNSt23_Sp_counted_ptr_inplaceIN10LinkerUtil16SectionMergeDataESaIS1_ELN9__gnu_cxx12_Lock_policyE2EE5_ImplC2ES2_
000000000001937e W _ZNSt23_Sp_counted_ptr_inplaceIN10LinkerUtil16SectionMergeDataESaIS1_ELN9__gnu_cxx12_Lock_policyE2EE5_ImplD1Ev
000000000001937e W _ZNSt23_Sp_counted_ptr_inplaceIN10LinkerUtil16SectionMergeDataESaIS1_ELN9__gnu_cxx12_Lock_policyE2EE5_ImplD2Ev
000000000001946e W _ZNSt23_Sp_counted_ptr_inplaceIN10LinkerUtil16SectionMergeDataESaIS1_ELN9__gnu_cxx12_Lock_policyE2EE6_M_ptrEv
000000000001939e W _ZNSt23_Sp_counted_ptr_inplaceIN10LinkerUtil16SectionMergeDataESaIS1_ELN9__gnu_cxx12_Lock_policyE2EEC1IJEEES2_DpOT_
000000000001939e W _ZNSt23_Sp_counted_ptr_inplaceIN10LinkerUtil16SectionMergeDataESaIS1_ELN9__gnu_cxx12_Lock_policyE2EEC2IJEEES2_DpOT_
000000000001d466 W _ZNSt23_Sp_counted_ptr_inplaceIN10LinkerUtil16SectionMergeDataESaIS1_ELN9__gnu_cxx12_Lock_policyE2EED0Ev
000000000001d428 W _ZNSt23_Sp_counted_ptr_inplaceIN10LinkerUtil16SectionMergeDataESaIS1_ELN9__gnu_cxx12_Lock_policyE2EED1Ev
000000000001d428 W _ZNSt23_Sp_counted_ptr_inplaceIN10LinkerUtil16SectionMergeDataESaIS1_ELN9__gnu_cxx12_Lock_policyE2EED2Ev
000000000001d680 W _ZNSt23_Sp_counted_ptr_inplaceIN12AssemblyUtil12SectionEntryESaIS1_ELN9__gnu_cxx12_Lock_policyE2EE10_M_destroyEv
000000000001d63e W _ZNSt23_Sp_counted_ptr_inplaceIN12AssemblyUtil12SectionEntryESaIS1_ELN9__gnu_cxx12_Lock_policyE2EE10_M_disposeEv
000000000001d712 W _ZNSt23_Sp_counted_ptr_inplaceIN12AssemblyUtil12SectionEntryESaIS1_ELN9__gnu_cxx12_Lock_policyE2EE14_M_get_deleterERKSt9type_info
000000000001d850 W _ZNSt23_Sp_counted_ptr_inplaceIN12AssemblyUtil12SectionEntryESaIS1_ELN9__gnu_cxx12_Lock_policyE2EE5_Impl8_M_allocEv
000000000001a988 W _ZNSt23_Sp_counted_ptr_inplaceIN12AssemblyUtil12SectionEntryESaIS1_ELN9__gnu_cxx12_Lock_policyE2EE5_ImplC1ES2_
000000000001a988 W _ZNSt23_Sp_counted_ptr_inplaceIN12AssemblyUtil12SectionEntryESaIS1_ELN9__gnu_cxx12_Lock_policyE2EE5_ImplC2ES2_
0000000000018ece W _ZNSt23_Sp_counted_ptr_inplaceIN12AssemblyUtil12SectionEntryESaIS1_ELN9__gnu_cxx12_Lock_policyE2EE5_ImplD1Ev
0000000000018ece W _ZNSt23_Sp_counted_ptr_inplaceIN12AssemblyUtil12SectionEntryESaIS1_ELN9__gnu_cxx12_Lock_policyE2EE5_ImplD2Ev
0000000000018fbe W _ZNSt23_Sp_counted_ptr_inplaceIN12AssemblyUtil12SectionEntryESaIS1_ELN9__gnu_cxx12_Lock_policyE2EE6_M_ptrEv
0000000000018eee W _ZNSt23_Sp_counted_ptr_inplaceIN12AssemblyUtil12SectionEntryESaIS1_ELN9__gnu_cxx12_Lock_policyE2EEC1IJEEES2_DpOT_
0000000000018eee W _ZNSt23_Sp_counted_ptr_inplaceIN12AssemblyUtil12SectionEntryESaIS1_ELN9__gnu_cxx12_Lock_policyE2EEC2IJEEES2_DpOT_
000000000001d60e W _ZNSt23_Sp_counted_ptr_inplaceIN12AssemblyUtil12SectionEntryESaIS1_ELN9__gnu_cxx12_Lock_policyE2EED0Ev
000000000001d5d0 W _ZNSt23_Sp_counted_ptr_inplaceIN12AssemblyUtil12SectionEntryESaIS1_ELN9__gnu_cxx12_Lock_policyE2EED1Ev
000000000001d5d0 W _ZNSt23_Sp_counted_ptr_inplaceIN12AssemblyUtil12SectionEntryESaIS1_ELN9__gnu_cxx12_Lock_policyE2EED2Ev
000000000001d330 W _ZNSt23_Sp_counted_ptr_inplaceIN12AssemblyUtil16SymbolTableEntryESaIS1_ELN9__gnu_cxx12_Lock_policyE2EE10_M_destroyEv
000000000001d2ee W _ZNSt23_Sp_counted_ptr_inplaceIN12AssemblyUtil16SymbolTableEntryESaIS1_ELN9__gnu_cxx12_Lock_policyE2EE10_M_disposeEv
000000000001d3c2 W _ZNSt23_Sp_counted_ptr_inplaceIN12AssemblyUtil16SymbolTableEntryESaIS1_ELN9__gnu_cxx12_Lock_policyE2EE14_M_get_deleterERKSt9type_info
000000000001d7c0 W _ZNSt23_Sp_counted_ptr_inplaceIN12AssemblyUtil16SymbolTableEntryESaIS1_ELN9__gnu_cxx12_Lock_policyE2EE5_Impl8_M_allocEv
000000000001b2e2 W _ZNSt23_Sp_counted_ptr_inplaceIN12AssemblyUtil16SymbolTableEntryESaIS1_ELN9__gnu_cxx12_Lock_policyE2EE5_ImplC1ES2_
000000000001b2e2 W _ZNSt23_Sp_counted_ptr_inplaceIN12AssemblyUtil16SymbolTableEntryESaIS1_ELN9__gnu_cxx12_Lock_policyE2EE5_ImplC2ES2_
000000000001a0a4 W _ZNSt23_Sp_counted_ptr_inplaceIN12AssemblyUtil16SymbolTableEntryESaIS1_ELN9__gnu_cxx12_Lock_policyE2EE5_ImplD1Ev
000000000001a0a4 W _ZNSt23_Sp_counted_ptr_inplaceIN12AssemblyUtil16SymbolTableEntryESaIS1_ELN9__gnu_cxx12_Lock_policyE2EE5_ImplD2Ev
000000000001a1c2 W _ZNSt23_Sp_counted_ptr_inplaceIN12AssemblyUtil16SymbolTableEntryESaIS1_ELN9__gnu_cxx12_Lock_policyE2EE6_M_ptrEv
000000000001a0c4 W _ZNSt23_Sp_counted_ptr_inplaceIN12AssemblyUtil16SymbolTableEntryESaIS1_ELN9__gnu_cxx12_Lock_policyE2EEC1IJEEES2_DpOT_
0000000000020c70 W _ZNSt23_Sp_counted_ptr_inplaceIN12AssemblyUtil16SymbolTableEntryESaIS1_ELN9__gnu_cxx12_Lock_policyE2EEC1IJRNSt7__cxx1112basic_stringIcSt11char_traitsIcESaIcEEESD_RiRbSF_SE_EEES2_DpOT_
000000000001a0c4 W _ZNSt23_Sp_counted_ptr_inplaceIN12AssemblyUtil16SymbolTableEntryESaIS1_ELN9__gnu_cxx12_Lock_policyE2EEC2IJEEES2_DpOT_
0000000000020c70 W _ZNSt23_Sp_counted_ptr_inplaceIN12AssemblyUtil16SymbolTableEntryESaIS1_ELN9__gnu_cxx12_Lock_policyE2EEC2IJRNSt7__cxx1112basic_stringIcSt11char_traitsIcESaIcEEESD_RiRbSF_SE_EEES2_DpOT_
000000000001d2be W _ZNSt23_Sp_counted_ptr_inplaceIN12AssemblyUtil16SymbolTableEntryESaIS1_ELN9__gnu_cxx12_Lock_policyE2EED0Ev
000000000001d280 W _ZNSt23_Sp_counted_ptr_inplaceIN12AssemblyUtil16SymbolTableEntryESaIS1_ELN9__gnu_cxx12_Lock_policyE2EED1Ev
000000000001d280 W _ZNSt23_Sp_counted_ptr_inplaceIN12AssemblyUtil16SymbolTableEntryESaIS1_ELN9__gnu_cxx12_Lock_policyE2EED2Ev
000000000001d188 W _ZNSt23_Sp_counted_ptr_inplaceIN12AssemblyUtil20RelocationTableEntryESaIS1_ELN9__gnu_cxx12_Lock_policyE2EE10_M_destroyEv
000000000001d146 W _ZNSt23_Sp_counted_ptr_inplaceIN12AssemblyUtil20RelocationTableEntryESaIS1_ELN9__gnu_cxx12_Lock_policyE2EE10_M_disposeEv
000000000001d21a W _ZNSt23_Sp_counted_ptr_inplaceIN12AssemblyUtil20RelocationTableEntryESaIS1_ELN9__gnu_cxx12_Lock_policyE2EE14_M_get_deleterERKSt9type_info
000000000001d778 W _ZNSt23_Sp_counted_ptr_inplaceIN12AssemblyUtil20RelocationTableEntryESaIS1_ELN9__gnu_cxx12_Lock_policyE2EE5_Impl8_M_allocEv
000000000001b4b8 W _ZNSt23_Sp_counted_ptr_inplaceIN12AssemblyUtil20RelocationTableEntryESaIS1_ELN9__gnu_cxx12_Lock_policyE2EE5_ImplC1ES2_
000000000001b4b8 W _ZNSt23_Sp_counted_ptr_inplaceIN12AssemblyUtil20RelocationTableEntryESaIS1_ELN9__gnu_cxx12_Lock_policyE2EE5_ImplC2ES2_
000000000001a49c W _ZNSt23_Sp_counted_ptr_inplaceIN12AssemblyUtil20RelocationTableEntryESaIS1_ELN9__gnu_cxx12_Lock_policyE2EE5_ImplD1Ev
000000000001a49c W _ZNSt23_Sp_counted_ptr_inplaceIN12AssemblyUtil20RelocationTableEntryESaIS1_ELN9__gnu_cxx12_Lock_policyE2EE5_ImplD2Ev
000000000001a58c W _ZNSt23_Sp_counted_ptr_inplaceIN12AssemblyUtil20RelocationTableEntryESaIS1_ELN9__gnu_cxx12_Lock_policyE2EE6_M_ptrEv
000000000001a4bc W _ZNSt23_Sp_counted_ptr_inplaceIN12AssemblyUtil20RelocationTableEntryESaIS1_ELN9__gnu_cxx12_Lock_policyE2EEC1IJEEES2_DpOT_
000000000001a4bc W _ZNSt23_Sp_counted_ptr_inplaceIN12AssemblyUtil20RelocationTableEntryESaIS1_ELN9__gnu_cxx12_Lock_policyE2EEC2IJEEES2_DpOT_
000000000001d116 W _ZNSt23_Sp_counted_ptr_inplaceIN12AssemblyUtil20RelocationTableEntryESaIS1_ELN9__gnu_cxx12_Lock_policyE2EED0Ev
000000000001d0d8 W _ZNSt23_Sp_counted_ptr_inplaceIN12AssemblyUtil20RelocationTableEntryESaIS1_ELN9__gnu_cxx12_Lock_policyE2EED1Ev
000000000001d0d8 W _ZNSt23_Sp_counted_ptr_inplaceIN12AssemblyUtil20RelocationTableEntryESaIS1_ELN9__gnu_cxx12_Lock_policyE2EED2Ev
000000000002ff9a W _ZNSt23_Sp_counted_ptr_inplaceIN15InstructionUtil14CodePopulationESaIS1_ELN9__gnu_cxx12_Lock_policyE2EE10_M_destroyEv
000000000002ff58 W _ZNSt23_Sp_counted_ptr_inplaceIN15InstructionUtil14CodePopulationESaIS1_ELN9__gnu_cxx12_Lock_policyE2EE10_M_disposeEv
000000000003002c W _ZNSt23_Sp_counted_ptr_inplaceIN15InstructionUtil14CodePopulationESaIS1_ELN9__gnu_cxx12_Lock_policyE2EE14_M_get_deleterERKSt9type_info
0000000000030092 W _ZNSt23_Sp_counted_ptr_inplaceIN15InstructionUtil14CodePopulationESaIS1_ELN9__gnu_cxx12_Lock_policyE2EE5_Impl8_M_allocEv
000000000002e066 W _ZNSt23_Sp_counted_ptr_inplaceIN15InstructionUtil14CodePopulationESaIS1_ELN9__gnu_cxx12_Lock_policyE2EE5_ImplC1ES2_
000000000002e066 W _ZNSt23_Sp_counted_ptr_inplaceIN15InstructionUtil14CodePopulationESaIS1_ELN9__gnu_cxx12_Lock_policyE2EE5_ImplC2ES2_
000000000002d27e W _ZNSt23_Sp_counted_ptr_inplaceIN15InstructionUtil14CodePopulationESaIS1_ELN9__gnu_cxx12_Lock_policyE2EE5_ImplD1Ev
000000000002d27e W _ZNSt23_Sp_counted_ptr_inplaceIN15InstructionUtil14CodePopulationESaIS1_ELN9__gnu_cxx12_Lock_policyE2EE5_ImplD2Ev
000000000002d3ca W _ZNSt23_Sp_counted_ptr_inplaceIN15InstructionUtil14CodePopulationESaIS1_ELN9__gnu_cxx12_Lock_policyE2EE6_M_ptrEv
000000000002d29e W _ZNSt23_Sp_counted_ptr_inplaceIN15InstructionUtil14CodePopulationESaIS1_ELN9__gnu_cxx12_Lock_policyE2EEC1IJRMN12AssemblyUtil11InstructionEFvtERNS0_11eValueToUseEEEES2_DpOT_
000000000002d29e W _ZNSt23_Sp_counted_ptr_inplaceIN15InstructionUtil14CodePopulationESaIS1_ELN9__gnu_cxx12_Lock_policyE2EEC2IJRMN12AssemblyUtil11InstructionEFvtERNS0_11eValueToUseEEEES2_DpOT_
000000000002ff28 W _ZNSt23_Sp_counted_ptr_inplaceIN15InstructionUtil14CodePopulationESaIS1_ELN9__gnu_cxx12_Lock_policyE2EED0Ev
000000000002feea W _ZNSt23_Sp_counted_ptr_inplaceIN15InstructionUtil14CodePopulationESaIS1_ELN9__gnu_cxx12_Lock_policyE2EED1Ev
000000000002feea W _ZNSt23_Sp_counted_ptr_inplaceIN15InstructionUtil14CodePopulationESaIS1_ELN9__gnu_cxx12_Lock_policyE2EED2Ev
000000000003539c W _ZNSt27_Enable_default_constructorILb1ENSt8__detail15_Hash_node_baseEEC1ESt31_Enable_default_constructor_tag
000000000003539c W _ZNSt27_Enable_default_constructorILb1ENSt8__detail15_Hash_node_baseEEC2ESt31_Enable_default_constructor_tag
0000000000027306 W _ZNSt3mapIN10ParserUtil12eOperandTypeES_INS0_15eAddressingTypeESt6vectorISt4pairIN12AssemblyUtil11InstructionES3_ISt10shared_ptrIN15InstructionUtil14CodePopulationEESaISA_EEESaISD_EESt4lessIS2_ESaIS4_IKS2_SF_EEESG_IS1_ESaIS4_IKS1_SL_EEE11lower_boundERSN_
0000000000027330 W _ZNSt3mapIN10ParserUtil12eOperandTypeES_INS0_15eAddressingTypeESt6vectorISt4pairIN12AssemblyUtil11InstructionES3_ISt10shared_ptrIN15InstructionUtil14CodePopulationEESaISA_EEESaISD_EESt4lessIS2_ESaIS4_IKS2_SF_EEESG_IS1_ESaIS4_IKS1_SL_EEE3endEv
000000000002e6d0 W _ZNSt3mapIN10ParserUtil12eOperandTypeES_INS0_15eAddressingTypeESt6vectorISt4pairIN12AssemblyUtil11InstructionES3_ISt10shared_ptrIN15InstructionUtil14CodePopulationEESaISA_EEESaISD_EESt4lessIS2_ESaIS4_IKS2_SF_EEESG_IS1_ESaIS4_IKS1_SL_EEEC1Ev
000000000002e6d0 W _ZNSt3mapIN10ParserUtil12eOperandTypeES_INS0_15eAddressingTypeESt6vectorISt4pairIN12AssemblyUtil11InstructionES3_ISt10shared_ptrIN15InstructionUtil14CodePopulationEESaISA_EEESaISD_EESt4lessIS2_ESaIS4_IKS2_SF_EEESG_IS1_ESaIS4_IKS1_SL_EEEC2Ev
000000000002cefa W _ZNSt3mapIN10ParserUtil12eOperandTypeES_INS0_15eAddressingTypeESt6vectorISt4pairIN12AssemblyUtil11InstructionES3_ISt10shared_ptrIN15InstructionUtil14CodePopulationEESaISA_EEESaISD_EESt4lessIS2_ESaIS4_IKS2_SF_EEESG_IS1_ESaIS4_IKS1_SL_EEED1Ev
000000000002cefa W _ZNSt3mapIN10ParserUtil12eOperandTypeES_INS0_15eAddressingTypeESt6vectorISt4pairIN12AssemblyUtil11InstructionES3_ISt10shared_ptrIN15InstructionUtil14CodePopulationEESaISA_EEESaISD_EESt4lessIS2_ESaIS4_IKS2_SF_EEESG_IS1_ESaIS4_IKS1_SL_EEED2Ev
000000000002614c W _ZNSt3mapIN10ParserUtil12eOperandTypeES_INS0_15eAddressingTypeESt6vectorISt4pairIN12AssemblyUtil11InstructionES3_ISt10shared_ptrIN15InstructionUtil14CodePopulationEESaISA_EEESaISD_EESt4lessIS2_ESaIS4_IKS2_SF_EEESG_IS1_ESaIS4_IKS1_SL_EEEixERSN_
0000000000027578 W _ZNSt3mapIN10ParserUtil15eAddressingTypeESt6vectorISt4pairIN12AssemblyUtil11InstructionES2_ISt10shared_ptrIN15InstructionUtil14CodePopulationEESaIS9_EEESaISC_EESt4lessIS1_ESaIS3_IKS1_SE_EEE11lower_boundERSH_
00000000000275a2 W _ZNSt3mapIN10ParserUtil15eAddressingTypeESt6vectorISt4pairIN12AssemblyUtil11InstructionES2_ISt10shared_ptrIN15InstructionUtil14CodePopulationEESaIS9_EEESaISC_EESt4lessIS1_ESaIS3_IKS1_SE_EEE3endEv
000000000002e78c W _ZNSt3mapIN10ParserUtil15eAddressingTypeESt6vectorISt4pairIN12AssemblyUtil11InstructionES2_ISt10shared_ptrIN15InstructionUtil14CodePopulationEESaIS9_EEESaISC_EESt4lessIS1_ESaIS3_IKS1_SE_EEEC1Ev
000000000002e78c W _ZNSt3mapIN10ParserUtil15eAddressingTypeESt6vectorISt4pairIN12AssemblyUtil11InstructionES2_ISt10shared_ptrIN15InstructionUtil14CodePopulationEESaIS9_EEESaISC_EESt4lessIS1_ESaIS3_IKS1_SE_EEEC2Ev
000000000002da46 W _ZNSt3mapIN10ParserUtil15eAddressingTypeESt6vectorISt4pairIN12AssemblyUtil11InstructionES2_ISt10shared_ptrIN15InstructionUtil14CodePopulationEESaIS9_EEESaISC_EESt4lessIS1_ESaIS3_IKS1_SE_EEED1Ev
000000000002da46 W _ZNSt3mapIN10ParserUtil15eAddressingTypeESt6vectorISt4pairIN12AssemblyUtil11InstructionES2_ISt10shared_ptrIN15InstructionUtil14CodePopulationEESaIS9_EEESaISC_EESt4lessIS1_ESaIS3_IKS1_SE_EEED2Ev
000000000002626c W _ZNSt3mapIN10ParserUtil15eAddressingTypeESt6vectorISt4pairIN12AssemblyUtil11InstructionES2_ISt10shared_ptrIN15InstructionUtil14CodePopulationEESaIS9_EEESaISC_EESt4lessIS1_ESaIS3_IKS1_SE_EEEixERSH_
0000000000027094 W _ZNSt3mapIN10ParserUtil22eInstructionIdentifierES_INS0_12eOperandTypeES_INS0_15eAddressingTypeESt6vectorISt4pairIN12AssemblyUtil11InstructionES4_ISt10shared_ptrIN15InstructionUtil14CodePopulationEESaISB_EEESaISE_EESt4lessIS3_ESaIS5_IKS3_SG_EEESH_IS2_ESaIS5_IKS2_SM_EEESH_IS1_ESaIS5_IKS1_SR_EEE11lower_boundERST_
00000000000270be W _ZNSt3mapIN10ParserUtil22eInstructionIdentifierES_INS0_12eOperandTypeES_INS0_15eAddressingTypeESt6vectorISt4pairIN12AssemblyUtil11InstructionES4_ISt10shared_ptrIN15InstructionUtil14CodePopulationEESaISB_EEESaISE_EESt4lessIS3_ESaIS5_IKS3_SG_EEESH_IS2_ESaIS5_IKS2_SM_EEESH_IS1_ESaIS5_IKS1_SR_EEE3endEv
00000000000258a4 W _ZNSt3mapIN10ParserUtil22eInstructionIdentifierES_INS0_12eOperandTypeES_INS0_15eAddressingTypeESt6vectorISt4pairIN12AssemblyUtil11InstructionES4_ISt10shared_ptrIN15InstructionUtil14CodePopulationEESaISB_EEESaISE_EESt4lessIS3_ESaIS5_IKS3_SG_EEESH_IS2_ESaIS5_IKS2_SM_EEESH_IS1_ESaIS5_IKS1_SR_EEEC1Ev
00000000000258a4 W _ZNSt3mapIN10ParserUtil22eInstructionIdentifierES_INS0_12eOperandTypeES_INS0_15eAddressingTypeESt6vectorISt4pairIN12AssemblyUtil11InstructionES4_ISt10shared_ptrIN15InstructionUtil14CodePopulationEESaISB_EEESaISE_EESt4lessIS3_ESaIS5_IKS3_SG_EEESH_IS2_ESaIS5_IKS2_SM_EEESH_IS1_ESaIS5_IKS1_SR_EEEC2Ev
000000000002feca W _ZNSt3mapIN10ParserUtil22eInstructionIdentifierES_INS0_12eOperandTypeES_INS0_15eAddressingTypeESt6vectorISt4pairIN12AssemblyUtil11InstructionES4_ISt10shared_ptrIN15InstructionUtil14CodePopulationEESaISB_EEESaISE_EESt4lessIS3_ESaIS5_IKS3_SG_EEESH_IS2_ESaIS5_IKS2_SM_EEESH_IS1_ESaIS5_IKS1_SR_EEED1Ev
000000000002feca W _ZNSt3mapIN10ParserUtil22eInstructionIdentifierES_INS0_12eOperandTypeES_INS0_15eAddressingTypeESt6vectorISt4pairIN12AssemblyUtil11InstructionES4_ISt10shared_ptrIN15InstructionUtil14CodePopulationEESaISB_EEESaISE_EESt4lessIS3_ESaIS5_IKS3_SG_EEESH_IS2_ESaIS5_IKS2_SM_EEESH_IS1_ESaIS5_IKS1_SR_EEED2Ev
000000000002602c W _ZNSt3mapIN10ParserUtil22eInstructionIdentifierES_INS0_12eOperandTypeES_INS0_15eAddressingTypeESt6vectorISt4pairIN12AssemblyUtil11InstructionES4_ISt10shared_ptrIN15InstructionUtil14CodePopulationEESaISB_EEESaISE_EESt4lessIS3_ESaIS5_IKS3_SG_EEESH_IS2_ESaIS5_IKS2_SM_EEESH_IS1_ESaIS5_IKS1_SR_EEEixERST_
0000000000010992 W _ZNSt3mapINSt7__cxx1112basic_stringIcSt11char_traitsIcESaIcEEEN10LinkerUtil15eInputFileStateESt4lessIS5_ESaISt4pairIKS5_S7_EEE11lower_boundERSB_
000000000000dfc0 W _ZNSt3mapINSt7__cxx1112basic_stringIcSt11char_traitsIcESaIcEEEN10LinkerUtil15eInputFileStateESt4lessIS5_ESaISt4pairIKS5_S7_EEE3endEv
000000000000df96 W _ZNSt3mapINSt7__cxx1112basic_stringIcSt11char_traitsIcESaIcEEEN10LinkerUtil15eInputFileStateESt4lessIS5_ESaISt4pairIKS5_S7_EEE4findERSB_
000000000000bc06 W _ZNSt3mapINSt7__cxx1112basic_stringIcSt11char_traitsIcESaIcEEEN10LinkerUtil15eInputFileStateESt4lessIS5_ESaISt4pairIKS5_S7_EEEC1ESt16initializer_listISC_ERKS9_RKSD_
000000000000bc06 W _ZNSt3mapINSt7__cxx1112basic_stringIcSt11char_traitsIcESaIcEEEN10LinkerUtil15eInputFileStateESt4lessIS5_ESaISt4pairIKS5_S7_EEEC2ESt16initializer_listISC_ERKS9_RKSD_
000000000001d0b8 W _ZNSt3mapINSt7__cxx1112basic_stringIcSt11char_traitsIcESaIcEEEN10LinkerUtil15eInputFileStateESt4lessIS5_ESaISt4pairIKS5_S7_EEED1Ev
000000000001d0b8 W _ZNSt3mapINSt7__cxx1112basic_stringIcSt11char_traitsIcESaIcEEEN10LinkerUtil15eInputFileStateESt4lessIS5_ESaISt4pairIKS5_S7_EEED2Ev
000000000000e004 W _ZNSt3mapINSt7__cxx1112basic_stringIcSt11char_traitsIcESaIcEEEN10LinkerUtil15eInputFileStateESt4lessIS5_ESaISt4pairIKS5_S7_EEEixERSB_
00000000000103c0 W _ZNSt3mapINSt7__cxx1112basic_stringIcSt11char_traitsIcESaIcEEESt10shared_ptrIN10LinkerUtil16SectionMergeDataEESt4lessIS5_ESaISt4pairIKS5_S9_EEE11lower_boundERSD_
000000000000dac0 W _ZNSt3mapINSt7__cxx1112basic_stringIcSt11char_traitsIcESaIcEEESt10shared_ptrIN10LinkerUtil16SectionMergeDataEESt4lessIS5_ESaISt4pairIKS5_S9_EEE3endEv
000000000000da96 W _ZNSt3mapINSt7__cxx1112basic_stringIcSt11char_traitsIcESaIcEEESt10shared_ptrIN10LinkerUtil16SectionMergeDataEESt4lessIS5_ESaISt4pairIKS5_S9_EEE4findERSD_
000000000000dd1c W _ZNSt3mapINSt7__cxx1112basic_stringIcSt11char_traitsIcESaIcEEESt10shared_ptrIN10LinkerUtil16SectionMergeDataEESt4lessIS5_ESaISt4pairIKS5_S9_EEE5beginEv
000000000000b5b2 W _ZNSt3mapINSt7__cxx1112basic_stringIcSt11char_traitsIcESaIcEEESt10shared_ptrIN10LinkerUtil16SectionMergeDataEESt4lessIS5_ESaISt4pairIKS5_S9_EEEC1Ev
000000000000b5b2 W _ZNSt3mapINSt7__cxx1112basic_stringIcSt11char_traitsIcESaIcEEESt10shared_ptrIN10LinkerUtil16SectionMergeDataEESt4lessIS5_ESaISt4pairIKS5_S9_EEEC2Ev
000000000000b5d2 W _ZNSt3mapINSt7__cxx1112basic_stringIcSt11char_traitsIcESaIcEEESt10shared_ptrIN10LinkerUtil16SectionMergeDataEESt4lessIS5_ESaISt4pairIKS5_S9_EEED1Ev
000000000000b5d2 W _ZNSt3mapINSt7__cxx1112basic_stringIcSt11char_traitsIcESaIcEEESt10shared_ptrIN10LinkerUtil16SectionMergeDataEESt4lessIS5_ESaISt4pairIKS5_S9_EEED2Ev
000000000000db90 W _ZNSt3mapINSt7__cxx1112basic_stringIcSt11char_traitsIcESaIcEEESt10shared_ptrIN10LinkerUtil16SectionMergeDataEESt4lessIS5_ESaISt4pairIKS5_S9_EEEixERSD_
000000000001454e W _ZNSt4pairIiSt10shared_ptrIN12AssemblyUtil12SectionEntryEEEC1EOS4_
000000000000b534 W _ZNSt4pairIiSt10shared_ptrIN12AssemblyUtil12SectionEntryEEEC1ERKS4_
000000000000bac6 W _ZNSt4pairIiSt10shared_ptrIN12AssemblyUtil12SectionEntryEEEC1IRiRS3_Lb1EEEOT_OT0_
000000000001454e W _ZNSt4pairIiSt10shared_ptrIN12AssemblyUtil12SectionEntryEEEC2EOS4_
000000000000b534 W _ZNSt4pairIiSt10shared_ptrIN12AssemblyUtil12SectionEntryEEEC2ERKS4_
000000000000bac6 W _ZNSt4pairIiSt10shared_ptrIN12AssemblyUtil12SectionEntryEEEC2IRiRS3_Lb1EEEOT_OT0_
000000000000abc4 W _ZNSt4pairIiSt10shared_ptrIN12AssemblyUtil12SectionEntryEEED1Ev
000000000000abc4 W _ZNSt4pairIiSt10shared_ptrIN12AssemblyUtil12SectionEntryEEED2Ev
000000000002e22e W _ZNSt4pairIKN10ParserUtil12eOperandTypeESt3mapINS0_15eAddressingTypeESt6vectorIS_IN12AssemblyUtil11InstructionES5_ISt10shared_ptrIN15InstructionUtil14CodePopulationEESaISB_EEESaISE_EESt4lessIS4_ESaIS_IKS4_SG_EEEEC1IJRS2_EJEEESt21piecewise_construct_tSt5tupleIJDpT_EESR_IJDpT0_EE
000000000002e7ac W _ZNSt4pairIKN10ParserUtil12eOperandTypeESt3mapINS0_15eAddressingTypeESt6vectorIS_IN12AssemblyUtil11InstructionES5_ISt10shared_ptrIN15InstructionUtil14CodePopulationEESaISB_EEESaISE_EESt4lessIS4_ESaIS_IKS4_SG_EEEEC1IJRS2_EJLm0EEJEJEEERSt5tupleIJDpT_EERSQ_IJDpT1_EESt12_Index_tupleIJXspT0_EEESZ_IJXspT2_EEE
000000000002e22e W _ZNSt4pairIKN10ParserUtil12eOperandTypeESt3mapINS0_15eAddressingTypeESt6vectorIS_IN12AssemblyUtil11InstructionES5_ISt10shared_ptrIN15InstructionUtil14CodePopulationEESaISB_EEESaISE_EESt4lessIS4_ESaIS_IKS4_SG_EEEEC2IJRS2_EJEEESt21piecewise_construct_tSt5tupleIJDpT_EESR_IJDpT0_EE
000000000002e7ac W _ZNSt4pairIKN10ParserUtil12eOperandTypeESt3mapINS0_15eAddressingTypeESt6vectorIS_IN12AssemblyUtil11InstructionES5_ISt10shared_ptrIN15InstructionUtil14CodePopulationEESaISB_EEESaISE_EESt4lessIS4_ESaIS_IKS4_SG_EEEEC2IJRS2_EJLm0EEJEJEEERSt5tupleIJDpT_EERSQ_IJDpT1_EESt12_Index_tupleIJXspT0_EEESZ_IJXspT2_EEE
000000000002da66 W _ZNSt4pairIKN10ParserUtil12eOperandTypeESt3mapINS0_15eAddressingTypeESt6vectorIS_IN12AssemblyUtil11InstructionES5_ISt10shared_ptrIN15InstructionUtil14CodePopulationEESaISB_EEESaISE_EESt4lessIS4_ESaIS_IKS4_SG_EEEED1Ev
000000000002da66 W _ZNSt4pairIKN10ParserUtil12eOperandTypeESt3mapINS0_15eAddressingTypeESt6vectorIS_IN12AssemblyUtil11InstructionES5_ISt10shared_ptrIN15InstructionUtil14CodePopulationEESaISB_EEESaISE_EESt4lessIS4_ESaIS_IKS4_SG_EEEED2Ev
000000000002e2dc W _ZNSt4pairIKN10ParserUtil15eAddressingTypeESt6vectorIS_IN12AssemblyUtil11InstructionES3_ISt10shared_ptrIN15InstructionUtil14CodePopulationEESaIS9_EEESaISC_EEEC1IJRS2_EJEEESt21piecewise_construct_tSt5tupleIJDpT_EESJ_IJDpT0_EE
000000000002e8b2 W _ZNSt4pairIKN10ParserUtil15eAddressingTypeESt6vectorIS_IN12AssemblyUtil11InstructionES3_ISt10shared_ptrIN15InstructionUtil14CodePopulationEESaIS9_EEESaISC_EEEC1IJRS2_EJLm0EEJEJEEERSt5tupleIJDpT_EERSI_IJDpT1_EESt12_Index_tupleIJXspT0_EEESR_IJXspT2_EEE
000000000002e2dc W _ZNSt4pairIKN10ParserUtil15eAddressingTypeESt6vectorIS_IN12AssemblyUtil11InstructionES3_ISt10shared_ptrIN15InstructionUtil14CodePopulationEESaIS9_EEESaISC_EEEC2IJRS2_EJEEESt21piecewise_construct_tSt5tupleIJDpT_EESJ_IJDpT0_EE
000000000002e8b2 W _ZNSt4pairIKN10ParserUtil15eAddressingTypeESt6vectorIS_IN12AssemblyUtil11InstructionES3_ISt10shared_ptrIN15InstructionUtil14CodePopulationEESaIS9_EEESaISC_EEEC2IJRS2_EJLm0EEJEJEEERSt5tupleIJDpT_EERSI_IJDpT1_EESt12_Index_tupleIJXspT0_EEESR_IJXspT2_EEE
000000000002dc8a W _ZNSt4pairIKN10ParserUtil15eAddressingTypeESt6vectorIS_IN12AssemblyUtil11InstructionES3_ISt10shared_ptrIN15InstructionUtil14CodePopulationEESaIS9_EEESaISC_EEED1Ev
000000000002dc8a W _ZNSt4pairIKN10ParserUtil15eAddressingTypeESt6vectorIS_IN12AssemblyUtil11InstructionES3_ISt10shared_ptrIN15InstructionUtil14CodePopulationEESaIS9_EEESaISC_EEED2Ev
000000000002e1de W _ZNSt4pairIKN10ParserUtil22eInstructionIdentifierESt3mapINS0_12eOperandTypeES3_INS0_15eAddressingTypeESt6vectorIS_IN12AssemblyUtil11InstructionES6_ISt10shared_ptrIN15InstructionUtil14CodePopulationEESaISC_EEESaISF_EESt4lessIS5_ESaIS_IKS5_SH_EEESI_IS4_ESaIS_IKS4_SN_EEEEC1IJRS2_EJEEESt21piecewise_construct_tSt5tupleIJDpT_EESX_IJDpT0_EE
000000000002e6f0 W _ZNSt4pairIKN10ParserUtil22eInstructionIdentifierESt3mapINS0_12eOperandTypeES3_INS0_15eAddressingTypeESt6vectorIS_IN12AssemblyUtil11InstructionES6_ISt10shared_ptrIN15InstructionUtil14CodePopulationEESaISC_EEESaISF_EESt4lessIS5_ESaIS_IKS5_SH_EEESI_IS4_ESaIS_IKS4_SN_EEEEC1IJRS2_EJLm0EEJEJEEERSt5tupleIJDpT_EERSW_IJDpT1_EESt12_Index_tupleIJXspT0_EEES15_IJXspT2_EEE
000000000002e1de W _ZNSt4pairIKN10ParserUtil22eInstructionIdentifierESt3mapINS0_12eOperandTypeES3_INS0_15eAddressingTypeESt6vectorIS_IN12AssemblyUtil11InstructionES6_ISt10shared_ptrIN15InstructionUtil14CodePopulationEESaISC_EEESaISF_EESt4lessIS5_ESaIS_IKS5_SH_EEESI_IS4_ESaIS_IKS4_SN_EEEEC2IJRS2_EJEEESt21piecewise_construct_tSt5tupleIJDpT_EESX_IJDpT0_EE
000000000002e6f0 W _ZNSt4pairIKN10ParserUtil22eInstructionIdentifierESt3mapINS0_12eOperandTypeES3_INS0_15eAddressingTypeESt6vectorIS_IN12AssemblyUtil11InstructionES6_ISt10shared_ptrIN15InstructionUtil14CodePopulationEESaISC_EEESaISF_EESt4lessIS5_ESaIS_IKS5_SH_EEESI_IS4_ESaIS_IKS4_SN_EEEEC2IJRS2_EJLm0EEJEJEEERSt5tupleIJDpT_EERSW_IJDpT1_EESt12_Index_tupleIJXspT0_EEES15_IJXspT2_EEE
000000000002cf1a W _ZNSt4pairIKN10ParserUtil22eInstructionIdentifierESt3mapINS0_12eOperandTypeES3_INS0_15eAddressingTypeESt6vectorIS_IN12AssemblyUtil11InstructionES6_ISt10shared_ptrIN15InstructionUtil14CodePopulationEESaISC_EEESaISF_EESt4lessIS5_ESaIS_IKS5_SH_EEESI_IS4_ESaIS_IKS4_SN_EEEED1Ev
000000000002cf1a W _ZNSt4pairIKN10ParserUtil22eInstructionIdentifierESt3mapINS0_12eOperandTypeES3_INS0_15eAddressingTypeESt6vectorIS_IN12AssemblyUtil11InstructionES6_ISt10shared_ptrIN15InstructionUtil14CodePopulationEESaISC_EEESaISF_EESt4lessIS5_ESaIS_IKS5_SH_EEESI_IS4_ESaIS_IKS4_SN_EEEED2Ev
000000000001c362 W _ZNSt4pairIKNSt7__cxx1112basic_stringIcSt11char_traitsIcESaIcEEEN10LinkerUtil15eInputFileStateEEC1ERKS9_
000000000001ae74 W _ZNSt4pairIKNSt7__cxx1112basic_stringIcSt11char_traitsIcESaIcEEEN10LinkerUtil15eInputFileStateEEC1IJRS6_EJEEESt21piecewise_construct_tSt5tupleIJDpT_EESD_IJDpT0_EE
000000000001bcaa W _ZNSt4pairIKNSt7__cxx1112basic_stringIcSt11char_traitsIcESaIcEEEN10LinkerUtil15eInputFileStateEEC1IJRS6_EJLm0EEJEJEEERSt5tupleIJDpT_EERSC_IJDpT1_EESt12_Index_tupleIJXspT0_EEESL_IJXspT2_EEE
000000000000ae9c W _ZNSt4pairIKNSt7__cxx1112basic_stringIcSt11char_traitsIcESaIcEEEN10LinkerUtil15eInputFileStateEEC1IRA10_KcS8_Lb1EEEOT_OT0_
000000000000af52 W _ZNSt4pairIKNSt7__cxx1112basic_stringIcSt11char_traitsIcESaIcEEEN10LinkerUtil15eInputFileStateEEC1IRA13_KcS8_Lb1EEEOT_OT0_
000000000000ade6 W _ZNSt4pairIKNSt7__cxx1112basic_stringIcSt11char_traitsIcESaIcEEEN10LinkerUtil15eInputFileStateEEC1IRA14_KcS8_Lb1EEEOT_OT0_
000000000001c362 W _ZNSt4pairIKNSt7__cxx1112basic_stringIcSt11char_traitsIcESaIcEEEN10LinkerUtil15eInputFileStateEEC2ERKS9_
000000000001ae74 W _ZNSt4pairIKNSt7__cxx1112basic_stringIcSt11char_traitsIcESaIcEEEN10LinkerUtil15eInputFileStateEEC2IJRS6_EJEEESt21piecewise_construct_tSt5tupleIJDpT_EESD_IJDpT0_EE
000000000001bcaa W _ZNSt4pairIKNSt7__cxx1112basic_stringIcSt11char_traitsIcESaIcEEEN10LinkerUtil15eInputFileStateEEC2IJRS6_EJLm0EEJEJEEERSt5tupleIJDpT_EERSC_IJDpT1_EESt12_Index_tupleIJXspT0_EEESL_IJXspT2_EEE
000000000000adc6 W _ZNSt4pairIKNSt7__cxx1112basic_stringIcSt11char_traitsIcESaIcEEEN10LinkerUtil15eInputFileStateEED1Ev
000000000000adc6 W _ZNSt4pairIKNSt7__cxx1112basic_stringIcSt11char_traitsIcESaIcEEEN10LinkerUtil15eInputFileStateEED2Ev
0000000000036772 W _ZNSt4pairIKNSt7__cxx1112basic_stringIcSt11char_traitsIcESaIcEEEN10ParserUtil4eCSREEC1ERKS9_
0000000000036378 W _ZNSt4pairIKNSt7__cxx1112basic_stringIcSt11char_traitsIcESaIcEEEN10ParserUtil4eCSREEC1IJRS6_EJEEESt21piecewise_construct_tSt5tupleIJDpT_EESD_IJDpT0_EE
0000000000036618 W _ZNSt4pairIKNSt7__cxx1112basic_stringIcSt11char_traitsIcESaIcEEEN10ParserUtil4eCSREEC1IJRS6_EJLm0EEJEJEEERSt5tupleIJDpT_EERSC_IJDpT1_EESt12_Index_tupleIJXspT0_EEESL_IJXspT2_EEE
00000000000323e4 W _ZNSt4pairIKNSt7__cxx1112basic_stringIcSt11char_traitsIcESaIcEEEN10ParserUtil4eCSREEC1IRA6_KcS8_Lb1EEEOT_OT0_
0000000000032278 W _ZNSt4pairIKNSt7__cxx1112basic_stringIcSt11char_traitsIcESaIcEEEN10ParserUtil4eCSREEC1IRA7_KcS8_Lb1EEEOT_OT0_
000000000003232e W _ZNSt4pairIKNSt7__cxx1112basic_stringIcSt11char_traitsIcESaIcEEEN10ParserUtil4eCSREEC1IRA8_KcS8_Lb1EEEOT_OT0_
0000000000036772 W _ZNSt4pairIKNSt7__cxx1112basic_stringIcSt11char_traitsIcESaIcEEEN10ParserUtil4eCSREEC2ERKS9_
0000000000036378 W _ZNSt4pairIKNSt7__cxx1112basic_stringIcSt11char_traitsIcESaIcEEEN10ParserUtil4eCSREEC2IJRS6_EJEEESt21piecewise_construct_tSt5tupleIJDpT_EESD_IJDpT0_EE
0000000000036618 W _ZNSt4pairIKNSt7__cxx1112basic_stringIcSt11char_traitsIcESaIcEEEN10ParserUtil4eCSREEC2IJRS6_EJLm0EEJEJEEERSt5tupleIJDpT_EERSC_IJDpT1_EESt12_Index_tupleIJXspT0_EEESL_IJXspT2_EEE
0000000000032258 W _ZNSt4pairIKNSt7__cxx1112basic_stringIcSt11char_traitsIcESaIcEEEN10ParserUtil4eCSREED1Ev
0000000000032258 W _ZNSt4pairIKNSt7__cxx1112basic_stringIcSt11char_traitsIcESaIcEEEN10ParserUtil4eCSREED2Ev
000000000003669e W _ZNSt4pairIKNSt7__cxx1112basic_stringIcSt11char_traitsIcESaIcEEEN10ParserUtil4eGPREEC1ERKS9_
0000000000036156 W _ZNSt4pairIKNSt7__cxx1112basic_stringIcSt11char_traitsIcESaIcEEEN10ParserUtil4eGPREEC1IJRS6_EJEEESt21piecewise_construct_tSt5tupleIJDpT_EESD_IJDpT0_EE
0000000000036520 W _ZNSt4pairIKNSt7__cxx1112basic_stringIcSt11char_traitsIcESaIcEEEN10ParserUtil4eGPREEC1IJRS6_EJLm0EEJEJEEERSt5tupleIJDpT_EERSC_IJDpT1_EESt12_Index_tupleIJXspT0_EEESL_IJXspT2_EEE
00000000000320ec W _ZNSt4pairIKNSt7__cxx1112basic_stringIcSt11char_traitsIcESaIcEEEN10ParserUtil4eGPREEC1IRA3_KcS8_Lb1EEEOT_OT0_
00000000000321a2 W _ZNSt4pairIKNSt7__cxx1112basic_stringIcSt11char_traitsIcESaIcEEEN10ParserUtil4eGPREEC1IRA4_KcS8_Lb1EEEOT_OT0_
000000000003669e W _ZNSt4pairIKNSt7__cxx1112basic_stringIcSt11char_traitsIcESaIcEEEN10ParserUtil4eGPREEC2ERKS9_
0000000000036156 W _ZNSt4pairIKNSt7__cxx1112basic_stringIcSt11char_traitsIcESaIcEEEN10ParserUtil4eGPREEC2IJRS6_EJEEESt21piecewise_construct_tSt5tupleIJDpT_EESD_IJDpT0_EE
0000000000036520 W _ZNSt4pairIKNSt7__cxx1112basic_stringIcSt11char_traitsIcESaIcEEEN10ParserUtil4eGPREEC2IJRS6_EJLm0EEJEJEEERSt5tupleIJDpT_EERSC_IJDpT1_EESt12_Index_tupleIJXspT0_EEESL_IJXspT2_EEE
00000000000320cc W _ZNSt4pairIKNSt7__cxx1112basic_stringIcSt11char_traitsIcESaIcEEEN10ParserUtil4eGPREED1Ev
00000000000320cc W _ZNSt4pairIKNSt7__cxx1112basic_stringIcSt11char_traitsIcESaIcEEEN10ParserUtil4eGPREED2Ev
000000000001acb6 W _ZNSt4pairIKNSt7__cxx1112basic_stringIcSt11char_traitsIcESaIcEEESt10shared_ptrIN10LinkerUtil16SectionMergeDataEEEC1IJRS6_EJEEESt21piecewise_construct_tSt5tupleIJDpT_EESF_IJDpT0_EE
000000000001bb5e W _ZNSt4pairIKNSt7__cxx1112basic_stringIcSt11char_traitsIcESaIcEEESt10shared_ptrIN10LinkerUtil16SectionMergeDataEEEC1IJRS6_EJLm0EEJEJEEERSt5tupleIJDpT_EERSE_IJDpT1_EESt12_Index_tupleIJXspT0_EEESN_IJXspT2_EEE
000000000001acb6 W _ZNSt4pairIKNSt7__cxx1112basic_stringIcSt11char_traitsIcESaIcEEESt10shared_ptrIN10LinkerUtil16SectionMergeDataEEEC2IJRS6_EJEEESt21piecewise_construct_tSt5tupleIJDpT_EESF_IJDpT0_EE
000000000001bb5e W _ZNSt4pairIKNSt7__cxx1112basic_stringIcSt11char_traitsIcESaIcEEESt10shared_ptrIN10LinkerUtil16SectionMergeDataEEEC2IJRS6_EJLm0EEJEJEEERSt5tupleIJDpT_EERSE_IJDpT1_EESt12_Index_tupleIJXspT0_EEESN_IJXspT2_EEE
00000000000191bc W _ZNSt4pairIKNSt7__cxx1112basic_stringIcSt11char_traitsIcESaIcEEESt10shared_ptrIN10LinkerUtil16SectionMergeDataEEED1Ev
00000000000191bc W _ZNSt4pairIKNSt7__cxx1112basic_stringIcSt11char_traitsIcESaIcEEESt10shared_ptrIN10LinkerUtil16SectionMergeDataEEED2Ev
000000000002e346 W _ZNSt4pairIN12AssemblyUtil11InstructionESt6vectorISt10shared_ptrIN15InstructionUtil14CodePopulationEESaIS6_EEEaSERKS9_
000000000002a7e0 W _ZNSt4pairIN12AssemblyUtil11InstructionESt6vectorISt10shared_ptrIN15InstructionUtil14CodePopulationEESaIS6_EEEC1EOS9_
000000000002cc12 W _ZNSt4pairIN12AssemblyUtil11InstructionESt6vectorISt10shared_ptrIN15InstructionUtil14CodePopulationEESaIS6_EEEC1ERKS9_
0000000000025f7c W _ZNSt4pairIN12AssemblyUtil11InstructionESt6vectorISt10shared_ptrIN15InstructionUtil14CodePopulationEESaIS6_EEEC1IRS1_RS8_Lb1EEEOT_OT0_
000000000002a7e0 W _ZNSt4pairIN12AssemblyUtil11InstructionESt6vectorISt10shared_ptrIN15InstructionUtil14CodePopulationEESaIS6_EEEC2EOS9_
000000000002cc12 W _ZNSt4pairIN12AssemblyUtil11InstructionESt6vectorISt10shared_ptrIN15InstructionUtil14CodePopulationEESaIS6_EEEC2ERKS9_
0000000000025f7c W _ZNSt4pairIN12AssemblyUtil11InstructionESt6vectorISt10shared_ptrIN15InstructionUtil14CodePopulationEESaIS6_EEEC2IRS1_RS8_Lb1EEEOT_OT0_
0000000000025a06 W _ZNSt4pairIN12AssemblyUtil11InstructionESt6vectorISt10shared_ptrIN15InstructionUtil14CodePopulationEESaIS6_EEED1Ev
0000000000025a06 W _ZNSt4pairIN12AssemblyUtil11InstructionESt6vectorISt10shared_ptrIN15InstructionUtil14CodePopulationEESaIS6_EEED2Ev
000000000001b8d0 W _ZNSt4pairINSt7__cxx1112basic_stringIcSt11char_traitsIcESaIcEEEmE4swapERS6_
0000000000017610 W _ZNSt4pairINSt7__cxx1112basic_stringIcSt11char_traitsIcESaIcEEEmEaSEOS6_
000000000001545a W _ZNSt4pairINSt7__cxx1112basic_stringIcSt11char_traitsIcESaIcEEEmEC1EOS6_
0000000000016d12 W _ZNSt4pairINSt7__cxx1112basic_stringIcSt11char_traitsIcESaIcEEEmEC1ERKS6_
0000000000030da8 W _ZNSt4pairINSt7__cxx1112basic_stringIcSt11char_traitsIcESaIcEEEmEC1IRS5_mLb1EEEOT_OT0_
000000000001545a W _ZNSt4pairINSt7__cxx1112basic_stringIcSt11char_traitsIcESaIcEEEmEC2EOS6_
0000000000016d12 W _ZNSt4pairINSt7__cxx1112basic_stringIcSt11char_traitsIcESaIcEEEmEC2ERKS6_
0000000000030da8 W _ZNSt4pairINSt7__cxx1112basic_stringIcSt11char_traitsIcESaIcEEEmEC2IRS5_mLb1EEEOT_OT0_
0000000000015494 W _ZNSt4pairINSt7__cxx1112basic_stringIcSt11char_traitsIcESaIcEEEmED1Ev
0000000000015494 W _ZNSt4pairINSt7__cxx1112basic_stringIcSt11char_traitsIcESaIcEEEmED2Ev
0000000000035b7e W _ZNSt4pairINSt8__detail14_Node_iteratorIS_IKNSt7__cxx1112basic_stringIcSt11char_traitsIcESaIcEEEN10ParserUtil4eCSREELb0ELb1EEEbEC1IRSC_bLb1EEEOT_OT0_
0000000000035abc W _ZNSt4pairINSt8__detail14_Node_iteratorIS_IKNSt7__cxx1112basic_stringIcSt11char_traitsIcESaIcEEEN10ParserUtil4eCSREELb0ELb1EEEbEC1ISC_bLb1EEEOT_OT0_
0000000000035b7e W _ZNSt4pairINSt8__detail14_Node_iteratorIS_IKNSt7__cxx1112basic_stringIcSt11char_traitsIcESaIcEEEN10ParserUtil4eCSREELb0ELb1EEEbEC2IRSC_bLb1EEEOT_OT0_
0000000000035abc W _ZNSt4pairINSt8__detail14_Node_iteratorIS_IKNSt7__cxx1112basic_stringIcSt11char_traitsIcESaIcEEEN10ParserUtil4eCSREELb0ELb1EEEbEC2ISC_bLb1EEEOT_OT0_
000000000003556c W _ZNSt4pairINSt8__detail14_Node_iteratorIS_IKNSt7__cxx1112basic_stringIcSt11char_traitsIcESaIcEEEN10ParserUtil4eGPREELb0ELb1EEEbEC1IRSC_bLb1EEEOT_OT0_
00000000000354aa W _ZNSt4pairINSt8__detail14_Node_iteratorIS_IKNSt7__cxx1112basic_stringIcSt11char_traitsIcESaIcEEEN10ParserUtil4eGPREELb0ELb1EEEbEC1ISC_bLb1EEEOT_OT0_
000000000003556c W _ZNSt4pairINSt8__detail14_Node_iteratorIS_IKNSt7__cxx1112basic_stringIcSt11char_traitsIcESaIcEEEN10ParserUtil4eGPREELb0ELb1EEEbEC2IRSC_bLb1EEEOT_OT0_
00000000000354aa W _ZNSt4pairINSt8__detail14_Node_iteratorIS_IKNSt7__cxx1112basic_stringIcSt11char_traitsIcESaIcEEEN10ParserUtil4eGPREELb0ELb1EEEbEC2ISC_bLb1EEEOT_OT0_
000000000002c74e W _ZNSt4pairIPSt18_Rb_tree_node_baseS1_EC1IRPSt13_Rb_tree_nodeIS_IKN10ParserUtil12eOperandTypeESt3mapINS5_15eAddressingTypeESt6vectorIS_IN12AssemblyUtil11InstructionESA_ISt10shared_ptrIN15InstructionUtil14CodePopulationEESaISG_EEESaISJ_EESt4lessIS9_ESaIS_IKS9_SL_EEEEERS1_Lb1EEEOT_OT0_
000000000002c94e W _ZNSt4pairIPSt18_Rb_tree_node_baseS1_EC1IRPSt13_Rb_tree_nodeIS_IKN10ParserUtil15eAddressingTypeESt6vectorIS_IN12AssemblyUtil11InstructionES8_ISt10shared_ptrIN15InstructionUtil14CodePopulationEESaISE_EEESaISH_EEEERS1_Lb1EEEOT_OT0_
000000000002c5aa W _ZNSt4pairIPSt18_Rb_tree_node_baseS1_EC1IRPSt13_Rb_tree_nodeIS_IKN10ParserUtil22eInstructionIdentifierESt3mapINS5_12eOperandTypeES8_INS5_15eAddressingTypeESt6vectorIS_IN12AssemblyUtil11InstructionESB_ISt10shared_ptrIN15InstructionUtil14CodePopulationEESaISH_EEESaISK_EESt4lessISA_ESaIS_IKSA_SM_EEESN_IS9_ESaIS_IKS9_SS_EEEEERS1_Lb1EEEOT_OT0_
0000000000017d14 W _ZNSt4pairIPSt18_Rb_tree_node_baseS1_EC1IRPSt13_Rb_tree_nodeIS_IKNSt7__cxx1112basic_stringIcSt11char_traitsIcESaIcEEEN10LinkerUtil15eInputFileStateEEERS1_Lb1EEEOT_OT0_
00000000000178c2 W _ZNSt4pairIPSt18_Rb_tree_node_baseS1_EC1IRPSt13_Rb_tree_nodeIS_IKNSt7__cxx1112basic_stringIcSt11char_traitsIcESaIcEEESt10shared_ptrIN10LinkerUtil16SectionMergeDataEEEERS1_Lb1EEEOT_OT0_
000000000001598e W _ZNSt4pairIPSt18_Rb_tree_node_baseS1_EC1IRS1_Lb1EEEOT_RKS1_
0000000000015728 W _ZNSt4pairIPSt18_Rb_tree_node_baseS1_EC1IRS1_Lb1EEERKS1_OT_
000000000001591a W _ZNSt4pairIPSt18_Rb_tree_node_baseS1_EC1IRS1_S4_Lb1EEEOT_OT0_
000000000002c74e W _ZNSt4pairIPSt18_Rb_tree_node_baseS1_EC2IRPSt13_Rb_tree_nodeIS_IKN10ParserUtil12eOperandTypeESt3mapINS5_15eAddressingTypeESt6vectorIS_IN12AssemblyUtil11InstructionESA_ISt10shared_ptrIN15InstructionUtil14CodePopulationEESaISG_EEESaISJ_EESt4lessIS9_ESaIS_IKS9_SL_EEEEERS1_Lb1EEEOT_OT0_
000000000002c94e W _ZNSt4pairIPSt18_Rb_tree_node_baseS1_EC2IRPSt13_Rb_tree_nodeIS_IKN10ParserUtil15eAddressingTypeESt6vectorIS_IN12AssemblyUtil11InstructionES8_ISt10shared_ptrIN15InstructionUtil14CodePopulationEESaISE_EEESaISH_EEEERS1_Lb1EEEOT_OT0_
000000000002c5aa W _ZNSt4pairIPSt18_Rb_tree_node_baseS1_EC2IRPSt13_Rb_tree_nodeIS_IKN10ParserUtil22eInstructionIdentifierESt3mapINS5_12eOperandTypeES8_INS5_15eAddressingTypeESt6vectorIS_IN12AssemblyUtil11InstructionESB_ISt10shared_ptrIN15InstructionUtil14CodePopulationEESaISH_EEESaISK_EESt4lessISA_ESaIS_IKSA_SM_EEESN_IS9_ESaIS_IKS9_SS_EEEEERS1_Lb1EEEOT_OT0_
0000000000017d14 W _ZNSt4pairIPSt18_Rb_tree_node_baseS1_EC2IRPSt13_Rb_tree_nodeIS_IKNSt7__cxx1112basic_stringIcSt11char_traitsIcESaIcEEEN10LinkerUtil15eInputFileStateEEERS1_Lb1EEEOT_OT0_
00000000000178c2 W _ZNSt4pairIPSt18_Rb_tree_node_baseS1_EC2IRPSt13_Rb_tree_nodeIS_IKNSt7__cxx1112basic_stringIcSt11char_traitsIcESaIcEEESt10shared_ptrIN10LinkerUtil16SectionMergeDataEEEERS1_Lb1EEEOT_OT0_
000000000001598e W _ZNSt4pairIPSt18_Rb_tree_node_baseS1_EC2IRS1_Lb1EEEOT_RKS1_
0000000000015728 W _ZNSt4pairIPSt18_Rb_tree_node_baseS1_EC2IRS1_Lb1EEERKS1_OT_
000000000001591a W _ZNSt4pairIPSt18_Rb_tree_node_baseS1_EC2IRS1_S4_Lb1EEEOT_OT0_
000000000002d92c W _ZNSt5tupleIJRKN10ParserUtil12eOperandTypeEEEC1EOS4_
00000000000273e6 W _ZNSt5tupleIJRKN10ParserUtil12eOperandTypeEEEC1ILb1ELb1EEES3_
000000000002d92c W _ZNSt5tupleIJRKN10ParserUtil12eOperandTypeEEEC2EOS4_
00000000000273e6 W _ZNSt5tupleIJRKN10ParserUtil12eOperandTypeEEEC2ILb1ELb1EEES3_
000000000002db70 W _ZNSt5tupleIJRKN10ParserUtil15eAddressingTypeEEEC1EOS4_
0000000000027658 W _ZNSt5tupleIJRKN10ParserUtil15eAddressingTypeEEEC1ILb1ELb1EEES3_
000000000002db70 W _ZNSt5tupleIJRKN10ParserUtil15eAddressingTypeEEEC2EOS4_
0000000000027658 W _ZNSt5tupleIJRKN10ParserUtil15eAddressingTypeEEEC2ILb1ELb1EEES3_
000000000002d784 W _ZNSt5tupleIJRKN10ParserUtil22eInstructionIdentifierEEEC1EOS4_
0000000000027174 W _ZNSt5tupleIJRKN10ParserUtil22eInstructionIdentifierEEEC1ILb1ELb1EEES3_
000000000002d784 W _ZNSt5tupleIJRKN10ParserUtil22eInstructionIdentifierEEEC2EOS4_
0000000000027174 W _ZNSt5tupleIJRKN10ParserUtil22eInstructionIdentifierEEEC2ILb1ELb1EEES3_
0000000000019518 W _ZNSt5tupleIJRKNSt7__cxx1112basic_stringIcSt11char_traitsIcESaIcEEEEEC1EOS8_
000000000001043e W _ZNSt5tupleIJRKNSt7__cxx1112basic_stringIcSt11char_traitsIcESaIcEEEEEC1ILb1ELb1EEES7_
0000000000019518 W _ZNSt5tupleIJRKNSt7__cxx1112basic_stringIcSt11char_traitsIcESaIcEEEEEC2EOS8_
000000000001043e W _ZNSt5tupleIJRKNSt7__cxx1112basic_stringIcSt11char_traitsIcESaIcEEEEEC2ILb1ELb1EEES7_
000000000001a1e4 W _ZNSt6vectorIhSaIhEE11_S_max_sizeERKS0_
00000000000167ad W _ZNSt6vectorIhSaIhEE11_S_relocateEPhS2_S2_RS0_
000000000001150e W _ZNSt6vectorIhSaIhEE12emplace_backIJhEEERhDpOT_
0000000000021904 W _ZNSt6vectorIhSaIhEE13_M_assign_auxIPKhEEvT_S5_St20forward_iterator_tag
0000000000018698 W _ZNSt6vectorIhSaIhEE14_S_do_relocateEPhS2_S2_RS0_St17integral_constantIbLb1EE
0000000000021d84 W _ZNSt6vectorIhSaIhEE15_M_erase_at_endEPh
00000000000142aa W _ZNSt6vectorIhSaIhEE17_M_realloc_insertIJhEEEvN9__gnu_cxx17__normal_iteratorIPhS1_EEDpOT_
0000000000020584 W _ZNSt6vectorIhSaIhEE17_M_realloc_insertIJRKhEEEvN9__gnu_cxx17__normal_iteratorIPhS1_EEDpOT_
0000000000021c5b W _ZNSt6vectorIhSaIhEE17_S_check_init_lenEmRKS0_
000000000002f0c6 W _ZNSt6vectorIhSaIhEE20_M_allocate_and_copyIN9__gnu_cxx17__normal_iteratorIPKhS1_EEEEPhmT_S9_
0000000000021ce2 W _ZNSt6vectorIhSaIhEE20_M_allocate_and_copyIPKhEEPhmT_S6_
000000000000e5a4 W _ZNSt6vectorIhSaIhEE3endEv
0000000000014450 W _ZNSt6vectorIhSaIhEE4backEv
000000000000e558 W _ZNSt6vectorIhSaIhEE5beginEv
000000000002f08a W _ZNSt6vectorIhSaIhEE5clearEv
000000000000e498 W _ZNSt6vectorIhSaIhEE9push_backEOh
00000000000202b6 W _ZNSt6vectorIhSaIhEE9push_backERKh
000000000002e924 W _ZNSt6vectorIhSaIhEEaSERKS1_
00000000000216e2 W _ZNSt6vectorIhSaIhEEaSESt16initializer_listIhE
000000000002a72a W _ZNSt6vectorIhSaIhEEC1EOS1_
0000000000021764 W _ZNSt6vectorIhSaIhEEC1ERKS1_
000000000001b7c0 W _ZNSt6vectorIhSaIhEEC1Ev
000000000002a72a W _ZNSt6vectorIhSaIhEEC2EOS1_
0000000000021764 W _ZNSt6vectorIhSaIhEEC2ERKS1_
000000000001b7c0 W _ZNSt6vectorIhSaIhEEC2Ev
000000000001c566 W _ZNSt6vectorIhSaIhEED1Ev
000000000001c566 W _ZNSt6vectorIhSaIhEED2Ev
000000000000d156 W _ZNSt6vectorIhSaIhEEixEm
000000000001e817 W _ZNSt6vectorINSt7__cxx1112basic_stringIcSt11char_traitsIcESaIcEEESaIS5_EE11_S_max_sizeERKS6_
000000000001e738 W _ZNSt6vectorINSt7__cxx1112basic_stringIcSt11char_traitsIcESaIcEEESaIS5_EE11_S_relocateEPS5_S8_S8_RS6_
000000000001e2de W _ZNSt6vectorINSt7__cxx1112basic_stringIcSt11char_traitsIcESaIcEEESaIS5_EE12emplace_backIJS5_EEERS5_DpOT_
000000000001e7be W _ZNSt6vectorINSt7__cxx1112basic_stringIcSt11char_traitsIcESaIcEEESaIS5_EE14_S_do_relocateEPS5_S8_S8_RS6_St17integral_constantIbLb1EE
0000000000030f96 W _ZNSt6vectorINSt7__cxx1112basic_stringIcSt11char_traitsIcESaIcEEESaIS5_EE17_M_realloc_insertIJRKS5_EEEvN9__gnu_cxx17__normal_iteratorIPS5_S7_EEDpOT_
000000000001e3f2 W _ZNSt6vectorINSt7__cxx1112basic_stringIcSt11char_traitsIcESaIcEEESaIS5_EE17_M_realloc_insertIJS5_EEEvN9__gnu_cxx17__normal_iteratorIPS5_S7_EEDpOT_
000000000000de9e W _ZNSt6vectorINSt7__cxx1112basic_stringIcSt11char_traitsIcESaIcEEESaIS5_EE3endEv
000000000000e3cc W _ZNSt6vectorINSt7__cxx1112basic_stringIcSt11char_traitsIcESaIcEEESaIS5_EE4backEv
000000000000de52 W _ZNSt6vectorINSt7__cxx1112basic_stringIcSt11char_traitsIcESaIcEEESaIS5_EE5beginEv
000000000000e37a W _ZNSt6vectorINSt7__cxx1112basic_stringIcSt11char_traitsIcESaIcEEESaIS5_EE5frontEv
000000000001e25c W _ZNSt6vectorINSt7__cxx1112basic_stringIcSt11char_traitsIcESaIcEEESaIS5_EE9push_backEOS5_
0000000000030e30 W _ZNSt6vectorINSt7__cxx1112basic_stringIcSt11char_traitsIcESaIcEEESaIS5_EE9push_backERKS5_
000000000000c3fc W _ZNSt6vectorINSt7__cxx1112basic_stringIcSt11char_traitsIcESaIcEEESaIS5_EEC1ERKS7_
000000000001e0c6 W _ZNSt6vectorINSt7__cxx1112basic_stringIcSt11char_traitsIcESaIcEEESaIS5_EEC1Ev
000000000000c3fc W _ZNSt6vectorINSt7__cxx1112basic_stringIcSt11char_traitsIcESaIcEEESaIS5_EEC2ERKS7_
000000000001e0c6 W _ZNSt6vectorINSt7__cxx1112basic_stringIcSt11char_traitsIcESaIcEEESaIS5_EEC2Ev
000000000000c51c W _ZNSt6vectorINSt7__cxx1112basic_stringIcSt11char_traitsIcESaIcEEESaIS5_EED1Ev
000000000000c51c W _ZNSt6vectorINSt7__cxx1112basic_stringIcSt11char_traitsIcESaIcEEESaIS5_EED2Ev
000000000000e32e W _ZNSt6vectorINSt7__cxx1112basic_stringIcSt11char_traitsIcESaIcEEESaIS5_EEixEm
0000000000018114 W _ZNSt6vectorIS_ISt10shared_ptrIN12AssemblyUtil12SectionEntryEESaIS3_EESaIS5_EE11_S_max_sizeERKS6_
0000000000013f4b W _ZNSt6vectorIS_ISt10shared_ptrIN12AssemblyUtil12SectionEntryEESaIS3_EESaIS5_EE11_S_relocateEPS5_S8_S8_RS6_
0000000000016352 W _ZNSt6vectorIS_ISt10shared_ptrIN12AssemblyUtil12SectionEntryEESaIS3_EESaIS5_EE14_S_do_relocateEPS5_S8_S8_RS6_St17integral_constantIbLb1EE
0000000000010e88 W _ZNSt6vectorIS_ISt10shared_ptrIN12AssemblyUtil12SectionEntryEESaIS3_EESaIS5_EE17_M_realloc_insertIJRKS5_EEEvN9__gnu_cxx17__normal_iteratorIPS5_S7_EEDpOT_
000000000000d8b6 W _ZNSt6vectorIS_ISt10shared_ptrIN12AssemblyUtil12SectionEntryEESaIS3_EESaIS5_EE3endEv
000000000000d86a W _ZNSt6vectorIS_ISt10shared_ptrIN12AssemblyUtil12SectionEntryEESaIS3_EESaIS5_EE5beginEv
000000000000e1a4 W _ZNSt6vectorIS_ISt10shared_ptrIN12AssemblyUtil12SectionEntryEESaIS3_EESaIS5_EE9push_backERKS5_
000000000000b1c8 W _ZNSt6vectorIS_ISt10shared_ptrIN12AssemblyUtil12SectionEntryEESaIS3_EESaIS5_EEC1Ev
000000000000b1c8 W _ZNSt6vectorIS_ISt10shared_ptrIN12AssemblyUtil12SectionEntryEESaIS3_EESaIS5_EEC2Ev
000000000000c156 W _ZNSt6vectorIS_ISt10shared_ptrIN12AssemblyUtil12SectionEntryEESaIS3_EESaIS5_EED1Ev
000000000000c156 W _ZNSt6vectorIS_ISt10shared_ptrIN12AssemblyUtil12SectionEntryEESaIS3_EESaIS5_EED2Ev
0000000000017ec0 W _ZNSt6vectorIS_ISt10shared_ptrIN12AssemblyUtil16SymbolTableEntryEESaIS3_EESaIS5_EE11_S_max_sizeERKS6_
0000000000013ce7 W _ZNSt6vectorIS_ISt10shared_ptrIN12AssemblyUtil16SymbolTableEntryEESaIS3_EESaIS5_EE11_S_relocateEPS5_S8_S8_RS6_
000000000001614c W _ZNSt6vectorIS_ISt10shared_ptrIN12AssemblyUtil16SymbolTableEntryEESaIS3_EESaIS5_EE14_S_do_relocateEPS5_S8_S8_RS6_St17integral_constantIbLb1EE
0000000000010bd0 W _ZNSt6vectorIS_ISt10shared_ptrIN12AssemblyUtil16SymbolTableEntryEESaIS3_EESaIS5_EE17_M_realloc_insertIJRKS5_EEEvN9__gnu_cxx17__normal_iteratorIPS5_S7_EEDpOT_
000000000000c5b0 W _ZNSt6vectorIS_ISt10shared_ptrIN12AssemblyUtil16SymbolTableEntryEESaIS3_EESaIS5_EE3endEv
000000000000c564 W _ZNSt6vectorIS_ISt10shared_ptrIN12AssemblyUtil16SymbolTableEntryEESaIS3_EESaIS5_EE5beginEv
000000000000e124 W _ZNSt6vectorIS_ISt10shared_ptrIN12AssemblyUtil16SymbolTableEntryEESaIS3_EESaIS5_EE9push_backERKS5_
000000000000b168 W _ZNSt6vectorIS_ISt10shared_ptrIN12AssemblyUtil16SymbolTableEntryEESaIS3_EESaIS5_EEC1Ev
000000000000b168 W _ZNSt6vectorIS_ISt10shared_ptrIN12AssemblyUtil16SymbolTableEntryEESaIS3_EESaIS5_EEC2Ev
000000000000c060 W _ZNSt6vectorIS_ISt10shared_ptrIN12AssemblyUtil16SymbolTableEntryEESaIS3_EESaIS5_EED1Ev
000000000000c060 W _ZNSt6vectorIS_ISt10shared_ptrIN12AssemblyUtil16SymbolTableEntryEESaIS3_EESaIS5_EED2Ev
000000000000d5a6 W _ZNSt6vectorIS_ISt10shared_ptrIN12AssemblyUtil16SymbolTableEntryEESaIS3_EESaIS5_EEixEm
0000000000018368 W _ZNSt6vectorIS_ISt10shared_ptrIN12AssemblyUtil20RelocationTableEntryEESaIS3_EESaIS5_EE11_S_max_sizeERKS6_
00000000000141af W _ZNSt6vectorIS_ISt10shared_ptrIN12AssemblyUtil20RelocationTableEntryEESaIS3_EESaIS5_EE11_S_relocateEPS5_S8_S8_RS6_
0000000000016558 W _ZNSt6vectorIS_ISt10shared_ptrIN12AssemblyUtil20RelocationTableEntryEESaIS3_EESaIS5_EE14_S_do_relocateEPS5_S8_S8_RS6_St17integral_constantIbLb1EE
0000000000011140 W _ZNSt6vectorIS_ISt10shared_ptrIN12AssemblyUtil20RelocationTableEntryEESaIS3_EESaIS5_EE17_M_realloc_insertIJRKS5_EEEvN9__gnu_cxx17__normal_iteratorIPS5_S7_EEDpOT_
000000000000cbe0 W _ZNSt6vectorIS_ISt10shared_ptrIN12AssemblyUtil20RelocationTableEntryEESaIS3_EESaIS5_EE3endEv
000000000000cb94 W _ZNSt6vectorIS_ISt10shared_ptrIN12AssemblyUtil20RelocationTableEntryEESaIS3_EESaIS5_EE5beginEv
000000000000e224 W _ZNSt6vectorIS_ISt10shared_ptrIN12AssemblyUtil20RelocationTableEntryEESaIS3_EESaIS5_EE9push_backERKS5_
000000000000b228 W _ZNSt6vectorIS_ISt10shared_ptrIN12AssemblyUtil20RelocationTableEntryEESaIS3_EESaIS5_EEC1Ev
000000000000b228 W _ZNSt6vectorIS_ISt10shared_ptrIN12AssemblyUtil20RelocationTableEntryEESaIS3_EESaIS5_EEC2Ev
000000000000c24c W _ZNSt6vectorIS_ISt10shared_ptrIN12AssemblyUtil20RelocationTableEntryEESaIS3_EESaIS5_EED1Ev
000000000000c24c W _ZNSt6vectorIS_ISt10shared_ptrIN12AssemblyUtil20RelocationTableEntryEESaIS3_EESaIS5_EED2Ev
000000000000d5d4 W _ZNSt6vectorIS_ISt10shared_ptrIN12AssemblyUtil20RelocationTableEntryEESaIS3_EESaIS5_EEixEm
0000000000017928 W _ZNSt6vectorISt10shared_ptrIN10LinkerUtil16SectionMergeDataEESaIS3_EE11_S_max_sizeERKS4_
000000000001334f W _ZNSt6vectorISt10shared_ptrIN10LinkerUtil16SectionMergeDataEESaIS3_EE11_S_relocateEPS3_S6_S6_RS4_
0000000000015a93 W _ZNSt6vectorISt10shared_ptrIN10LinkerUtil16SectionMergeDataEESaIS3_EE14_S_do_relocateEPS3_S6_S6_RS4_St17integral_constantIbLb1EE
0000000000010680 W _ZNSt6vectorISt10shared_ptrIN10LinkerUtil16SectionMergeDataEESaIS3_EE17_M_realloc_insertIJRKS3_EEEvN9__gnu_cxx17__normal_iteratorIPS3_S5_EEDpOT_
000000000000d2a8 W _ZNSt6vectorISt10shared_ptrIN10LinkerUtil16SectionMergeDataEESaIS3_EE3endEv
000000000000d25c W _ZNSt6vectorISt10shared_ptrIN10LinkerUtil16SectionMergeDataEESaIS3_EE5beginEv
000000000000ddae W _ZNSt6vectorISt10shared_ptrIN10LinkerUtil16SectionMergeDataEESaIS3_EE9push_backERKS3_
000000000000b514 W _ZNSt6vectorISt10shared_ptrIN10LinkerUtil16SectionMergeDataEESaIS3_EEC1Ev
000000000000b514 W _ZNSt6vectorISt10shared_ptrIN10LinkerUtil16SectionMergeDataEESaIS3_EEC2Ev
000000000000d214 W _ZNSt6vectorISt10shared_ptrIN10LinkerUtil16SectionMergeDataEESaIS3_EED1Ev
000000000000d214 W _ZNSt6vectorISt10shared_ptrIN10LinkerUtil16SectionMergeDataEESaIS3_EED2Ev
000000000001739d W _ZNSt6vectorISt10shared_ptrIN12AssemblyUtil12SectionEntryEESaIS3_EE11_S_max_sizeERKS4_
000000000001287b W _ZNSt6vectorISt10shared_ptrIN12AssemblyUtil12SectionEntryEESaIS3_EE11_S_relocateEPS3_S6_S6_RS4_
000000000001538f W _ZNSt6vectorISt10shared_ptrIN12AssemblyUtil12SectionEntryEESaIS3_EE14_S_do_relocateEPS3_S6_S6_RS4_St17integral_constantIbLb1EE
000000000000ff12 W _ZNSt6vectorISt10shared_ptrIN12AssemblyUtil12SectionEntryEESaIS3_EE17_M_realloc_insertIJRKS3_EEEvN9__gnu_cxx17__normal_iteratorIPS3_S5_EEDpOT_
000000000000cfe6 W _ZNSt6vectorISt10shared_ptrIN12AssemblyUtil12SectionEntryEESaIS3_EE3endEv
000000000000e432 W _ZNSt6vectorISt10shared_ptrIN12AssemblyUtil12SectionEntryEESaIS3_EE4backEv
000000000000cf9a W _ZNSt6vectorISt10shared_ptrIN12AssemblyUtil12SectionEntryEESaIS3_EE5beginEv
000000000000d602 W _ZNSt6vectorISt10shared_ptrIN12AssemblyUtil12SectionEntryEESaIS3_EE9push_backERKS3_
000000000001ca1a W _ZNSt6vectorISt10shared_ptrIN12AssemblyUtil12SectionEntryEESaIS3_EEC1EOS5_
00000000000161a6 W _ZNSt6vectorISt10shared_ptrIN12AssemblyUtil12SectionEntryEESaIS3_EEC1ERKS5_
000000000000b0a8 W _ZNSt6vectorISt10shared_ptrIN12AssemblyUtil12SectionEntryEESaIS3_EEC1Ev
000000000001ca1a W _ZNSt6vectorISt10shared_ptrIN12AssemblyUtil12SectionEntryEESaIS3_EEC2EOS5_
00000000000161a6 W _ZNSt6vectorISt10shared_ptrIN12AssemblyUtil12SectionEntryEESaIS3_EEC2ERKS5_
000000000000b0a8 W _ZNSt6vectorISt10shared_ptrIN12AssemblyUtil12SectionEntryEESaIS3_EEC2Ev
000000000000be84 W _ZNSt6vectorISt10shared_ptrIN12AssemblyUtil12SectionEntryEESaIS3_EED1Ev
000000000000be84 W _ZNSt6vectorISt10shared_ptrIN12AssemblyUtil12SectionEntryEESaIS3_EED2Ev
0000000000016f6d W _ZNSt6vectorISt10shared_ptrIN12AssemblyUtil16SymbolTableEntryEESaIS3_EE11_S_max_sizeERKS4_
0000000000012333 W _ZNSt6vectorISt10shared_ptrIN12AssemblyUtil16SymbolTableEntryEESaIS3_EE11_S_relocateEPS3_S6_S6_RS4_
000000000001511e W _ZNSt6vectorISt10shared_ptrIN12AssemblyUtil16SymbolTableEntryEESaIS3_EE14_S_do_relocateEPS3_S6_S6_RS4_St17integral_constantIbLb1EE
000000000000f818 W _ZNSt6vectorISt10shared_ptrIN12AssemblyUtil16SymbolTableEntryEESaIS3_EE17_M_realloc_insertIJRKS3_EEEvN9__gnu_cxx17__normal_iteratorIPS3_S5_EEDpOT_
000000000000ca80 W _ZNSt6vectorISt10shared_ptrIN12AssemblyUtil16SymbolTableEntryEESaIS3_EE3endEv
000000000000ca34 W _ZNSt6vectorISt10shared_ptrIN12AssemblyUtil16SymbolTableEntryEESaIS3_EE5beginEv
000000000000c9b4 W _ZNSt6vectorISt10shared_ptrIN12AssemblyUtil16SymbolTableEntryEESaIS3_EE9push_backERKS3_
000000000001c968 W _ZNSt6vectorISt10shared_ptrIN12AssemblyUtil16SymbolTableEntryEESaIS3_EEC1EOS5_
0000000000015fa0 W _ZNSt6vectorISt10shared_ptrIN12AssemblyUtil16SymbolTableEntryEESaIS3_EEC1ERKS5_
000000000000b048 W _ZNSt6vectorISt10shared_ptrIN12AssemblyUtil16SymbolTableEntryEESaIS3_EEC1Ev
000000000001c968 W _ZNSt6vectorISt10shared_ptrIN12AssemblyUtil16SymbolTableEntryEESaIS3_EEC2EOS5_
0000000000015fa0 W _ZNSt6vectorISt10shared_ptrIN12AssemblyUtil16SymbolTableEntryEESaIS3_EEC2ERKS5_
000000000000b048 W _ZNSt6vectorISt10shared_ptrIN12AssemblyUtil16SymbolTableEntryEESaIS3_EEC2Ev
000000000000bd9e W _ZNSt6vectorISt10shared_ptrIN12AssemblyUtil16SymbolTableEntryEESaIS3_EED1Ev
000000000000bd9e W _ZNSt6vectorISt10shared_ptrIN12AssemblyUtil16SymbolTableEntryEESaIS3_EED2Ev
000000000000de2e W _ZNSt6vectorISt10shared_ptrIN12AssemblyUtil16SymbolTableEntryEESaIS3_EEixEm
00000000000170cc W _ZNSt6vectorISt10shared_ptrIN12AssemblyUtil20RelocationTableEntryEESaIS3_EE11_S_max_sizeERKS4_
0000000000012571 W _ZNSt6vectorISt10shared_ptrIN12AssemblyUtil20RelocationTableEntryEESaIS3_EE11_S_relocateEPS3_S6_S6_RS4_
00000000000151f3 W _ZNSt6vectorISt10shared_ptrIN12AssemblyUtil20RelocationTableEntryEESaIS3_EE14_S_do_relocateEPS3_S6_S6_RS4_St17integral_constantIbLb1EE
000000000000fac8 W _ZNSt6vectorISt10shared_ptrIN12AssemblyUtil20RelocationTableEntryEESaIS3_EE17_M_realloc_insertIJRKS3_EEEvN9__gnu_cxx17__normal_iteratorIPS3_S5_EEDpOT_
000000000000ced0 W _ZNSt6vectorISt10shared_ptrIN12AssemblyUtil20RelocationTableEntryEESaIS3_EE3endEv
000000000000ce84 W _ZNSt6vectorISt10shared_ptrIN12AssemblyUtil20RelocationTableEntryEESaIS3_EE5beginEv
000000000000ce04 W _ZNSt6vectorISt10shared_ptrIN12AssemblyUtil20RelocationTableEntryEESaIS3_EE9push_backERKS3_
000000000001cacc W _ZNSt6vectorISt10shared_ptrIN12AssemblyUtil20RelocationTableEntryEESaIS3_EEC1EOS5_
00000000000163ac W _ZNSt6vectorISt10shared_ptrIN12AssemblyUtil20RelocationTableEntryEESaIS3_EEC1ERKS5_
000000000000b108 W _ZNSt6vectorISt10shared_ptrIN12AssemblyUtil20RelocationTableEntryEESaIS3_EEC1Ev
000000000001cacc W _ZNSt6vectorISt10shared_ptrIN12AssemblyUtil20RelocationTableEntryEESaIS3_EEC2EOS5_
00000000000163ac W _ZNSt6vectorISt10shared_ptrIN12AssemblyUtil20RelocationTableEntryEESaIS3_EEC2ERKS5_
000000000000b108 W _ZNSt6vectorISt10shared_ptrIN12AssemblyUtil20RelocationTableEntryEESaIS3_EEC2Ev
000000000000bf6a W _ZNSt6vectorISt10shared_ptrIN12AssemblyUtil20RelocationTableEntryEESaIS3_EED1Ev
000000000000bf6a W _ZNSt6vectorISt10shared_ptrIN12AssemblyUtil20RelocationTableEntryEESaIS3_EED2Ev
000000000002d001 W _ZNSt6vectorISt10shared_ptrIN15InstructionUtil14CodePopulationEESaIS3_EE11_S_max_sizeERKS4_
000000000002a473 W _ZNSt6vectorISt10shared_ptrIN15InstructionUtil14CodePopulationEESaIS3_EE11_S_relocateEPS3_S6_S6_RS4_
0000000000026cfe W _ZNSt6vectorISt10shared_ptrIN15InstructionUtil14CodePopulationEESaIS3_EE12emplace_backIJS3_EEERS3_DpOT_
000000000002c0c2 W _ZNSt6vectorISt10shared_ptrIN15InstructionUtil14CodePopulationEESaIS3_EE14_S_do_relocateEPS3_S6_S6_RS4_St17integral_constantIbLb1EE
000000000002f68e W _ZNSt6vectorISt10shared_ptrIN15InstructionUtil14CodePopulationEESaIS3_EE15_M_erase_at_endEPS3_
00000000000280ae W _ZNSt6vectorISt10shared_ptrIN15InstructionUtil14CodePopulationEESaIS3_EE17_M_realloc_insertIJS3_EEEvN9__gnu_cxx17__normal_iteratorIPS3_S5_EEDpOT_
000000000002f2e4 W _ZNSt6vectorISt10shared_ptrIN15InstructionUtil14CodePopulationEESaIS3_EE20_M_allocate_and_copyIN9__gnu_cxx17__normal_iteratorIPKS3_S5_EEEEPS3_mT_SD_
000000000002805e W _ZNSt6vectorISt10shared_ptrIN15InstructionUtil14CodePopulationEESaIS3_EE3endEv
0000000000028266 W _ZNSt6vectorISt10shared_ptrIN15InstructionUtil14CodePopulationEESaIS3_EE4backEv
000000000002a3ac W _ZNSt6vectorISt10shared_ptrIN15InstructionUtil14CodePopulationEESaIS3_EE5beginEv
000000000002f280 W _ZNSt6vectorISt10shared_ptrIN15InstructionUtil14CodePopulationEESaIS3_EE5clearEv
0000000000025d40 W _ZNSt6vectorISt10shared_ptrIN15InstructionUtil14CodePopulationEESaIS3_EE9push_backEOS3_
000000000002ec32 W _ZNSt6vectorISt10shared_ptrIN15InstructionUtil14CodePopulationEESaIS3_EEaSERKS5_
000000000002a7b6 W _ZNSt6vectorISt10shared_ptrIN15InstructionUtil14CodePopulationEESaIS3_EEC1EOS5_
0000000000026eba W _ZNSt6vectorISt10shared_ptrIN15InstructionUtil14CodePopulationEESaIS3_EEC1ERKS5_
0000000000025964 W _ZNSt6vectorISt10shared_ptrIN15InstructionUtil14CodePopulationEESaIS3_EEC1Ev
000000000002a7b6 W _ZNSt6vectorISt10shared_ptrIN15InstructionUtil14CodePopulationEESaIS3_EEC2EOS5_
0000000000026eba W _ZNSt6vectorISt10shared_ptrIN15InstructionUtil14CodePopulationEESaIS3_EEC2ERKS5_
0000000000025964 W _ZNSt6vectorISt10shared_ptrIN15InstructionUtil14CodePopulationEESaIS3_EEC2Ev
0000000000025c7c W _ZNSt6vectorISt10shared_ptrIN15InstructionUtil14CodePopulationEESaIS3_EED1Ev
0000000000025c7c W _ZNSt6vectorISt10shared_ptrIN15InstructionUtil14CodePopulationEESaIS3_EED2Ev
00000000000188d7 W _ZNSt6vectorISt4pairIiSt10shared_ptrIN12AssemblyUtil12SectionEntryEEESaIS5_EE11_S_max_sizeERKS6_
0000000000014753 W _ZNSt6vectorISt4pairIiSt10shared_ptrIN12AssemblyUtil12SectionEntryEEESaIS5_EE11_S_relocateEPS5_S8_S8_RS6_
000000000000e9c6 W _ZNSt6vectorISt4pairIiSt10shared_ptrIN12AssemblyUtil12SectionEntryEEESaIS5_EE12emplace_backIJS5_EEERS5_DpOT_
00000000000169dc W _ZNSt6vectorISt4pairIiSt10shared_ptrIN12AssemblyUtil12SectionEntryEEESaIS5_EE14_S_do_relocateEPS5_S8_S8_RS6_St17integral_constantIbLb1EE
0000000000011742 W _ZNSt6vectorISt4pairIiSt10shared_ptrIN12AssemblyUtil12SectionEntryEEESaIS5_EE17_M_realloc_insertIJS5_EEEvN9__gnu_cxx17__normal_iteratorIPS5_S7_EEDpOT_
000000000000d4b8 W _ZNSt6vectorISt4pairIiSt10shared_ptrIN12AssemblyUtil12SectionEntryEEESaIS5_EE3endEv
0000000000011920 W _ZNSt6vectorISt4pairIiSt10shared_ptrIN12AssemblyUtil12SectionEntryEEESaIS5_EE4backEv
000000000000d46c W _ZNSt6vectorISt4pairIiSt10shared_ptrIN12AssemblyUtil12SectionEntryEEESaIS5_EE5beginEv
000000000000d390 W _ZNSt6vectorISt4pairIiSt10shared_ptrIN12AssemblyUtil12SectionEntryEEESaIS5_EE5frontEv
000000000000bb48 W _ZNSt6vectorISt4pairIiSt10shared_ptrIN12AssemblyUtil12SectionEntryEEESaIS5_EE9push_backEOS5_
000000000001ba88 W _ZNSt6vectorISt4pairIiSt10shared_ptrIN12AssemblyUtil12SectionEntryEEESaIS5_EEC1Ev
000000000001ba88 W _ZNSt6vectorISt4pairIiSt10shared_ptrIN12AssemblyUtil12SectionEntryEEESaIS5_EEC2Ev
000000000001c7e4 W _ZNSt6vectorISt4pairIiSt10shared_ptrIN12AssemblyUtil12SectionEntryEEESaIS5_EED1Ev
000000000001c7e4 W _ZNSt6vectorISt4pairIiSt10shared_ptrIN12AssemblyUtil12SectionEntryEEESaIS5_EED2Ev
000000000002bde8 W _ZNSt6vectorISt4pairIMN12AssemblyUtil11InstructionEFvtEN15InstructionUtil11eValueToUseEESaIS7_EE11_S_max_sizeERKS8_
0000000000029f31 W _ZNSt6vectorISt4pairIMN12AssemblyUtil11InstructionEFvtEN15InstructionUtil11eValueToUseEESaIS7_EE17_S_check_init_lenEmRKS8_
0000000000027d2a W _ZNSt6vectorISt4pairIMN12AssemblyUtil11InstructionEFvtEN15InstructionUtil11eValueToUseEESaIS7_EE19_M_range_initializeIPKS7_EEvT_SD_St20forward_iterator_tag
0000000000025dc2 W _ZNSt6vectorISt4pairIMN12AssemblyUtil11InstructionEFvtEN15InstructionUtil11eValueToUseEESaIS7_EE3endEv
0000000000025d76 W _ZNSt6vectorISt4pairIMN12AssemblyUtil11InstructionEFvtEN15InstructionUtil11eValueToUseEESaIS7_EE5beginEv
000000000002682c W _ZNSt6vectorISt4pairIMN12AssemblyUtil11InstructionEFvtEN15InstructionUtil11eValueToUseEESaIS7_EEC1ESt16initializer_listIS7_ERKS8_
0000000000025a76 W _ZNSt6vectorISt4pairIMN12AssemblyUtil11InstructionEFvtEN15InstructionUtil11eValueToUseEESaIS7_EEC1Ev
000000000002682c W _ZNSt6vectorISt4pairIMN12AssemblyUtil11InstructionEFvtEN15InstructionUtil11eValueToUseEESaIS7_EEC2ESt16initializer_listIS7_ERKS8_
0000000000025a76 W _ZNSt6vectorISt4pairIMN12AssemblyUtil11InstructionEFvtEN15InstructionUtil11eValueToUseEESaIS7_EEC2Ev
00000000000267c4 W _ZNSt6vectorISt4pairIMN12AssemblyUtil11InstructionEFvtEN15InstructionUtil11eValueToUseEESaIS7_EED1Ev
00000000000267c4 W _ZNSt6vectorISt4pairIMN12AssemblyUtil11InstructionEFvtEN15InstructionUtil11eValueToUseEESaIS7_EED2Ev
000000000002d626 W _ZNSt6vectorISt4pairIN12AssemblyUtil11InstructionES_ISt10shared_ptrIN15InstructionUtil14CodePopulationEESaIS6_EEESaIS9_EE11_S_max_sizeERKSA_
000000000002a9b5 W _ZNSt6vectorISt4pairIN12AssemblyUtil11InstructionES_ISt10shared_ptrIN15InstructionUtil14CodePopulationEESaIS6_EEESaIS9_EE11_S_relocateEPS9_SC_SC_RSA_
0000000000026fec W _ZNSt6vectorISt4pairIN12AssemblyUtil11InstructionES_ISt10shared_ptrIN15InstructionUtil14CodePopulationEESaIS6_EEESaIS9_EE12emplace_backIJS9_EEERS9_DpOT_
000000000002c450 W _ZNSt6vectorISt4pairIN12AssemblyUtil11InstructionES_ISt10shared_ptrIN15InstructionUtil14CodePopulationEESaIS6_EEESaIS9_EE14_S_do_relocateEPS9_SC_SC_RSA_St17integral_constantIbLb1EE
0000000000029bd2 W _ZNSt6vectorISt4pairIN12AssemblyUtil11InstructionES_ISt10shared_ptrIN15InstructionUtil14CodePopulationEESaIS6_EEESaIS9_EE15_M_erase_at_endEPS9_
000000000002855a W _ZNSt6vectorISt4pairIN12AssemblyUtil11InstructionES_ISt10shared_ptrIN15InstructionUtil14CodePopulationEESaIS6_EEESaIS9_EE17_M_realloc_insertIJS9_EEEvN9__gnu_cxx17__normal_iteratorIPS9_SB_EEDpOT_
0000000000027936 W _ZNSt6vectorISt4pairIN12AssemblyUtil11InstructionES_ISt10shared_ptrIN15InstructionUtil14CodePopulationEESaIS6_EEESaIS9_EE20_M_allocate_and_copyIN9__gnu_cxx17__normal_iteratorIPKS9_SB_EEEEPS9_mT_SJ_
0000000000027aa2 W _ZNSt6vectorISt4pairIN12AssemblyUtil11InstructionES_ISt10shared_ptrIN15InstructionUtil14CodePopulationEESaIS6_EEESaIS9_EE3endEv
000000000002873a W _ZNSt6vectorISt4pairIN12AssemblyUtil11InstructionES_ISt10shared_ptrIN15InstructionUtil14CodePopulationEESaIS6_EEESaIS9_EE4backEv
0000000000027a06 W _ZNSt6vectorISt4pairIN12AssemblyUtil11InstructionES_ISt10shared_ptrIN15InstructionUtil14CodePopulationEESaIS6_EEESaIS9_EE5beginEv
0000000000027826 W _ZNSt6vectorISt4pairIN12AssemblyUtil11InstructionES_ISt10shared_ptrIN15InstructionUtil14CodePopulationEESaIS6_EEESaIS9_EE5clearEv
0000000000025ff6 W _ZNSt6vectorISt4pairIN12AssemblyUtil11InstructionES_ISt10shared_ptrIN15InstructionUtil14CodePopulationEESaIS6_EEESaIS9_EE9push_backEOS9_
00000000000263aa W _ZNSt6vectorISt4pairIN12AssemblyUtil11InstructionES_ISt10shared_ptrIN15InstructionUtil14CodePopulationEESaIS6_EEESaIS9_EEaSERKSB_
00000000000268de W _ZNSt6vectorISt4pairIN12AssemblyUtil11InstructionES_ISt10shared_ptrIN15InstructionUtil14CodePopulationEESaIS6_EEESaIS9_EEC1ERKSB_
0000000000025904 W _ZNSt6vectorISt4pairIN12AssemblyUtil11InstructionES_ISt10shared_ptrIN15InstructionUtil14CodePopulationEESaIS6_EEESaIS9_EEC1Ev
00000000000268de W _ZNSt6vectorISt4pairIN12AssemblyUtil11InstructionES_ISt10shared_ptrIN15InstructionUtil14CodePopulationEESaIS6_EEESaIS9_EEC2ERKSB_
0000000000025904 W _ZNSt6vectorISt4pairIN12AssemblyUtil11InstructionES_ISt10shared_ptrIN15InstructionUtil14CodePopulationEESaIS6_EEESaIS9_EEC2Ev
00000000000269fe W _ZNSt6vectorISt4pairIN12AssemblyUtil11InstructionES_ISt10shared_ptrIN15InstructionUtil14CodePopulationEESaIS6_EEESaIS9_EED1Ev
00000000000269fe W _ZNSt6vectorISt4pairIN12AssemblyUtil11InstructionES_ISt10shared_ptrIN15InstructionUtil14CodePopulationEESaIS6_EEESaIS9_EED2Ev
0000000000031707 W _ZNSt6vectorISt4pairINSt7__cxx1112basic_stringIcSt11char_traitsIcESaIcEEEmESaIS7_EE11_S_max_sizeERKS8_
0000000000031627 W _ZNSt6vectorISt4pairINSt7__cxx1112basic_stringIcSt11char_traitsIcESaIcEEEmESaIS7_EE11_S_relocateEPS7_SA_SA_RS8_
0000000000030eb0 W _ZNSt6vectorISt4pairINSt7__cxx1112basic_stringIcSt11char_traitsIcESaIcEEEmESaIS7_EE12emplace_backIJS7_EEERS7_DpOT_
00000000000316ae W _ZNSt6vectorISt4pairINSt7__cxx1112basic_stringIcSt11char_traitsIcESaIcEEEmESaIS7_EE14_S_do_relocateEPS7_SA_SA_RS8_St17integral_constantIbLb1EE
0000000000031230 W _ZNSt6vectorISt4pairINSt7__cxx1112basic_stringIcSt11char_traitsIcESaIcEEEmESaIS7_EE17_M_realloc_insertIJS7_EEEvN9__gnu_cxx17__normal_iteratorIPS7_S9_EEDpOT_
000000000000d706 W _ZNSt6vectorISt4pairINSt7__cxx1112basic_stringIcSt11char_traitsIcESaIcEEEmESaIS7_EE3endEv
0000000000031410 W _ZNSt6vectorISt4pairINSt7__cxx1112basic_stringIcSt11char_traitsIcESaIcEEEmESaIS7_EE4backEv
000000000000d6ba W _ZNSt6vectorISt4pairINSt7__cxx1112basic_stringIcSt11char_traitsIcESaIcEEEmESaIS7_EE5beginEv
0000000000030dfa W _ZNSt6vectorISt4pairINSt7__cxx1112basic_stringIcSt11char_traitsIcESaIcEEEmESaIS7_EE9push_backEOS7_
000000000000c294 W _ZNSt6vectorISt4pairINSt7__cxx1112basic_stringIcSt11char_traitsIcESaIcEEEmESaIS7_EEC1ERKS9_
000000000001e106 W _ZNSt6vectorISt4pairINSt7__cxx1112basic_stringIcSt11char_traitsIcESaIcEEEmESaIS7_EEC1Ev
000000000000c294 W _ZNSt6vectorISt4pairINSt7__cxx1112basic_stringIcSt11char_traitsIcESaIcEEEmESaIS7_EEC2ERKS9_
000000000001e106 W _ZNSt6vectorISt4pairINSt7__cxx1112basic_stringIcSt11char_traitsIcESaIcEEEmESaIS7_EEC2Ev
000000000000c3b4 W _ZNSt6vectorISt4pairINSt7__cxx1112basic_stringIcSt11char_traitsIcESaIcEEEmESaIS7_EED1Ev
000000000000c3b4 W _ZNSt6vectorISt4pairINSt7__cxx1112basic_stringIcSt11char_traitsIcESaIcEEEmESaIS7_EED2Ev
                 U _ZNSt7__cxx1112basic_stringIcSt11char_traitsIcESaIcEE10_M_disposeEv@GLIBCXX_3.4.21
                 U _ZNSt7__cxx1112basic_stringIcSt11char_traitsIcESaIcEE11_M_capacityEm@GLIBCXX_3.4.21
                 U _ZNSt7__cxx1112basic_stringIcSt11char_traitsIcESaIcEE12_Alloc_hiderC1EPcRKS3_@GLIBCXX_3.4.21
000000000000b9b4 W _ZNSt7__cxx1112basic_stringIcSt11char_traitsIcESaIcEE12_Alloc_hiderD1Ev
000000000000b9b4 W _ZNSt7__cxx1112basic_stringIcSt11char_traitsIcESaIcEE12_Alloc_hiderD2Ev
                 U _ZNSt7__cxx1112basic_stringIcSt11char_traitsIcESaIcEE12_M_constructEmc@GLIBCXX_3.4.21
000000000000e718 W _ZNSt7__cxx1112basic_stringIcSt11char_traitsIcESaIcEE12_M_constructIPKcEEvT_S8_St20forward_iterator_tag
                 U _ZNSt7__cxx1112basic_stringIcSt11char_traitsIcESaIcEE13_M_local_dataEv@GLIBCXX_3.4.21
                 U _ZNSt7__cxx1112basic_stringIcSt11char_traitsIcESaIcEE13_M_set_lengthEm@GLIBCXX_3.4.21
                 U _ZNSt7__cxx1112basic_stringIcSt11char_traitsIcESaIcEE13_S_copy_charsEPcPKcS7_@GLIBCXX_3.4.21
                 U _ZNSt7__cxx1112basic_stringIcSt11char_traitsIcESaIcEE4swapERS4_@GLIBCXX_3.4.21
                 U _ZNSt7__cxx1112basic_stringIcSt11char_traitsIcESaIcEE6appendEPKc@GLIBCXX_3.4.21
                 U _ZNSt7__cxx1112basic_stringIcSt11char_traitsIcESaIcEE6appendEPKcm@GLIBCXX_3.4.21
                 U _ZNSt7__cxx1112basic_stringIcSt11char_traitsIcESaIcEE6appendERKS4_@GLIBCXX_3.4.21
                 U _ZNSt7__cxx1112basic_stringIcSt11char_traitsIcESaIcEE6insertEmRKS4_@GLIBCXX_3.4.21
                 U _ZNSt7__cxx1112basic_stringIcSt11char_traitsIcESaIcEE7_M_dataEPc@GLIBCXX_3.4.21
                 U _ZNSt7__cxx1112basic_stringIcSt11char_traitsIcESaIcEE7reserveEm@GLIBCXX_3.4.21
                 U _ZNSt7__cxx1112basic_stringIcSt11char_traitsIcESaIcEE9_M_createERmm@GLIBCXX_3.4.21
                 U _ZNSt7__cxx1112basic_stringIcSt11char_traitsIcESaIcEEaSEOS4_@GLIBCXX_3.4.21
                 U _ZNSt7__cxx1112basic_stringIcSt11char_traitsIcESaIcEEaSERKS4_@GLIBCXX_3.4.21
                 U _ZNSt7__cxx1112basic_stringIcSt11char_traitsIcESaIcEEC1EOS4_@GLIBCXX_3.4.21
                 U _ZNSt7__cxx1112basic_stringIcSt11char_traitsIcESaIcEEC1ERKS3_@GLIBCXX_3.4.21
                 U _ZNSt7__cxx1112basic_stringIcSt11char_traitsIcESaIcEEC1ERKS4_@GLIBCXX_3.4.21
                 U _ZNSt7__cxx1112basic_stringIcSt11char_traitsIcESaIcEEC1Ev@GLIBCXX_3.4.21
000000000001fe9e W _ZNSt7__cxx1112basic_stringIcSt11char_traitsIcESaIcEEC1IS3_EEmcRKS3_
000000000000ba02 W _ZNSt7__cxx1112basic_stringIcSt11char_traitsIcESaIcEEC1IS3_EEPKcRKS3_
000000000001fe9e W _ZNSt7__cxx1112basic_stringIcSt11char_traitsIcESaIcEEC2IS3_EEmcRKS3_
000000000000ba02 W _ZNSt7__cxx1112basic_stringIcSt11char_traitsIcESaIcEEC2IS3_EEPKcRKS3_
                 U _ZNSt7__cxx1112basic_stringIcSt11char_traitsIcESaIcEED1Ev@GLIBCXX_3.4.21
                 U _ZNSt7__cxx1112basic_stringIcSt11char_traitsIcESaIcEEixEm@GLIBCXX_3.4.21
000000000000a912 W _ZNSt7__cxx114stoiERKNS_12basic_stringIcSt11char_traitsIcESaIcEEEPmi
0000000000030bdb W _ZNSt7__cxx115stoulERKNS_12basic_stringIcSt11char_traitsIcESaIcEEEPmi
000000000001fc25 W _ZNSt7__cxx119to_stringEi
0000000000034c16 W _ZNSt8__detail10_AllocNodeISaINS_10_Hash_nodeISt4pairIKNSt7__cxx1112basic_stringIcSt11char_traitsIcESaIcEEEN10ParserUtil4eCSREELb1EEEEEC1ERNS_16_Hashtable_allocISE_EE
0000000000034c16 W _ZNSt8__detail10_AllocNodeISaINS_10_Hash_nodeISt4pairIKNSt7__cxx1112basic_stringIcSt11char_traitsIcESaIcEEEN10ParserUtil4eCSREELb1EEEEEC2ERNS_16_Hashtable_allocISE_EE
000000000003439e W _ZNSt8__detail10_AllocNodeISaINS_10_Hash_nodeISt4pairIKNSt7__cxx1112basic_stringIcSt11char_traitsIcESaIcEEEN10ParserUtil4eGPREELb1EEEEEC1ERNS_16_Hashtable_allocISE_EE
000000000003439e W _ZNSt8__detail10_AllocNodeISaINS_10_Hash_nodeISt4pairIKNSt7__cxx1112basic_stringIcSt11char_traitsIcESaIcEEEN10ParserUtil4eGPREELb1EEEEEC2ERNS_16_Hashtable_allocISE_EE
0000000000033eca W _ZNSt8__detail10_Hash_nodeISt4pairIKNSt7__cxx1112basic_stringIcSt11char_traitsIcESaIcEEEN10ParserUtil4eCSREELb1EEC1Ev
0000000000033eca W _ZNSt8__detail10_Hash_nodeISt4pairIKNSt7__cxx1112basic_stringIcSt11char_traitsIcESaIcEEEN10ParserUtil4eCSREELb1EEC2Ev
000000000003380c W _ZNSt8__detail10_Hash_nodeISt4pairIKNSt7__cxx1112basic_stringIcSt11char_traitsIcESaIcEEEN10ParserUtil4eGPREELb1EEC1Ev
000000000003380c W _ZNSt8__detail10_Hash_nodeISt4pairIKNSt7__cxx1112basic_stringIcSt11char_traitsIcESaIcEEEN10ParserUtil4eGPREELb1EEC2Ev
0000000000034c04 W _ZNSt8__detail12_Insert_baseINSt7__cxx1112basic_stringIcSt11char_traitsIcESaIcEEESt4pairIKS6_N10ParserUtil4eCSREESaISB_ENS_10_Select1stESt8equal_toIS6_ESt4hashIS6_ENS_18_Mod_range_hashingENS_20_Default_ranged_hashENS_20_Prime_rehash_policyENS_17_Hashtable_traitsILb1ELb0ELb1EEEE20_M_conjure_hashtableEv
0000000000033c2a W _ZNSt8__detail12_Insert_baseINSt7__cxx1112basic_stringIcSt11char_traitsIcESaIcEEESt4pairIKS6_N10ParserUtil4eCSREESaISB_ENS_10_Select1stESt8equal_toIS6_ESt4hashIS6_ENS_18_Mod_range_hashingENS_20_Default_ranged_hashENS_20_Prime_rehash_policyENS_17_Hashtable_traitsILb1ELb0ELb1EEEE6insertERKSB_
000000000003438c W _ZNSt8__detail12_Insert_baseINSt7__cxx1112basic_stringIcSt11char_traitsIcESaIcEEESt4pairIKS6_N10ParserUtil4eGPREESaISB_ENS_10_Select1stESt8equal_toIS6_ESt4hashIS6_ENS_18_Mod_range_hashingENS_20_Default_ranged_hashENS_20_Prime_rehash_policyENS_17_Hashtable_traitsILb1ELb0ELb1EEEE20_M_conjure_hashtableEv
000000000003356c W _ZNSt8__detail12_Insert_baseINSt7__cxx1112basic_stringIcSt11char_traitsIcESaIcEEESt4pairIKS6_N10ParserUtil4eGPREESaISB_ENS_10_Select1stESt8equal_toIS6_ESt4hashIS6_ENS_18_Mod_range_hashingENS_20_Default_ranged_hashENS_20_Prime_rehash_policyENS_17_Hashtable_traitsILb1ELb0ELb1EEEE6insertERKSB_
00000000000341f8 W _ZNSt8__detail14_Node_iteratorISt4pairIKNSt7__cxx1112basic_stringIcSt11char_traitsIcESaIcEEEN10ParserUtil4eCSREELb0ELb1EEC1EPNS_10_Hash_nodeISB_Lb1EEE
00000000000341f8 W _ZNSt8__detail14_Node_iteratorISt4pairIKNSt7__cxx1112basic_stringIcSt11char_traitsIcESaIcEEEN10ParserUtil4eCSREELb0ELb1EEC2EPNS_10_Hash_nodeISB_Lb1EEE
0000000000033b3a W _ZNSt8__detail14_Node_iteratorISt4pairIKNSt7__cxx1112basic_stringIcSt11char_traitsIcESaIcEEEN10ParserUtil4eGPREELb0ELb1EEC1EPNS_10_Hash_nodeISB_Lb1EEE
0000000000033b3a W _ZNSt8__detail14_Node_iteratorISt4pairIKNSt7__cxx1112basic_stringIcSt11char_traitsIcESaIcEEEN10ParserUtil4eGPREELb0ELb1EEC2EPNS_10_Hash_nodeISB_Lb1EEE
000000000001fd34 W _ZNSt8__detail14__to_chars_lenIjEEjT_i
00000000000361b2 W _ZNSt8__detail15_Hash_code_baseINSt7__cxx1112basic_stringIcSt11char_traitsIcESaIcEEESt4pairIKS6_N10ParserUtil4eCSREENS_10_Select1stESt4hashIS6_ENS_18_Mod_range_hashingENS_20_Default_ranged_hashELb1EEC1ERKSE_
00000000000361b2 W _ZNSt8__detail15_Hash_code_baseINSt7__cxx1112basic_stringIcSt11char_traitsIcESaIcEEESt4pairIKS6_N10ParserUtil4eCSREENS_10_Select1stESt4hashIS6_ENS_18_Mod_range_hashingENS_20_Default_ranged_hashELb1EEC2ERKSE_
0000000000035ea6 W _ZNSt8__detail15_Hash_code_baseINSt7__cxx1112basic_stringIcSt11char_traitsIcESaIcEEESt4pairIKS6_N10ParserUtil4eGPREENS_10_Select1stESt4hashIS6_ENS_18_Mod_range_hashingENS_20_Default_ranged_hashELb1EEC1ERKSE_
0000000000035ea6 W _ZNSt8__detail15_Hash_code_baseINSt7__cxx1112basic_stringIcSt11char_traitsIcESaIcEEESt4pairIKS6_N10ParserUtil4eGPREENS_10_Select1stESt4hashIS6_ENS_18_Mod_range_hashingENS_20_Default_ranged_hashELb1EEC2ERKSE_
0000000000032028 W _ZNSt8__detail15_Hash_node_baseC1Ev
0000000000032028 W _ZNSt8__detail15_Hash_node_baseC2Ev
0000000000035be9 W _ZNSt8__detail15_Hashtable_baseINSt7__cxx1112basic_stringIcSt11char_traitsIcESaIcEEESt4pairIKS6_N10ParserUtil4eCSREENS_10_Select1stESt8equal_toIS6_ESt4hashIS6_ENS_18_Mod_range_hashingENS_20_Default_ranged_hashENS_17_Hashtable_traitsILb1ELb0ELb1EEEE9_S_equalsEmRKNS_21_Hash_node_code_cacheILb1EEE
0000000000035946 W _ZNSt8__detail15_Hashtable_baseINSt7__cxx1112basic_stringIcSt11char_traitsIcESaIcEEESt4pairIKS6_N10ParserUtil4eCSREENS_10_Select1stESt8equal_toIS6_ESt4hashIS6_ENS_18_Mod_range_hashingENS_20_Default_ranged_hashENS_17_Hashtable_traitsILb1ELb0ELb1EEEEC1ERKSG_RKSE_
0000000000035946 W _ZNSt8__detail15_Hashtable_baseINSt7__cxx1112basic_stringIcSt11char_traitsIcESaIcEEESt4pairIKS6_N10ParserUtil4eCSREENS_10_Select1stESt8equal_toIS6_ESt4hashIS6_ENS_18_Mod_range_hashingENS_20_Default_ranged_hashENS_17_Hashtable_traitsILb1ELb0ELb1EEEEC2ERKSG_RKSE_
0000000000035647 W _ZNSt8__detail15_Hashtable_baseINSt7__cxx1112basic_stringIcSt11char_traitsIcESaIcEEESt4pairIKS6_N10ParserUtil4eGPREENS_10_Select1stESt8equal_toIS6_ESt4hashIS6_ENS_18_Mod_range_hashingENS_20_Default_ranged_hashENS_17_Hashtable_traitsILb1ELb0ELb1EEEE9_S_equalsEmRKNS_21_Hash_node_code_cacheILb1EEE
0000000000035324 W _ZNSt8__detail15_Hashtable_baseINSt7__cxx1112basic_stringIcSt11char_traitsIcESaIcEEESt4pairIKS6_N10ParserUtil4eGPREENS_10_Select1stESt8equal_toIS6_ESt4hashIS6_ENS_18_Mod_range_hashingENS_20_Default_ranged_hashENS_17_Hashtable_traitsILb1ELb0ELb1EEEEC1ERKSG_RKSE_
0000000000035324 W _ZNSt8__detail15_Hashtable_baseINSt7__cxx1112basic_stringIcSt11char_traitsIcESaIcEEESt4pairIKS6_N10ParserUtil4eGPREENS_10_Select1stESt8equal_toIS6_ESt4hashIS6_ENS_18_Mod_range_hashingENS_20_Default_ranged_hashENS_17_Hashtable_traitsILb1ELb0ELb1EEEEC2ERKSG_RKSE_
0000000000036254 W _ZNSt8__detail16_Hashtable_allocISaINS_10_Hash_nodeISt4pairIKNSt7__cxx1112basic_stringIcSt11char_traitsIcESaIcEEEN10ParserUtil4eCSREELb1EEEEE16_M_allocate_nodeIJRKSC_EEEPSD_DpOT_
0000000000033eea W _ZNSt8__detail16_Hashtable_allocISaINS_10_Hash_nodeISt4pairIKNSt7__cxx1112basic_stringIcSt11char_traitsIcESaIcEEEN10ParserUtil4eCSREELb1EEEEE16_M_allocate_nodeIJRKSt21piecewise_construct_tSt5tupleIJRS9_EESK_IJEEEEEPSD_DpOT_
0000000000034ff0 W _ZNSt8__detail16_Hashtable_allocISaINS_10_Hash_nodeISt4pairIKNSt7__cxx1112basic_stringIcSt11char_traitsIcESaIcEEEN10ParserUtil4eCSREELb1EEEEE17_M_node_allocatorEv
0000000000034012 W _ZNSt8__detail16_Hashtable_allocISaINS_10_Hash_nodeISt4pairIKNSt7__cxx1112basic_stringIcSt11char_traitsIcESaIcEEEN10ParserUtil4eCSREELb1EEEEE18_M_deallocate_nodeEPSD_
00000000000359be W _ZNSt8__detail16_Hashtable_allocISaINS_10_Hash_nodeISt4pairIKNSt7__cxx1112basic_stringIcSt11char_traitsIcESaIcEEEN10ParserUtil4eCSREELb1EEEEE19_M_allocate_bucketsEm
0000000000033cc4 W _ZNSt8__detail16_Hashtable_allocISaINS_10_Hash_nodeISt4pairIKNSt7__cxx1112basic_stringIcSt11char_traitsIcESaIcEEEN10ParserUtil4eCSREELb1EEEEE19_M_deallocate_nodesEPSD_
0000000000034e3c W _ZNSt8__detail16_Hashtable_allocISaINS_10_Hash_nodeISt4pairIKNSt7__cxx1112basic_stringIcSt11char_traitsIcESaIcEEEN10ParserUtil4eCSREELb1EEEEE21_M_deallocate_bucketsEPPNS_15_Hash_node_baseEm
000000000003511a W _ZNSt8__detail16_Hashtable_allocISaINS_10_Hash_nodeISt4pairIKNSt7__cxx1112basic_stringIcSt11char_traitsIcESaIcEEEN10ParserUtil4eCSREELb1EEEEE22_M_deallocate_node_ptrEPSD_
0000000000035988 W _ZNSt8__detail16_Hashtable_allocISaINS_10_Hash_nodeISt4pairIKNSt7__cxx1112basic_stringIcSt11char_traitsIcESaIcEEEN10ParserUtil4eCSREELb1EEEEEC1ISE_EEOT_
0000000000035988 W _ZNSt8__detail16_Hashtable_allocISaINS_10_Hash_nodeISt4pairIKNSt7__cxx1112basic_stringIcSt11char_traitsIcESaIcEEEN10ParserUtil4eCSREELb1EEEEEC2ISE_EEOT_
00000000000329f2 W _ZNSt8__detail16_Hashtable_allocISaINS_10_Hash_nodeISt4pairIKNSt7__cxx1112basic_stringIcSt11char_traitsIcESaIcEEEN10ParserUtil4eCSREELb1EEEEED1Ev
00000000000329f2 W _ZNSt8__detail16_Hashtable_allocISaINS_10_Hash_nodeISt4pairIKNSt7__cxx1112basic_stringIcSt11char_traitsIcESaIcEEEN10ParserUtil4eCSREELb1EEEEED2Ev
0000000000035fac W _ZNSt8__detail16_Hashtable_allocISaINS_10_Hash_nodeISt4pairIKNSt7__cxx1112basic_stringIcSt11char_traitsIcESaIcEEEN10ParserUtil4eGPREELb1EEEEE16_M_allocate_nodeIJRKSC_EEEPSD_DpOT_
000000000003382c W _ZNSt8__detail16_Hashtable_allocISaINS_10_Hash_nodeISt4pairIKNSt7__cxx1112basic_stringIcSt11char_traitsIcESaIcEEEN10ParserUtil4eGPREELb1EEEEE16_M_allocate_nodeIJRKSt21piecewise_construct_tSt5tupleIJRS9_EESK_IJEEEEEPSD_DpOT_
000000000003478a W _ZNSt8__detail16_Hashtable_allocISaINS_10_Hash_nodeISt4pairIKNSt7__cxx1112basic_stringIcSt11char_traitsIcESaIcEEEN10ParserUtil4eGPREELb1EEEEE17_M_node_allocatorEv
0000000000033954 W _ZNSt8__detail16_Hashtable_allocISaINS_10_Hash_nodeISt4pairIKNSt7__cxx1112basic_stringIcSt11char_traitsIcESaIcEEEN10ParserUtil4eGPREELb1EEEEE18_M_deallocate_nodeEPSD_
00000000000353ac W _ZNSt8__detail16_Hashtable_allocISaINS_10_Hash_nodeISt4pairIKNSt7__cxx1112basic_stringIcSt11char_traitsIcESaIcEEEN10ParserUtil4eGPREELb1EEEEE19_M_allocate_bucketsEm
0000000000033606 W _ZNSt8__detail16_Hashtable_allocISaINS_10_Hash_nodeISt4pairIKNSt7__cxx1112basic_stringIcSt11char_traitsIcESaIcEEEN10ParserUtil4eGPREELb1EEEEE19_M_deallocate_nodesEPSD_
00000000000345c4 W _ZNSt8__detail16_Hashtable_allocISaINS_10_Hash_nodeISt4pairIKNSt7__cxx1112basic_stringIcSt11char_traitsIcESaIcEEEN10ParserUtil4eGPREELb1EEEEE21_M_deallocate_bucketsEPPNS_15_Hash_node_baseEm
00000000000348b4 W _ZNSt8__detail16_Hashtable_allocISaINS_10_Hash_nodeISt4pairIKNSt7__cxx1112basic_stringIcSt11char_traitsIcESaIcEEEN10ParserUtil4eGPREELb1EEEEE22_M_deallocate_node_ptrEPSD_
0000000000035366 W _ZNSt8__detail16_Hashtable_allocISaINS_10_Hash_nodeISt4pairIKNSt7__cxx1112basic_stringIcSt11char_traitsIcESaIcEEEN10ParserUtil4eGPREELb1EEEEEC1ISE_EEOT_
0000000000035366 W _ZNSt8__detail16_Hashtable_allocISaINS_10_Hash_nodeISt4pairIKNSt7__cxx1112basic_stringIcSt11char_traitsIcESaIcEEEN10ParserUtil4eGPREELb1EEEEEC2ISE_EEOT_
0000000000032784 W _ZNSt8__detail16_Hashtable_allocISaINS_10_Hash_nodeISt4pairIKNSt7__cxx1112basic_stringIcSt11char_traitsIcESaIcEEEN10ParserUtil4eGPREELb1EEEEED1Ev
0000000000032784 W _ZNSt8__detail16_Hashtable_allocISaINS_10_Hash_nodeISt4pairIKNSt7__cxx1112basic_stringIcSt11char_traitsIcESaIcEEEN10ParserUtil4eGPREELb1EEEEED2Ev
000000000001ff1e W _ZNSt8__detail18__to_chars_10_implIjEEvPcjT_
00000000000352e2 W _ZNSt8__detail19_Node_iterator_baseISt4pairIKNSt7__cxx1112basic_stringIcSt11char_traitsIcESaIcEEEN10ParserUtil4eCSREELb1EEC1EPNS_10_Hash_nodeISB_Lb1EEE
00000000000352e2 W _ZNSt8__detail19_Node_iterator_baseISt4pairIKNSt7__cxx1112basic_stringIcSt11char_traitsIcESaIcEEEN10ParserUtil4eCSREELb1EEC2EPNS_10_Hash_nodeISB_Lb1EEE
0000000000034a7c W _ZNSt8__detail19_Node_iterator_baseISt4pairIKNSt7__cxx1112basic_stringIcSt11char_traitsIcESaIcEEEN10ParserUtil4eGPREELb1EEC1EPNS_10_Hash_nodeISB_Lb1EEE
0000000000034a7c W _ZNSt8__detail19_Node_iterator_baseISt4pairIKNSt7__cxx1112basic_stringIcSt11char_traitsIcESaIcEEEN10ParserUtil4eGPREELb1EEC2EPNS_10_Hash_nodeISB_Lb1EEE
00000000000320ac W _ZNSt8__detail20_Prime_rehash_policy8_M_resetEm
0000000000032068 W _ZNSt8__detail20_Prime_rehash_policyC1Ef
0000000000032068 W _ZNSt8__detail20_Prime_rehash_policyC2Ef
0000000000033280 W _ZNSt8__detail21_Hash_node_value_baseISt4pairIKNSt7__cxx1112basic_stringIcSt11char_traitsIcESaIcEEEN10ParserUtil4eCSREEE4_M_vEv
0000000000033eac W _ZNSt8__detail21_Hash_node_value_baseISt4pairIKNSt7__cxx1112basic_stringIcSt11char_traitsIcESaIcEEEN10ParserUtil4eCSREEE9_M_valptrEv
0000000000032dfc W _ZNSt8__detail21_Hash_node_value_baseISt4pairIKNSt7__cxx1112basic_stringIcSt11char_traitsIcESaIcEEEN10ParserUtil4eGPREEE4_M_vEv
00000000000337ee W _ZNSt8__detail21_Hash_node_value_baseISt4pairIKNSt7__cxx1112basic_stringIcSt11char_traitsIcESaIcEEEN10ParserUtil4eGPREEE9_M_valptrEv
0000000000035cb0 W _ZNSt8__detail21_Hashtable_ebo_helperILi0ESaINS_10_Hash_nodeISt4pairIKNSt7__cxx1112basic_stringIcSt11char_traitsIcESaIcEEEN10ParserUtil4eCSREELb1EEEELb1EE6_M_getEv
00000000000361ee W _ZNSt8__detail21_Hashtable_ebo_helperILi0ESaINS_10_Hash_nodeISt4pairIKNSt7__cxx1112basic_stringIcSt11char_traitsIcESaIcEEEN10ParserUtil4eCSREELb1EEEELb1EEC1ISE_EEOT_
00000000000361ee W _ZNSt8__detail21_Hashtable_ebo_helperILi0ESaINS_10_Hash_nodeISt4pairIKNSt7__cxx1112basic_stringIcSt11char_traitsIcESaIcEEEN10ParserUtil4eCSREELb1EEEELb1EEC2ISE_EEOT_
00000000000329d2 W _ZNSt8__detail21_Hashtable_ebo_helperILi0ESaINS_10_Hash_nodeISt4pairIKNSt7__cxx1112basic_stringIcSt11char_traitsIcESaIcEEEN10ParserUtil4eCSREELb1EEEELb1EED1Ev
00000000000329d2 W _ZNSt8__detail21_Hashtable_ebo_helperILi0ESaINS_10_Hash_nodeISt4pairIKNSt7__cxx1112basic_stringIcSt11char_traitsIcESaIcEEEN10ParserUtil4eCSREELb1EEEELb1EED2Ev
000000000003573c W _ZNSt8__detail21_Hashtable_ebo_helperILi0ESaINS_10_Hash_nodeISt4pairIKNSt7__cxx1112basic_stringIcSt11char_traitsIcESaIcEEEN10ParserUtil4eGPREELb1EEEELb1EE6_M_getEv
0000000000035f06 W _ZNSt8__detail21_Hashtable_ebo_helperILi0ESaINS_10_Hash_nodeISt4pairIKNSt7__cxx1112basic_stringIcSt11char_traitsIcESaIcEEEN10ParserUtil4eGPREELb1EEEELb1EEC1ISE_EEOT_
0000000000035f06 W _ZNSt8__detail21_Hashtable_ebo_helperILi0ESaINS_10_Hash_nodeISt4pairIKNSt7__cxx1112basic_stringIcSt11char_traitsIcESaIcEEEN10ParserUtil4eGPREELb1EEEELb1EEC2ISE_EEOT_
0000000000032764 W _ZNSt8__detail21_Hashtable_ebo_helperILi0ESaINS_10_Hash_nodeISt4pairIKNSt7__cxx1112basic_stringIcSt11char_traitsIcESaIcEEEN10ParserUtil4eGPREELb1EEEELb1EED1Ev
0000000000032764 W _ZNSt8__detail21_Hashtable_ebo_helperILi0ESaINS_10_Hash_nodeISt4pairIKNSt7__cxx1112basic_stringIcSt11char_traitsIcESaIcEEEN10ParserUtil4eGPREELb1EEEELb1EED2Ev
0000000000035ed0 W _ZNSt8__detail21_Hashtable_ebo_helperILi0ESt8equal_toINSt7__cxx1112basic_stringIcSt11char_traitsIcESaIcEEEELb1EEC1IRKS8_EEOT_
0000000000035ed0 W _ZNSt8__detail21_Hashtable_ebo_helperILi0ESt8equal_toINSt7__cxx1112basic_stringIcSt11char_traitsIcESaIcEEEELb1EEC2IRKS8_EEOT_
00000000000363c4 W _ZNSt8__detail21_Hashtable_ebo_helperILi1ESt4hashINSt7__cxx1112basic_stringIcSt11char_traitsIcESaIcEEEELb1EEC1IRKS8_EEOT_
00000000000363c4 W _ZNSt8__detail21_Hashtable_ebo_helperILi1ESt4hashINSt7__cxx1112basic_stringIcSt11char_traitsIcESaIcEEEELb1EEC2IRKS8_EEOT_
0000000000032a4a W _ZNSt8__detail9_Map_baseINSt7__cxx1112basic_stringIcSt11char_traitsIcESaIcEEESt4pairIKS6_N10ParserUtil4eCSREESaISB_ENS_10_Select1stESt8equal_toIS6_ESt4hashIS6_ENS_18_Mod_range_hashingENS_20_Default_ranged_hashENS_20_Prime_rehash_policyENS_17_Hashtable_traitsILb1ELb0ELb1EEELb1EEixERS8_
00000000000327dc W _ZNSt8__detail9_Map_baseINSt7__cxx1112basic_stringIcSt11char_traitsIcESaIcEEESt4pairIKS6_N10ParserUtil4eGPREESaISB_ENS_10_Select1stESt8equal_toIS6_ESt4hashIS6_ENS_18_Mod_range_hashingENS_20_Default_ranged_hashENS_20_Prime_rehash_policyENS_17_Hashtable_traitsILb1ELb0ELb1EEELb1EEixERS8_
                 U _ZNSt8ios_base4InitC1Ev@GLIBCXX_3.4
                 U _ZNSt8ios_base4InitD1Ev@GLIBCXX_3.4
000000000000ad24 W _ZNSt8ios_base4setfESt13_Ios_FmtflagsS0_
0000000000028e32 W _ZNSt8_Rb_treeIN10ParserUtil12eOperandTypeESt4pairIKS1_St3mapINS0_15eAddressingTypeESt6vectorIS2_IN12AssemblyUtil11InstructionES6_ISt10shared_ptrIN15InstructionUtil14CodePopulationEESaISC_EEESaISF_EESt4lessIS5_ESaIS2_IKS5_SH_EEEESt10_Select1stISO_ESI_IS1_ESaISO_EE11lower_boundERS3_
000000000002b0d2 W _ZNSt8_Rb_treeIN10ParserUtil12eOperandTypeESt4pairIKS1_St3mapINS0_15eAddressingTypeESt6vectorIS2_IN12AssemblyUtil11InstructionES6_ISt10shared_ptrIN15InstructionUtil14CodePopulationEESaISC_EEESaISF_EESt4lessIS5_ESaIS2_IKS5_SH_EEEESt10_Select1stISO_ESI_IS1_ESaISO_EE11_M_get_nodeEv
000000000002b412 W _ZNSt8_Rb_treeIN10ParserUtil12eOperandTypeESt4pairIKS1_St3mapINS0_15eAddressingTypeESt6vectorIS2_IN12AssemblyUtil11InstructionES6_ISt10shared_ptrIN15InstructionUtil14CodePopulationEESaISC_EEESaISF_EESt4lessIS5_ESaIS2_IKS5_SH_EEEESt10_Select1stISO_ESI_IS1_ESaISO_EE11_M_leftmostEv
000000000002b510 W _ZNSt8_Rb_treeIN10ParserUtil12eOperandTypeESt4pairIKS1_St3mapINS0_15eAddressingTypeESt6vectorIS2_IN12AssemblyUtil11InstructionES6_ISt10shared_ptrIN15InstructionUtil14CodePopulationEESaISC_EEESaISF_EESt4lessIS5_ESaIS2_IKS5_SH_EEEESt10_Select1stISO_ESI_IS1_ESaISO_EE11_M_put_nodeEPSt13_Rb_tree_nodeISO_E
00000000000294a6 W _ZNSt8_Rb_treeIN10ParserUtil12eOperandTypeESt4pairIKS1_St3mapINS0_15eAddressingTypeESt6vectorIS2_IN12AssemblyUtil11InstructionES6_ISt10shared_ptrIN15InstructionUtil14CodePopulationEESaISC_EEESaISF_EESt4lessIS5_ESaIS2_IKS5_SH_EEEESt10_Select1stISO_ESI_IS1_ESaISO_EE12_M_drop_nodeEPSt13_Rb_tree_nodeISO_E
000000000002b242 W _ZNSt8_Rb_treeIN10ParserUtil12eOperandTypeESt4pairIKS1_St3mapINS0_15eAddressingTypeESt6vectorIS2_IN12AssemblyUtil11InstructionES6_ISt10shared_ptrIN15InstructionUtil14CodePopulationEESaISC_EEESaISF_EESt4lessIS5_ESaIS2_IKS5_SH_EEEESt10_Select1stISO_ESI_IS1_ESaISO_EE12_M_rightmostEv
000000000002ef8c W _ZNSt8_Rb_treeIN10ParserUtil12eOperandTypeESt4pairIKS1_St3mapINS0_15eAddressingTypeESt6vectorIS2_IN12AssemblyUtil11InstructionES6_ISt10shared_ptrIN15InstructionUtil14CodePopulationEESaISC_EEESaISF_EESt4lessIS5_ESaIS2_IKS5_SH_EEEESt10_Select1stISO_ESI_IS1_ESaISO_EE13_Rb_tree_implISR_Lb1EEC1Ev
000000000002ef8c W _ZNSt8_Rb_treeIN10ParserUtil12eOperandTypeESt4pairIKS1_St3mapINS0_15eAddressingTypeESt6vectorIS2_IN12AssemblyUtil11InstructionES6_ISt10shared_ptrIN15InstructionUtil14CodePopulationEESaISC_EEESaISF_EESt4lessIS5_ESaIS2_IKS5_SH_EEEESt10_Select1stISO_ESI_IS1_ESaISO_EE13_Rb_tree_implISR_Lb1EEC2Ev
000000000002de84 W _ZNSt8_Rb_treeIN10ParserUtil12eOperandTypeESt4pairIKS1_St3mapINS0_15eAddressingTypeESt6vectorIS2_IN12AssemblyUtil11InstructionES6_ISt10shared_ptrIN15InstructionUtil14CodePopulationEESaISC_EEESaISF_EESt4lessIS5_ESaIS2_IKS5_SH_EEEESt10_Select1stISO_ESI_IS1_ESaISO_EE13_Rb_tree_implISR_Lb1EED1Ev
000000000002de84 W _ZNSt8_Rb_treeIN10ParserUtil12eOperandTypeESt4pairIKS1_St3mapINS0_15eAddressingTypeESt6vectorIS2_IN12AssemblyUtil11InstructionES6_ISt10shared_ptrIN15InstructionUtil14CodePopulationEESaISC_EEESaISF_EESt4lessIS5_ESaIS2_IKS5_SH_EEEESt10_Select1stISO_ESI_IS1_ESaISO_EE13_Rb_tree_implISR_Lb1EED2Ev
0000000000028f40 W _ZNSt8_Rb_treeIN10ParserUtil12eOperandTypeESt4pairIKS1_St3mapINS0_15eAddressingTypeESt6vectorIS2_IN12AssemblyUtil11InstructionES6_ISt10shared_ptrIN15InstructionUtil14CodePopulationEESaISC_EEESaISF_EESt4lessIS5_ESaIS2_IKS5_SH_EEEESt10_Select1stISO_ESI_IS1_ESaISO_EE14_M_create_nodeIJRKSt21piecewise_construct_tSt5tupleIJRS3_EESY_IJEEEEEPSt13_Rb_tree_nodeISO_EDpOT_
00000000000293bc W _ZNSt8_Rb_treeIN10ParserUtil12eOperandTypeESt4pairIKS1_St3mapINS0_15eAddressingTypeESt6vectorIS2_IN12AssemblyUtil11InstructionES6_ISt10shared_ptrIN15InstructionUtil14CodePopulationEESaISC_EEESaISF_EESt4lessIS5_ESaIS2_IKS5_SH_EEEESt10_Select1stISO_ESI_IS1_ESaISO_EE14_M_insert_nodeEPSt18_Rb_tree_node_baseSV_PSt13_Rb_tree_nodeISO_E
000000000002afda W _ZNSt8_Rb_treeIN10ParserUtil12eOperandTypeESt4pairIKS1_St3mapINS0_15eAddressingTypeESt6vectorIS2_IN12AssemblyUtil11InstructionES6_ISt10shared_ptrIN15InstructionUtil14CodePopulationEESaISC_EEESaISF_EESt4lessIS5_ESaIS2_IKS5_SH_EEEESt10_Select1stISO_ESI_IS1_ESaISO_EE14_M_lower_boundEPSt13_Rb_tree_nodeISO_EPSt18_Rb_tree_node_baseRS3_
000000000002b4ce W _ZNSt8_Rb_treeIN10ParserUtil12eOperandTypeESt4pairIKS1_St3mapINS0_15eAddressingTypeESt6vectorIS2_IN12AssemblyUtil11InstructionES6_ISt10shared_ptrIN15InstructionUtil14CodePopulationEESaISC_EEESaISF_EESt4lessIS5_ESaIS2_IKS5_SH_EEEESt10_Select1stISO_ESI_IS1_ESaISO_EE15_M_destroy_nodeEPSt13_Rb_tree_nodeISO_E
000000000002b0fe W _ZNSt8_Rb_treeIN10ParserUtil12eOperandTypeESt4pairIKS1_St3mapINS0_15eAddressingTypeESt6vectorIS2_IN12AssemblyUtil11InstructionES6_ISt10shared_ptrIN15InstructionUtil14CodePopulationEESaISC_EEESaISF_EESt4lessIS5_ESaIS2_IKS5_SH_EEEESt10_Select1stISO_ESI_IS1_ESaISO_EE17_M_construct_nodeIJRKSt21piecewise_construct_tSt5tupleIJRS3_EESY_IJEEEEEvPSt13_Rb_tree_nodeISO_EDpOT_
000000000002c64e W _ZNSt8_Rb_treeIN10ParserUtil12eOperandTypeESt4pairIKS1_St3mapINS0_15eAddressingTypeESt6vectorIS2_IN12AssemblyUtil11InstructionES6_ISt10shared_ptrIN15InstructionUtil14CodePopulationEESaISC_EEESaISF_EESt4lessIS5_ESaIS2_IKS5_SH_EEEESt10_Select1stISO_ESI_IS1_ESaISO_EE21_M_get_Node_allocatorEv
0000000000027432 W _ZNSt8_Rb_treeIN10ParserUtil12eOperandTypeESt4pairIKS1_St3mapINS0_15eAddressingTypeESt6vectorIS2_IN12AssemblyUtil11InstructionES6_ISt10shared_ptrIN15InstructionUtil14CodePopulationEESaISC_EEESaISF_EESt4lessIS5_ESaIS2_IKS5_SH_EEEESt10_Select1stISO_ESI_IS1_ESaISO_EE22_M_emplace_hint_uniqueIJRKSt21piecewise_construct_tSt5tupleIJRS3_EESY_IJEEEEESt17_Rb_tree_iteratorISO_ESt23_Rb_tree_const_iteratorISO_EDpOT_
000000000002b276 W _ZNSt8_Rb_treeIN10ParserUtil12eOperandTypeESt4pairIKS1_St3mapINS0_15eAddressingTypeESt6vectorIS2_IN12AssemblyUtil11InstructionES6_ISt10shared_ptrIN15InstructionUtil14CodePopulationEESaISC_EEESaISF_EESt4lessIS5_ESaIS2_IKS5_SH_EEEESt10_Select1stISO_ESI_IS1_ESaISO_EE24_M_get_insert_unique_posERS3_
0000000000028fc0 W _ZNSt8_Rb_treeIN10ParserUtil12eOperandTypeESt4pairIKS1_St3mapINS0_15eAddressingTypeESt6vectorIS2_IN12AssemblyUtil11InstructionES6_ISt10shared_ptrIN15InstructionUtil14CodePopulationEESaISC_EEESaISF_EESt4lessIS5_ESaIS2_IKS5_SH_EEEESt10_Select1stISO_ESI_IS1_ESaISO_EE29_M_get_insert_hint_unique_posESt23_Rb_tree_const_iteratorISO_ERS3_
0000000000028e82 W _ZNSt8_Rb_treeIN10ParserUtil12eOperandTypeESt4pairIKS1_St3mapINS0_15eAddressingTypeESt6vectorIS2_IN12AssemblyUtil11InstructionES6_ISt10shared_ptrIN15InstructionUtil14CodePopulationEESaISC_EEESaISF_EESt4lessIS5_ESaIS2_IKS5_SH_EEEESt10_Select1stISO_ESI_IS1_ESaISO_EE3endEv
000000000002c6fe W _ZNSt8_Rb_treeIN10ParserUtil12eOperandTypeESt4pairIKS1_St3mapINS0_15eAddressingTypeESt6vectorIS2_IN12AssemblyUtil11InstructionES6_ISt10shared_ptrIN15InstructionUtil14CodePopulationEESaISC_EEESaISF_EESt4lessIS5_ESaIS2_IKS5_SH_EEEESt10_Select1stISO_ESI_IS1_ESaISO_EE5beginEv
000000000002afc4 W _ZNSt8_Rb_treeIN10ParserUtil12eOperandTypeESt4pairIKS1_St3mapINS0_15eAddressingTypeESt6vectorIS2_IN12AssemblyUtil11InstructionES6_ISt10shared_ptrIN15InstructionUtil14CodePopulationEESaISC_EEESaISF_EESt4lessIS5_ESaIS2_IKS5_SH_EEEESt10_Select1stISO_ESI_IS1_ESaISO_EE6_M_endEv
0000000000029368 W _ZNSt8_Rb_treeIN10ParserUtil12eOperandTypeESt4pairIKS1_St3mapINS0_15eAddressingTypeESt6vectorIS2_IN12AssemblyUtil11InstructionES6_ISt10shared_ptrIN15InstructionUtil14CodePopulationEESaISC_EEESaISF_EESt4lessIS5_ESaIS2_IKS5_SH_EEEESt10_Select1stISO_ESI_IS1_ESaISO_EE6_S_keyEPKSt13_Rb_tree_nodeISO_E
000000000002b258 W _ZNSt8_Rb_treeIN10ParserUtil12eOperandTypeESt4pairIKS1_St3mapINS0_15eAddressingTypeESt6vectorIS2_IN12AssemblyUtil11InstructionES6_ISt10shared_ptrIN15InstructionUtil14CodePopulationEESaISC_EEESaISF_EESt4lessIS5_ESaIS2_IKS5_SH_EEEESt10_Select1stISO_ESI_IS1_ESaISO_EE6_S_keyEPKSt18_Rb_tree_node_base
000000000002c626 W _ZNSt8_Rb_treeIN10ParserUtil12eOperandTypeESt4pairIKS1_St3mapINS0_15eAddressingTypeESt6vectorIS2_IN12AssemblyUtil11InstructionES6_ISt10shared_ptrIN15InstructionUtil14CodePopulationEESaISC_EEESaISF_EESt4lessIS5_ESaIS2_IKS5_SH_EEEESt10_Select1stISO_ESI_IS1_ESaISO_EE7_S_leftEPSt18_Rb_tree_node_base
000000000002afa6 W _ZNSt8_Rb_treeIN10ParserUtil12eOperandTypeESt4pairIKS1_St3mapINS0_15eAddressingTypeESt6vectorIS2_IN12AssemblyUtil11InstructionES6_ISt10shared_ptrIN15InstructionUtil14CodePopulationEESaISC_EEESaISF_EESt4lessIS5_ESaIS2_IKS5_SH_EEEESt10_Select1stISO_ESI_IS1_ESaISO_EE8_M_beginEv
000000000002e3c0 W _ZNSt8_Rb_treeIN10ParserUtil12eOperandTypeESt4pairIKS1_St3mapINS0_15eAddressingTypeESt6vectorIS2_IN12AssemblyUtil11InstructionES6_ISt10shared_ptrIN15InstructionUtil14CodePopulationEESaISC_EEESaISF_EESt4lessIS5_ESaIS2_IKS5_SH_EEEESt10_Select1stISO_ESI_IS1_ESaISO_EE8_M_eraseEPSt13_Rb_tree_nodeISO_E
000000000002b454 W _ZNSt8_Rb_treeIN10ParserUtil12eOperandTypeESt4pairIKS1_St3mapINS0_15eAddressingTypeESt6vectorIS2_IN12AssemblyUtil11InstructionES6_ISt10shared_ptrIN15InstructionUtil14CodePopulationEESaISC_EEESaISF_EESt4lessIS5_ESaIS2_IKS5_SH_EEEESt10_Select1stISO_ESI_IS1_ESaISO_EE8_S_rightEPSt18_Rb_tree_node_base
000000000002e6b0 W _ZNSt8_Rb_treeIN10ParserUtil12eOperandTypeESt4pairIKS1_St3mapINS0_15eAddressingTypeESt6vectorIS2_IN12AssemblyUtil11InstructionES6_ISt10shared_ptrIN15InstructionUtil14CodePopulationEESaISC_EEESaISF_EESt4lessIS5_ESaIS2_IKS5_SH_EEEESt10_Select1stISO_ESI_IS1_ESaISO_EEC1Ev
000000000002e6b0 W _ZNSt8_Rb_treeIN10ParserUtil12eOperandTypeESt4pairIKS1_St3mapINS0_15eAddressingTypeESt6vectorIS2_IN12AssemblyUtil11InstructionES6_ISt10shared_ptrIN15InstructionUtil14CodePopulationEESaISC_EEESaISF_EESt4lessIS5_ESaIS2_IKS5_SH_EEEESt10_Select1stISO_ESI_IS1_ESaISO_EEC2Ev
000000000002dea4 W _ZNSt8_Rb_treeIN10ParserUtil12eOperandTypeESt4pairIKS1_St3mapINS0_15eAddressingTypeESt6vectorIS2_IN12AssemblyUtil11InstructionES6_ISt10shared_ptrIN15InstructionUtil14CodePopulationEESaISC_EEESaISF_EESt4lessIS5_ESaIS2_IKS5_SH_EEEESt10_Select1stISO_ESI_IS1_ESaISO_EED1Ev
000000000002dea4 W _ZNSt8_Rb_treeIN10ParserUtil12eOperandTypeESt4pairIKS1_St3mapINS0_15eAddressingTypeESt6vectorIS2_IN12AssemblyUtil11InstructionES6_ISt10shared_ptrIN15InstructionUtil14CodePopulationEESaISC_EEESaISF_EESt4lessIS5_ESaIS2_IKS5_SH_EEEESt10_Select1stISO_ESI_IS1_ESaISO_EED2Ev
0000000000029502 W _ZNSt8_Rb_treeIN10ParserUtil15eAddressingTypeESt4pairIKS1_St6vectorIS2_IN12AssemblyUtil11InstructionES4_ISt10shared_ptrIN15InstructionUtil14CodePopulationEESaISA_EEESaISD_EEESt10_Select1stISG_ESt4lessIS1_ESaISG_EE11lower_boundERS3_
000000000002b676 W _ZNSt8_Rb_treeIN10ParserUtil15eAddressingTypeESt4pairIKS1_St6vectorIS2_IN12AssemblyUtil11InstructionES4_ISt10shared_ptrIN15InstructionUtil14CodePopulationEESaISA_EEESaISD_EEESt10_Select1stISG_ESt4lessIS1_ESaISG_EE11_M_get_nodeEv
000000000002b9b6 W _ZNSt8_Rb_treeIN10ParserUtil15eAddressingTypeESt4pairIKS1_St6vectorIS2_IN12AssemblyUtil11InstructionES4_ISt10shared_ptrIN15InstructionUtil14CodePopulationEESaISA_EEESaISD_EEESt10_Select1stISG_ESt4lessIS1_ESaISG_EE11_M_leftmostEv
000000000002bab4 W _ZNSt8_Rb_treeIN10ParserUtil15eAddressingTypeESt4pairIKS1_St6vectorIS2_IN12AssemblyUtil11InstructionES4_ISt10shared_ptrIN15InstructionUtil14CodePopulationEESaISA_EEESaISD_EEESt10_Select1stISG_ESt4lessIS1_ESaISG_EE11_M_put_nodeEPSt13_Rb_tree_nodeISG_E
0000000000029b76 W _ZNSt8_Rb_treeIN10ParserUtil15eAddressingTypeESt4pairIKS1_St6vectorIS2_IN12AssemblyUtil11InstructionES4_ISt10shared_ptrIN15InstructionUtil14CodePopulationEESaISA_EEESaISD_EEESt10_Select1stISG_ESt4lessIS1_ESaISG_EE12_M_drop_nodeEPSt13_Rb_tree_nodeISG_E
000000000002b7e6 W _ZNSt8_Rb_treeIN10ParserUtil15eAddressingTypeESt4pairIKS1_St6vectorIS2_IN12AssemblyUtil11InstructionES4_ISt10shared_ptrIN15InstructionUtil14CodePopulationEESaISA_EEESaISD_EEESt10_Select1stISG_ESt4lessIS1_ESaISG_EE12_M_rightmostEv
000000000002eff8 W _ZNSt8_Rb_treeIN10ParserUtil15eAddressingTypeESt4pairIKS1_St6vectorIS2_IN12AssemblyUtil11InstructionES4_ISt10shared_ptrIN15InstructionUtil14CodePopulationEESaISA_EEESaISD_EEESt10_Select1stISG_ESt4lessIS1_ESaISG_EE13_Rb_tree_implISK_Lb1EEC1Ev
000000000002eff8 W _ZNSt8_Rb_treeIN10ParserUtil15eAddressingTypeESt4pairIKS1_St6vectorIS2_IN12AssemblyUtil11InstructionES4_ISt10shared_ptrIN15InstructionUtil14CodePopulationEESaISA_EEESaISD_EEESt10_Select1stISG_ESt4lessIS1_ESaISG_EE13_Rb_tree_implISK_Lb1EEC2Ev
000000000002e25c W _ZNSt8_Rb_treeIN10ParserUtil15eAddressingTypeESt4pairIKS1_St6vectorIS2_IN12AssemblyUtil11InstructionES4_ISt10shared_ptrIN15InstructionUtil14CodePopulationEESaISA_EEESaISD_EEESt10_Select1stISG_ESt4lessIS1_ESaISG_EE13_Rb_tree_implISK_Lb1EED1Ev
000000000002e25c W _ZNSt8_Rb_treeIN10ParserUtil15eAddressingTypeESt4pairIKS1_St6vectorIS2_IN12AssemblyUtil11InstructionES4_ISt10shared_ptrIN15InstructionUtil14CodePopulationEESaISA_EEESaISD_EEESt10_Select1stISG_ESt4lessIS1_ESaISG_EE13_Rb_tree_implISK_Lb1EED2Ev
0000000000029610 W _ZNSt8_Rb_treeIN10ParserUtil15eAddressingTypeESt4pairIKS1_St6vectorIS2_IN12AssemblyUtil11InstructionES4_ISt10shared_ptrIN15InstructionUtil14CodePopulationEESaISA_EEESaISD_EEESt10_Select1stISG_ESt4lessIS1_ESaISG_EE14_M_create_nodeIJRKSt21piecewise_construct_tSt5tupleIJRS3_EESR_IJEEEEEPSt13_Rb_tree_nodeISG_EDpOT_
0000000000029a8c W _ZNSt8_Rb_treeIN10ParserUtil15eAddressingTypeESt4pairIKS1_St6vectorIS2_IN12AssemblyUtil11InstructionES4_ISt10shared_ptrIN15InstructionUtil14CodePopulationEESaISA_EEESaISD_EEESt10_Select1stISG_ESt4lessIS1_ESaISG_EE14_M_insert_nodeEPSt18_Rb_tree_node_baseSO_PSt13_Rb_tree_nodeISG_E
000000000002b57e W _ZNSt8_Rb_treeIN10ParserUtil15eAddressingTypeESt4pairIKS1_St6vectorIS2_IN12AssemblyUtil11InstructionES4_ISt10shared_ptrIN15InstructionUtil14CodePopulationEESaISA_EEESaISD_EEESt10_Select1stISG_ESt4lessIS1_ESaISG_EE14_M_lower_boundEPSt13_Rb_tree_nodeISG_EPSt18_Rb_tree_node_baseRS3_
000000000002ba72 W _ZNSt8_Rb_treeIN10ParserUtil15eAddressingTypeESt4pairIKS1_St6vectorIS2_IN12AssemblyUtil11InstructionES4_ISt10shared_ptrIN15InstructionUtil14CodePopulationEESaISA_EEESaISD_EEESt10_Select1stISG_ESt4lessIS1_ESaISG_EE15_M_destroy_nodeEPSt13_Rb_tree_nodeISG_E
000000000002b6a2 W _ZNSt8_Rb_treeIN10ParserUtil15eAddressingTypeESt4pairIKS1_St6vectorIS2_IN12AssemblyUtil11InstructionES4_ISt10shared_ptrIN15InstructionUtil14CodePopulationEESaISA_EEESaISD_EEESt10_Select1stISG_ESt4lessIS1_ESaISG_EE17_M_construct_nodeIJRKSt21piecewise_construct_tSt5tupleIJRS3_EESR_IJEEEEEvPSt13_Rb_tree_nodeISG_EDpOT_
000000000002c84e W _ZNSt8_Rb_treeIN10ParserUtil15eAddressingTypeESt4pairIKS1_St6vectorIS2_IN12AssemblyUtil11InstructionES4_ISt10shared_ptrIN15InstructionUtil14CodePopulationEESaISA_EEESaISD_EEESt10_Select1stISG_ESt4lessIS1_ESaISG_EE21_M_get_Node_allocatorEv
00000000000276a4 W _ZNSt8_Rb_treeIN10ParserUtil15eAddressingTypeESt4pairIKS1_St6vectorIS2_IN12AssemblyUtil11InstructionES4_ISt10shared_ptrIN15InstructionUtil14CodePopulationEESaISA_EEESaISD_EEESt10_Select1stISG_ESt4lessIS1_ESaISG_EE22_M_emplace_hint_uniqueIJRKSt21piecewise_construct_tSt5tupleIJRS3_EESR_IJEEEEESt17_Rb_tree_iteratorISG_ESt23_Rb_tree_const_iteratorISG_EDpOT_
000000000002b81a W _ZNSt8_Rb_treeIN10ParserUtil15eAddressingTypeESt4pairIKS1_St6vectorIS2_IN12AssemblyUtil11InstructionES4_ISt10shared_ptrIN15InstructionUtil14CodePopulationEESaISA_EEESaISD_EEESt10_Select1stISG_ESt4lessIS1_ESaISG_EE24_M_get_insert_unique_posERS3_
0000000000029690 W _ZNSt8_Rb_treeIN10ParserUtil15eAddressingTypeESt4pairIKS1_St6vectorIS2_IN12AssemblyUtil11InstructionES4_ISt10shared_ptrIN15InstructionUtil14CodePopulationEESaISA_EEESaISD_EEESt10_Select1stISG_ESt4lessIS1_ESaISG_EE29_M_get_insert_hint_unique_posESt23_Rb_tree_const_iteratorISG_ERS3_
0000000000029552 W _ZNSt8_Rb_treeIN10ParserUtil15eAddressingTypeESt4pairIKS1_St6vectorIS2_IN12AssemblyUtil11InstructionES4_ISt10shared_ptrIN15InstructionUtil14CodePopulationEESaISA_EEESaISD_EEESt10_Select1stISG_ESt4lessIS1_ESaISG_EE3endEv
000000000002c8fe W _ZNSt8_Rb_treeIN10ParserUtil15eAddressingTypeESt4pairIKS1_St6vectorIS2_IN12AssemblyUtil11InstructionES4_ISt10shared_ptrIN15InstructionUtil14CodePopulationEESaISA_EEESaISD_EEESt10_Select1stISG_ESt4lessIS1_ESaISG_EE5beginEv
000000000002b568 W _ZNSt8_Rb_treeIN10ParserUtil15eAddressingTypeESt4pairIKS1_St6vectorIS2_IN12AssemblyUtil11InstructionES4_ISt10shared_ptrIN15InstructionUtil14CodePopulationEESaISA_EEESaISD_EEESt10_Select1stISG_ESt4lessIS1_ESaISG_EE6_M_endEv
0000000000029a38 W _ZNSt8_Rb_treeIN10ParserUtil15eAddressingTypeESt4pairIKS1_St6vectorIS2_IN12AssemblyUtil11InstructionES4_ISt10shared_ptrIN15InstructionUtil14CodePopulationEESaISA_EEESaISD_EEESt10_Select1stISG_ESt4lessIS1_ESaISG_EE6_S_keyEPKSt13_Rb_tree_nodeISG_E
000000000002b7fc W _ZNSt8_Rb_treeIN10ParserUtil15eAddressingTypeESt4pairIKS1_St6vectorIS2_IN12AssemblyUtil11InstructionES4_ISt10shared_ptrIN15InstructionUtil14CodePopulationEESaISA_EEESaISD_EEESt10_Select1stISG_ESt4lessIS1_ESaISG_EE6_S_keyEPKSt18_Rb_tree_node_base
000000000002c826 W _ZNSt8_Rb_treeIN10ParserUtil15eAddressingTypeESt4pairIKS1_St6vectorIS2_IN12AssemblyUtil11InstructionES4_ISt10shared_ptrIN15InstructionUtil14CodePopulationEESaISA_EEESaISD_EEESt10_Select1stISG_ESt4lessIS1_ESaISG_EE7_S_leftEPSt18_Rb_tree_node_base
000000000002b54a W _ZNSt8_Rb_treeIN10ParserUtil15eAddressingTypeESt4pairIKS1_St6vectorIS2_IN12AssemblyUtil11InstructionES4_ISt10shared_ptrIN15InstructionUtil14CodePopulationEESaISA_EEESaISD_EEESt10_Select1stISG_ESt4lessIS1_ESaISG_EE8_M_beginEv
000000000002e848 W _ZNSt8_Rb_treeIN10ParserUtil15eAddressingTypeESt4pairIKS1_St6vectorIS2_IN12AssemblyUtil11InstructionES4_ISt10shared_ptrIN15InstructionUtil14CodePopulationEESaISA_EEESaISD_EEESt10_Select1stISG_ESt4lessIS1_ESaISG_EE8_M_eraseEPSt13_Rb_tree_nodeISG_E
000000000002b9f8 W _ZNSt8_Rb_treeIN10ParserUtil15eAddressingTypeESt4pairIKS1_St6vectorIS2_IN12AssemblyUtil11InstructionES4_ISt10shared_ptrIN15InstructionUtil14CodePopulationEESaISA_EEESaISD_EEESt10_Select1stISG_ESt4lessIS1_ESaISG_EE8_S_rightEPSt18_Rb_tree_node_base
000000000002e76c W _ZNSt8_Rb_treeIN10ParserUtil15eAddressingTypeESt4pairIKS1_St6vectorIS2_IN12AssemblyUtil11InstructionES4_ISt10shared_ptrIN15InstructionUtil14CodePopulationEESaISA_EEESaISD_EEESt10_Select1stISG_ESt4lessIS1_ESaISG_EEC1Ev
000000000002e76c W _ZNSt8_Rb_treeIN10ParserUtil15eAddressingTypeESt4pairIKS1_St6vectorIS2_IN12AssemblyUtil11InstructionES4_ISt10shared_ptrIN15InstructionUtil14CodePopulationEESaISA_EEESaISD_EEESt10_Select1stISG_ESt4lessIS1_ESaISG_EEC2Ev
000000000002e27c W _ZNSt8_Rb_treeIN10ParserUtil15eAddressingTypeESt4pairIKS1_St6vectorIS2_IN12AssemblyUtil11InstructionES4_ISt10shared_ptrIN15InstructionUtil14CodePopulationEESaISA_EEESaISD_EEESt10_Select1stISG_ESt4lessIS1_ESaISG_EED1Ev
000000000002e27c W _ZNSt8_Rb_treeIN10ParserUtil15eAddressingTypeESt4pairIKS1_St6vectorIS2_IN12AssemblyUtil11InstructionES4_ISt10shared_ptrIN15InstructionUtil14CodePopulationEESaISA_EEESaISD_EEESt10_Select1stISG_ESt4lessIS1_ESaISG_EED2Ev
00000000000287a0 W _ZNSt8_Rb_treeIN10ParserUtil22eInstructionIdentifierESt4pairIKS1_St3mapINS0_12eOperandTypeES4_INS0_15eAddressingTypeESt6vectorIS2_IN12AssemblyUtil11InstructionES7_ISt10shared_ptrIN15InstructionUtil14CodePopulationEESaISD_EEESaISG_EESt4lessIS6_ESaIS2_IKS6_SI_EEESJ_IS5_ESaIS2_IKS5_SO_EEEESt10_Select1stISU_ESJ_IS1_ESaISU_EE11lower_boundERS3_
000000000002abc0 W _ZNSt8_Rb_treeIN10ParserUtil22eInstructionIdentifierESt4pairIKS1_St3mapINS0_12eOperandTypeES4_INS0_15eAddressingTypeESt6vectorIS2_IN12AssemblyUtil11InstructionES7_ISt10shared_ptrIN15InstructionUtil14CodePopulationEESaISD_EEESaISG_EESt4lessIS6_ESaIS2_IKS6_SI_EEESJ_IS5_ESaIS2_IKS5_SO_EEEESt10_Select1stISU_ESJ_IS1_ESaISU_EE11_M_get_nodeEv
000000000002af00 W _ZNSt8_Rb_treeIN10ParserUtil22eInstructionIdentifierESt4pairIKS1_St3mapINS0_12eOperandTypeES4_INS0_15eAddressingTypeESt6vectorIS2_IN12AssemblyUtil11InstructionES7_ISt10shared_ptrIN15InstructionUtil14CodePopulationEESaISD_EEESaISG_EESt4lessIS6_ESaIS2_IKS6_SI_EEESJ_IS5_ESaIS2_IKS5_SO_EEEESt10_Select1stISU_ESJ_IS1_ESaISU_EE11_M_leftmostEv
000000000002a164 W _ZNSt8_Rb_treeIN10ParserUtil22eInstructionIdentifierESt4pairIKS1_St3mapINS0_12eOperandTypeES4_INS0_15eAddressingTypeESt6vectorIS2_IN12AssemblyUtil11InstructionES7_ISt10shared_ptrIN15InstructionUtil14CodePopulationEESaISD_EEESaISG_EESt4lessIS6_ESaIS2_IKS6_SI_EEESJ_IS5_ESaIS2_IKS5_SO_EEEESt10_Select1stISU_ESJ_IS1_ESaISU_EE11_M_put_nodeEPSt13_Rb_tree_nodeISU_E
0000000000027f0e W _ZNSt8_Rb_treeIN10ParserUtil22eInstructionIdentifierESt4pairIKS1_St3mapINS0_12eOperandTypeES4_INS0_15eAddressingTypeESt6vectorIS2_IN12AssemblyUtil11InstructionES7_ISt10shared_ptrIN15InstructionUtil14CodePopulationEESaISD_EEESaISG_EESt4lessIS6_ESaIS2_IKS6_SI_EEESJ_IS5_ESaIS2_IKS5_SO_EEEESt10_Select1stISU_ESJ_IS1_ESaISU_EE12_M_drop_nodeEPSt13_Rb_tree_nodeISU_E
000000000002ad30 W _ZNSt8_Rb_treeIN10ParserUtil22eInstructionIdentifierESt4pairIKS1_St3mapINS0_12eOperandTypeES4_INS0_15eAddressingTypeESt6vectorIS2_IN12AssemblyUtil11InstructionES7_ISt10shared_ptrIN15InstructionUtil14CodePopulationEESaISD_EEESaISG_EESt4lessIS6_ESaIS2_IKS6_SI_EEESJ_IS5_ESaIS2_IKS5_SO_EEEESt10_Select1stISU_ESJ_IS1_ESaISU_EE12_M_rightmostEv
0000000000025a96 W _ZNSt8_Rb_treeIN10ParserUtil22eInstructionIdentifierESt4pairIKS1_St3mapINS0_12eOperandTypeES4_INS0_15eAddressingTypeESt6vectorIS2_IN12AssemblyUtil11InstructionES7_ISt10shared_ptrIN15InstructionUtil14CodePopulationEESaISD_EEESaISG_EESt4lessIS6_ESaIS2_IKS6_SI_EEESJ_IS5_ESaIS2_IKS5_SO_EEEESt10_Select1stISU_ESJ_IS1_ESaISU_EE13_Rb_tree_implISX_Lb1EEC1Ev
0000000000025a96 W _ZNSt8_Rb_treeIN10ParserUtil22eInstructionIdentifierESt4pairIKS1_St3mapINS0_12eOperandTypeES4_INS0_15eAddressingTypeESt6vectorIS2_IN12AssemblyUtil11InstructionES7_ISt10shared_ptrIN15InstructionUtil14CodePopulationEESaISD_EEESaISG_EESt4lessIS6_ESaIS2_IKS6_SI_EEESJ_IS5_ESaIS2_IKS5_SO_EEEESt10_Select1stISU_ESJ_IS1_ESaISU_EE13_Rb_tree_implISX_Lb1EEC2Ev
0000000000025864 W _ZNSt8_Rb_treeIN10ParserUtil22eInstructionIdentifierESt4pairIKS1_St3mapINS0_12eOperandTypeES4_INS0_15eAddressingTypeESt6vectorIS2_IN12AssemblyUtil11InstructionES7_ISt10shared_ptrIN15InstructionUtil14CodePopulationEESaISD_EEESaISG_EESt4lessIS6_ESaIS2_IKS6_SI_EEESJ_IS5_ESaIS2_IKS5_SO_EEEESt10_Select1stISU_ESJ_IS1_ESaISU_EE13_Rb_tree_implISX_Lb1EED1Ev
0000000000025864 W _ZNSt8_Rb_treeIN10ParserUtil22eInstructionIdentifierESt4pairIKS1_St3mapINS0_12eOperandTypeES4_INS0_15eAddressingTypeESt6vectorIS2_IN12AssemblyUtil11InstructionES7_ISt10shared_ptrIN15InstructionUtil14CodePopulationEESaISD_EEESaISG_EESt4lessIS6_ESaIS2_IKS6_SI_EEESJ_IS5_ESaIS2_IKS5_SO_EEEESt10_Select1stISU_ESJ_IS1_ESaISU_EE13_Rb_tree_implISX_Lb1EED2Ev
00000000000288ae W _ZNSt8_Rb_treeIN10ParserUtil22eInstructionIdentifierESt4pairIKS1_St3mapINS0_12eOperandTypeES4_INS0_15eAddressingTypeESt6vectorIS2_IN12AssemblyUtil11InstructionES7_ISt10shared_ptrIN15InstructionUtil14CodePopulationEESaISD_EEESaISG_EESt4lessIS6_ESaIS2_IKS6_SI_EEESJ_IS5_ESaIS2_IKS5_SO_EEEESt10_Select1stISU_ESJ_IS1_ESaISU_EE14_M_create_nodeIJRKSt21piecewise_construct_tSt5tupleIJRS3_EES14_IJEEEEEPSt13_Rb_tree_nodeISU_EDpOT_
0000000000028d2a W _ZNSt8_Rb_treeIN10ParserUtil22eInstructionIdentifierESt4pairIKS1_St3mapINS0_12eOperandTypeES4_INS0_15eAddressingTypeESt6vectorIS2_IN12AssemblyUtil11InstructionES7_ISt10shared_ptrIN15InstructionUtil14CodePopulationEESaISD_EEESaISG_EESt4lessIS6_ESaIS2_IKS6_SI_EEESJ_IS5_ESaIS2_IKS5_SO_EEEESt10_Select1stISU_ESJ_IS1_ESaISU_EE14_M_insert_nodeEPSt18_Rb_tree_node_baseS11_PSt13_Rb_tree_nodeISU_E
000000000002aac8 W _ZNSt8_Rb_treeIN10ParserUtil22eInstructionIdentifierESt4pairIKS1_St3mapINS0_12eOperandTypeES4_INS0_15eAddressingTypeESt6vectorIS2_IN12AssemblyUtil11InstructionES7_ISt10shared_ptrIN15InstructionUtil14CodePopulationEESaISD_EEESaISG_EESt4lessIS6_ESaIS2_IKS6_SI_EEESJ_IS5_ESaIS2_IKS5_SO_EEEESt10_Select1stISU_ESJ_IS1_ESaISU_EE14_M_lower_boundEPSt13_Rb_tree_nodeISU_EPSt18_Rb_tree_node_baseRS3_
000000000002a122 W _ZNSt8_Rb_treeIN10ParserUtil22eInstructionIdentifierESt4pairIKS1_St3mapINS0_12eOperandTypeES4_INS0_15eAddressingTypeESt6vectorIS2_IN12AssemblyUtil11InstructionES7_ISt10shared_ptrIN15InstructionUtil14CodePopulationEESaISD_EEESaISG_EESt4lessIS6_ESaIS2_IKS6_SI_EEESJ_IS5_ESaIS2_IKS5_SO_EEEESt10_Select1stISU_ESJ_IS1_ESaISU_EE15_M_destroy_nodeEPSt13_Rb_tree_nodeISU_E
000000000002abec W _ZNSt8_Rb_treeIN10ParserUtil22eInstructionIdentifierESt4pairIKS1_St3mapINS0_12eOperandTypeES4_INS0_15eAddressingTypeESt6vectorIS2_IN12AssemblyUtil11InstructionES7_ISt10shared_ptrIN15InstructionUtil14CodePopulationEESaISD_EEESaISG_EESt4lessIS6_ESaIS2_IKS6_SI_EEESJ_IS5_ESaIS2_IKS5_SO_EEEESt10_Select1stISU_ESJ_IS1_ESaISU_EE17_M_construct_nodeIJRKSt21piecewise_construct_tSt5tupleIJRS3_EES14_IJEEEEEvPSt13_Rb_tree_nodeISU_EDpOT_
000000000002bf96 W _ZNSt8_Rb_treeIN10ParserUtil22eInstructionIdentifierESt4pairIKS1_St3mapINS0_12eOperandTypeES4_INS0_15eAddressingTypeESt6vectorIS2_IN12AssemblyUtil11InstructionES7_ISt10shared_ptrIN15InstructionUtil14CodePopulationEESaISD_EEESaISG_EESt4lessIS6_ESaIS2_IKS6_SI_EEESJ_IS5_ESaIS2_IKS5_SO_EEEESt10_Select1stISU_ESJ_IS1_ESaISU_EE21_M_get_Node_allocatorEv
00000000000271c0 W _ZNSt8_Rb_treeIN10ParserUtil22eInstructionIdentifierESt4pairIKS1_St3mapINS0_12eOperandTypeES4_INS0_15eAddressingTypeESt6vectorIS2_IN12AssemblyUtil11InstructionES7_ISt10shared_ptrIN15InstructionUtil14CodePopulationEESaISD_EEESaISG_EESt4lessIS6_ESaIS2_IKS6_SI_EEESJ_IS5_ESaIS2_IKS5_SO_EEEESt10_Select1stISU_ESJ_IS1_ESaISU_EE22_M_emplace_hint_uniqueIJRKSt21piecewise_construct_tSt5tupleIJRS3_EES14_IJEEEEESt17_Rb_tree_iteratorISU_ESt23_Rb_tree_const_iteratorISU_EDpOT_
000000000002ad64 W _ZNSt8_Rb_treeIN10ParserUtil22eInstructionIdentifierESt4pairIKS1_St3mapINS0_12eOperandTypeES4_INS0_15eAddressingTypeESt6vectorIS2_IN12AssemblyUtil11InstructionES7_ISt10shared_ptrIN15InstructionUtil14CodePopulationEESaISD_EEESaISG_EESt4lessIS6_ESaIS2_IKS6_SI_EEESJ_IS5_ESaIS2_IKS5_SO_EEEESt10_Select1stISU_ESJ_IS1_ESaISU_EE24_M_get_insert_unique_posERS3_
000000000002892e W _ZNSt8_Rb_treeIN10ParserUtil22eInstructionIdentifierESt4pairIKS1_St3mapINS0_12eOperandTypeES4_INS0_15eAddressingTypeESt6vectorIS2_IN12AssemblyUtil11InstructionES7_ISt10shared_ptrIN15InstructionUtil14CodePopulationEESaISD_EEESaISG_EESt4lessIS6_ESaIS2_IKS6_SI_EEESJ_IS5_ESaIS2_IKS5_SO_EEEESt10_Select1stISU_ESJ_IS1_ESaISU_EE29_M_get_insert_hint_unique_posESt23_Rb_tree_const_iteratorISU_ERS3_
00000000000287f0 W _ZNSt8_Rb_treeIN10ParserUtil22eInstructionIdentifierESt4pairIKS1_St3mapINS0_12eOperandTypeES4_INS0_15eAddressingTypeESt6vectorIS2_IN12AssemblyUtil11InstructionES7_ISt10shared_ptrIN15InstructionUtil14CodePopulationEESaISD_EEESaISG_EESt4lessIS6_ESaIS2_IKS6_SI_EEESJ_IS5_ESaIS2_IKS5_SO_EEEESt10_Select1stISU_ESJ_IS1_ESaISU_EE3endEv
000000000002c55a W _ZNSt8_Rb_treeIN10ParserUtil22eInstructionIdentifierESt4pairIKS1_St3mapINS0_12eOperandTypeES4_INS0_15eAddressingTypeESt6vectorIS2_IN12AssemblyUtil11InstructionES7_ISt10shared_ptrIN15InstructionUtil14CodePopulationEESaISD_EEESaISG_EESt4lessIS6_ESaIS2_IKS6_SI_EEESJ_IS5_ESaIS2_IKS5_SO_EEEESt10_Select1stISU_ESJ_IS1_ESaISU_EE5beginEv
000000000002aab2 W _ZNSt8_Rb_treeIN10ParserUtil22eInstructionIdentifierESt4pairIKS1_St3mapINS0_12eOperandTypeES4_INS0_15eAddressingTypeESt6vectorIS2_IN12AssemblyUtil11InstructionES7_ISt10shared_ptrIN15InstructionUtil14CodePopulationEESaISD_EEESaISG_EESt4lessIS6_ESaIS2_IKS6_SI_EEESJ_IS5_ESaIS2_IKS5_SO_EEEESt10_Select1stISU_ESJ_IS1_ESaISU_EE6_M_endEv
0000000000028cd6 W _ZNSt8_Rb_treeIN10ParserUtil22eInstructionIdentifierESt4pairIKS1_St3mapINS0_12eOperandTypeES4_INS0_15eAddressingTypeESt6vectorIS2_IN12AssemblyUtil11InstructionES7_ISt10shared_ptrIN15InstructionUtil14CodePopulationEESaISD_EEESaISG_EESt4lessIS6_ESaIS2_IKS6_SI_EEESJ_IS5_ESaIS2_IKS5_SO_EEEESt10_Select1stISU_ESJ_IS1_ESaISU_EE6_S_keyEPKSt13_Rb_tree_nodeISU_E
000000000002ad46 W _ZNSt8_Rb_treeIN10ParserUtil22eInstructionIdentifierESt4pairIKS1_St3mapINS0_12eOperandTypeES4_INS0_15eAddressingTypeESt6vectorIS2_IN12AssemblyUtil11InstructionES7_ISt10shared_ptrIN15InstructionUtil14CodePopulationEESaISD_EEESaISG_EESt4lessIS6_ESaIS2_IKS6_SI_EEESJ_IS5_ESaIS2_IKS5_SO_EEEESt10_Select1stISU_ESJ_IS1_ESaISU_EE6_S_keyEPKSt18_Rb_tree_node_base
0000000000027ef7 W _ZNSt8_Rb_treeIN10ParserUtil22eInstructionIdentifierESt4pairIKS1_St3mapINS0_12eOperandTypeES4_INS0_15eAddressingTypeESt6vectorIS2_IN12AssemblyUtil11InstructionES7_ISt10shared_ptrIN15InstructionUtil14CodePopulationEESaISD_EEESaISG_EESt4lessIS6_ESaIS2_IKS6_SI_EEESJ_IS5_ESaIS2_IKS5_SO_EEEESt10_Select1stISU_ESJ_IS1_ESaISU_EE7_S_leftEPSt18_Rb_tree_node_base
0000000000026b28 W _ZNSt8_Rb_treeIN10ParserUtil22eInstructionIdentifierESt4pairIKS1_St3mapINS0_12eOperandTypeES4_INS0_15eAddressingTypeESt6vectorIS2_IN12AssemblyUtil11InstructionES7_ISt10shared_ptrIN15InstructionUtil14CodePopulationEESaISD_EEESaISG_EESt4lessIS6_ESaIS2_IKS6_SI_EEESJ_IS5_ESaIS2_IKS5_SO_EEEESt10_Select1stISU_ESJ_IS1_ESaISU_EE8_M_beginEv
0000000000026abe W _ZNSt8_Rb_treeIN10ParserUtil22eInstructionIdentifierESt4pairIKS1_St3mapINS0_12eOperandTypeES4_INS0_15eAddressingTypeESt6vectorIS2_IN12AssemblyUtil11InstructionES7_ISt10shared_ptrIN15InstructionUtil14CodePopulationEESaISD_EEESaISG_EESt4lessIS6_ESaIS2_IKS6_SI_EEESJ_IS5_ESaIS2_IKS5_SO_EEEESt10_Select1stISU_ESJ_IS1_ESaISU_EE8_M_eraseEPSt13_Rb_tree_nodeISU_E
0000000000027ee1 W _ZNSt8_Rb_treeIN10ParserUtil22eInstructionIdentifierESt4pairIKS1_St3mapINS0_12eOperandTypeES4_INS0_15eAddressingTypeESt6vectorIS2_IN12AssemblyUtil11InstructionES7_ISt10shared_ptrIN15InstructionUtil14CodePopulationEESaISD_EEESaISG_EESt4lessIS6_ESaIS2_IKS6_SI_EEESJ_IS5_ESaIS2_IKS5_SO_EEEESt10_Select1stISU_ESJ_IS1_ESaISU_EE8_S_rightEPSt18_Rb_tree_node_base
0000000000025884 W _ZNSt8_Rb_treeIN10ParserUtil22eInstructionIdentifierESt4pairIKS1_St3mapINS0_12eOperandTypeES4_INS0_15eAddressingTypeESt6vectorIS2_IN12AssemblyUtil11InstructionES7_ISt10shared_ptrIN15InstructionUtil14CodePopulationEESaISD_EEESaISG_EESt4lessIS6_ESaIS2_IKS6_SI_EEESJ_IS5_ESaIS2_IKS5_SO_EEEESt10_Select1stISU_ESJ_IS1_ESaISU_EEC1Ev
0000000000025884 W _ZNSt8_Rb_treeIN10ParserUtil22eInstructionIdentifierESt4pairIKS1_St3mapINS0_12eOperandTypeES4_INS0_15eAddressingTypeESt6vectorIS2_IN12AssemblyUtil11InstructionES7_ISt10shared_ptrIN15InstructionUtil14CodePopulationEESaISD_EEESaISG_EESt4lessIS6_ESaIS2_IKS6_SI_EEESJ_IS5_ESaIS2_IKS5_SO_EEEESt10_Select1stISU_ESJ_IS1_ESaISU_EEC2Ev
0000000000025af2 W _ZNSt8_Rb_treeIN10ParserUtil22eInstructionIdentifierESt4pairIKS1_St3mapINS0_12eOperandTypeES4_INS0_15eAddressingTypeESt6vectorIS2_IN12AssemblyUtil11InstructionES7_ISt10shared_ptrIN15InstructionUtil14CodePopulationEESaISD_EEESaISG_EESt4lessIS6_ESaIS2_IKS6_SI_EEESJ_IS5_ESaIS2_IKS5_SO_EEEESt10_Select1stISU_ESJ_IS1_ESaISU_EED1Ev
0000000000025af2 W _ZNSt8_Rb_treeIN10ParserUtil22eInstructionIdentifierESt4pairIKS1_St3mapINS0_12eOperandTypeES4_INS0_15eAddressingTypeESt6vectorIS2_IN12AssemblyUtil11InstructionES7_ISt10shared_ptrIN15InstructionUtil14CodePopulationEESaISD_EEESaISG_EESt4lessIS6_ESaIS2_IKS6_SI_EEESJ_IS5_ESaIS2_IKS5_SO_EEEESt10_Select1stISU_ESJ_IS1_ESaISU_EED2Ev
000000000001497a W _ZNSt8_Rb_treeINSt7__cxx1112basic_stringIcSt11char_traitsIcESaIcEEESt4pairIKS5_N10LinkerUtil15eInputFileStateEESt10_Select1stISA_ESt4lessIS5_ESaISA_EE10_M_insert_IRKSA_NSG_11_Alloc_nodeEEESt17_Rb_tree_iteratorISA_EPSt18_Rb_tree_node_baseSO_OT_RT0_
0000000000011ad8 W _ZNSt8_Rb_treeINSt7__cxx1112basic_stringIcSt11char_traitsIcESaIcEEESt4pairIKS5_N10LinkerUtil15eInputFileStateEESt10_Select1stISA_ESt4lessIS5_ESaISA_EE11_Alloc_nodeC1ERSG_
0000000000011ad8 W _ZNSt8_Rb_treeINSt7__cxx1112basic_stringIcSt11char_traitsIcESaIcEEESt4pairIKS5_N10LinkerUtil15eInputFileStateEESt10_Select1stISA_ESt4lessIS5_ESaISA_EE11_Alloc_nodeC2ERSG_
00000000000134be W _ZNSt8_Rb_treeINSt7__cxx1112basic_stringIcSt11char_traitsIcESaIcEEESt4pairIKS5_N10LinkerUtil15eInputFileStateEESt10_Select1stISA_ESt4lessIS5_ESaISA_EE11lower_boundERS7_
0000000000015b72 W _ZNSt8_Rb_treeINSt7__cxx1112basic_stringIcSt11char_traitsIcESaIcEEESt4pairIKS5_N10LinkerUtil15eInputFileStateEESt10_Select1stISA_ESt4lessIS5_ESaISA_EE11_M_get_nodeEv
0000000000015e94 W _ZNSt8_Rb_treeINSt7__cxx1112basic_stringIcSt11char_traitsIcESaIcEEESt4pairIKS5_N10LinkerUtil15eInputFileStateEESt10_Select1stISA_ESt4lessIS5_ESaISA_EE11_M_leftmostEv
0000000000015f66 W _ZNSt8_Rb_treeINSt7__cxx1112basic_stringIcSt11char_traitsIcESaIcEEESt4pairIKS5_N10LinkerUtil15eInputFileStateEESt10_Select1stISA_ESt4lessIS5_ESaISA_EE11_M_put_nodeEPSt13_Rb_tree_nodeISA_E
0000000000013aa6 W _ZNSt8_Rb_treeINSt7__cxx1112basic_stringIcSt11char_traitsIcESaIcEEESt4pairIKS5_N10LinkerUtil15eInputFileStateEESt10_Select1stISA_ESt4lessIS5_ESaISA_EE12_M_drop_nodeEPSt13_Rb_tree_nodeISA_E
0000000000015ce2 W _ZNSt8_Rb_treeINSt7__cxx1112basic_stringIcSt11char_traitsIcESaIcEEESt4pairIKS5_N10LinkerUtil15eInputFileStateEESt10_Select1stISA_ESt4lessIS5_ESaISA_EE12_M_rightmostEv
00000000000119de W _ZNSt8_Rb_treeINSt7__cxx1112basic_stringIcSt11char_traitsIcESaIcEEESt4pairIKS5_N10LinkerUtil15eInputFileStateEESt10_Select1stISA_ESt4lessIS5_ESaISA_EE13_Rb_tree_implISE_Lb1EEC1ERKSE_OSaISt13_Rb_tree_nodeISA_EE
00000000000119de W _ZNSt8_Rb_treeINSt7__cxx1112basic_stringIcSt11char_traitsIcESaIcEEESt4pairIKS5_N10LinkerUtil15eInputFileStateEESt10_Select1stISA_ESt4lessIS5_ESaISA_EE13_Rb_tree_implISE_Lb1EEC2ERKSE_OSaISt13_Rb_tree_nodeISA_EE
000000000000eaca W _ZNSt8_Rb_treeINSt7__cxx1112basic_stringIcSt11char_traitsIcESaIcEEESt4pairIKS5_N10LinkerUtil15eInputFileStateEESt10_Select1stISA_ESt4lessIS5_ESaISA_EE13_Rb_tree_implISE_Lb1EED1Ev
000000000000eaca W _ZNSt8_Rb_treeINSt7__cxx1112basic_stringIcSt11char_traitsIcESaIcEEESt4pairIKS5_N10LinkerUtil15eInputFileStateEESt10_Select1stISA_ESt4lessIS5_ESaISA_EE13_Rb_tree_implISE_Lb1EED2Ev
0000000000018aba W _ZNSt8_Rb_treeINSt7__cxx1112basic_stringIcSt11char_traitsIcESaIcEEESt4pairIKS5_N10LinkerUtil15eInputFileStateEESt10_Select1stISA_ESt4lessIS5_ESaISA_EE14_M_create_nodeIJRKSA_EEEPSt13_Rb_tree_nodeISA_EDpOT_
0000000000013540 W _ZNSt8_Rb_treeINSt7__cxx1112basic_stringIcSt11char_traitsIcESaIcEEESt4pairIKS5_N10LinkerUtil15eInputFileStateEESt10_Select1stISA_ESt4lessIS5_ESaISA_EE14_M_create_nodeIJRKSt21piecewise_construct_tSt5tupleIJRS7_EESL_IJEEEEEPSt13_Rb_tree_nodeISA_EDpOT_
00000000000139bc W _ZNSt8_Rb_treeINSt7__cxx1112basic_stringIcSt11char_traitsIcESaIcEEESt4pairIKS5_N10LinkerUtil15eInputFileStateEESt10_Select1stISA_ESt4lessIS5_ESaISA_EE14_M_insert_nodeEPSt18_Rb_tree_node_baseSI_PSt13_Rb_tree_nodeISA_E
00000000000133c6 W _ZNSt8_Rb_treeINSt7__cxx1112basic_stringIcSt11char_traitsIcESaIcEEESt4pairIKS5_N10LinkerUtil15eInputFileStateEESt10_Select1stISA_ESt4lessIS5_ESaISA_EE14_M_lower_boundEPSt13_Rb_tree_nodeISA_EPSt18_Rb_tree_node_baseRS7_
0000000000015f24 W _ZNSt8_Rb_treeINSt7__cxx1112basic_stringIcSt11char_traitsIcESaIcEEESt4pairIKS5_N10LinkerUtil15eInputFileStateEESt10_Select1stISA_ESt4lessIS5_ESaISA_EE15_M_destroy_nodeEPSt13_Rb_tree_nodeISA_E
000000000001a6d6 W _ZNSt8_Rb_treeINSt7__cxx1112basic_stringIcSt11char_traitsIcESaIcEEESt4pairIKS5_N10LinkerUtil15eInputFileStateEESt10_Select1stISA_ESt4lessIS5_ESaISA_EE17_M_construct_nodeIJRKSA_EEEvPSt13_Rb_tree_nodeISA_EDpOT_
0000000000015b9e W _ZNSt8_Rb_treeINSt7__cxx1112basic_stringIcSt11char_traitsIcESaIcEEESt4pairIKS5_N10LinkerUtil15eInputFileStateEESt10_Select1stISA_ESt4lessIS5_ESaISA_EE17_M_construct_nodeIJRKSt21piecewise_construct_tSt5tupleIJRS7_EESL_IJEEEEEvPSt13_Rb_tree_nodeISA_EDpOT_
0000000000011af6 W _ZNSt8_Rb_treeINSt7__cxx1112basic_stringIcSt11char_traitsIcESaIcEEESt4pairIKS5_N10LinkerUtil15eInputFileStateEESt10_Select1stISA_ESt4lessIS5_ESaISA_EE17_M_insert_unique_IRKSA_NSG_11_Alloc_nodeEEESt17_Rb_tree_iteratorISA_ESt23_Rb_tree_const_iteratorISA_EOT_RT0_
0000000000017c14 W _ZNSt8_Rb_treeINSt7__cxx1112basic_stringIcSt11char_traitsIcESaIcEEESt4pairIKS5_N10LinkerUtil15eInputFileStateEESt10_Select1stISA_ESt4lessIS5_ESaISA_EE21_M_get_Node_allocatorEv
0000000000010a4c W _ZNSt8_Rb_treeINSt7__cxx1112basic_stringIcSt11char_traitsIcESaIcEEESt4pairIKS5_N10LinkerUtil15eInputFileStateEESt10_Select1stISA_ESt4lessIS5_ESaISA_EE22_M_emplace_hint_uniqueIJRKSt21piecewise_construct_tSt5tupleIJRS7_EESL_IJEEEEESt17_Rb_tree_iteratorISA_ESt23_Rb_tree_const_iteratorISA_EDpOT_
000000000000ec1e W _ZNSt8_Rb_treeINSt7__cxx1112basic_stringIcSt11char_traitsIcESaIcEEESt4pairIKS5_N10LinkerUtil15eInputFileStateEESt10_Select1stISA_ESt4lessIS5_ESaISA_EE22_M_insert_range_uniqueIPKSA_EENSt9enable_ifIXsrSt7is_sameISA_NSt15iterator_traitsIT_E10value_typeEE5valueEvE4typeESN_SN_
0000000000015cf8 W _ZNSt8_Rb_treeINSt7__cxx1112basic_stringIcSt11char_traitsIcESaIcEEESt4pairIKS5_N10LinkerUtil15eInputFileStateEESt10_Select1stISA_ESt4lessIS5_ESaISA_EE24_M_get_insert_unique_posERS7_
00000000000135c0 W _ZNSt8_Rb_treeINSt7__cxx1112basic_stringIcSt11char_traitsIcESaIcEEESt4pairIKS5_N10LinkerUtil15eInputFileStateEESt10_Select1stISA_ESt4lessIS5_ESaISA_EE29_M_get_insert_hint_unique_posESt23_Rb_tree_const_iteratorISA_ERS7_
0000000000010942 W _ZNSt8_Rb_treeINSt7__cxx1112basic_stringIcSt11char_traitsIcESaIcEEESt4pairIKS5_N10LinkerUtil15eInputFileStateEESt10_Select1stISA_ESt4lessIS5_ESaISA_EE3endEv
000000000001086c W _ZNSt8_Rb_treeINSt7__cxx1112basic_stringIcSt11char_traitsIcESaIcEEESt4pairIKS5_N10LinkerUtil15eInputFileStateEESt10_Select1stISA_ESt4lessIS5_ESaISA_EE4findERS7_
0000000000017cc4 W _ZNSt8_Rb_treeINSt7__cxx1112basic_stringIcSt11char_traitsIcESaIcEEESt4pairIKS5_N10LinkerUtil15eInputFileStateEESt10_Select1stISA_ESt4lessIS5_ESaISA_EE5beginEv
00000000000133b0 W _ZNSt8_Rb_treeINSt7__cxx1112basic_stringIcSt11char_traitsIcESaIcEEESt4pairIKS5_N10LinkerUtil15eInputFileStateEESt10_Select1stISA_ESt4lessIS5_ESaISA_EE6_M_endEv
0000000000013968 W _ZNSt8_Rb_treeINSt7__cxx1112basic_stringIcSt11char_traitsIcESaIcEEESt4pairIKS5_N10LinkerUtil15eInputFileStateEESt10_Select1stISA_ESt4lessIS5_ESaISA_EE6_S_keyEPKSt13_Rb_tree_nodeISA_E
0000000000013482 W _ZNSt8_Rb_treeINSt7__cxx1112basic_stringIcSt11char_traitsIcESaIcEEESt4pairIKS5_N10LinkerUtil15eInputFileStateEESt10_Select1stISA_ESt4lessIS5_ESaISA_EE6_S_keyEPKSt18_Rb_tree_node_base
0000000000014925 W _ZNSt8_Rb_treeINSt7__cxx1112basic_stringIcSt11char_traitsIcESaIcEEESt4pairIKS5_N10LinkerUtil15eInputFileStateEESt10_Select1stISA_ESt4lessIS5_ESaISA_EE7_S_leftEPSt18_Rb_tree_node_base
0000000000011aa4 W _ZNSt8_Rb_treeINSt7__cxx1112basic_stringIcSt11char_traitsIcESaIcEEESt4pairIKS5_N10LinkerUtil15eInputFileStateEESt10_Select1stISA_ESt4lessIS5_ESaISA_EE8_M_beginEv
0000000000011a3a W _ZNSt8_Rb_treeINSt7__cxx1112basic_stringIcSt11char_traitsIcESaIcEEESt4pairIKS5_N10LinkerUtil15eInputFileStateEESt10_Select1stISA_ESt4lessIS5_ESaISA_EE8_M_eraseEPSt13_Rb_tree_nodeISA_E
000000000001490f W _ZNSt8_Rb_treeINSt7__cxx1112basic_stringIcSt11char_traitsIcESaIcEEESt4pairIKS5_N10LinkerUtil15eInputFileStateEESt10_Select1stISA_ESt4lessIS5_ESaISA_EE8_S_rightEPSt18_Rb_tree_node_base
000000000000eaea W _ZNSt8_Rb_treeINSt7__cxx1112basic_stringIcSt11char_traitsIcESaIcEEESt4pairIKS5_N10LinkerUtil15eInputFileStateEESt10_Select1stISA_ESt4lessIS5_ESaISA_EEC1ERKSE_RKSF_
000000000000eaea W _ZNSt8_Rb_treeINSt7__cxx1112basic_stringIcSt11char_traitsIcESaIcEEESt4pairIKS5_N10LinkerUtil15eInputFileStateEESt10_Select1stISA_ESt4lessIS5_ESaISA_EEC2ERKSE_RKSF_
000000000000eb84 W _ZNSt8_Rb_treeINSt7__cxx1112basic_stringIcSt11char_traitsIcESaIcEEESt4pairIKS5_N10LinkerUtil15eInputFileStateEESt10_Select1stISA_ESt4lessIS5_ESaISA_EED1Ev
000000000000eb84 W _ZNSt8_Rb_treeINSt7__cxx1112basic_stringIcSt11char_traitsIcESaIcEEESt4pairIKS5_N10LinkerUtil15eInputFileStateEESt10_Select1stISA_ESt4lessIS5_ESaISA_EED2Ev
0000000000012b18 W _ZNSt8_Rb_treeINSt7__cxx1112basic_stringIcSt11char_traitsIcESaIcEEESt4pairIKS5_St10shared_ptrIN10LinkerUtil16SectionMergeDataEEESt10_Select1stISC_ESt4lessIS5_ESaISC_EE11lower_boundERS7_
00000000000155a2 W _ZNSt8_Rb_treeINSt7__cxx1112basic_stringIcSt11char_traitsIcESaIcEEESt4pairIKS5_St10shared_ptrIN10LinkerUtil16SectionMergeDataEEESt10_Select1stISC_ESt4lessIS5_ESaISC_EE11_M_get_nodeEv
0000000000015904 W _ZNSt8_Rb_treeINSt7__cxx1112basic_stringIcSt11char_traitsIcESaIcEEESt4pairIKS5_St10shared_ptrIN10LinkerUtil16SectionMergeDataEEESt10_Select1stISC_ESt4lessIS5_ESaISC_EE11_M_leftmostEv
00000000000154f6 W _ZNSt8_Rb_treeINSt7__cxx1112basic_stringIcSt11char_traitsIcESaIcEEESt4pairIKS5_St10shared_ptrIN10LinkerUtil16SectionMergeDataEEESt10_Select1stISC_ESt4lessIS5_ESaISC_EE11_M_put_nodeEPSt13_Rb_tree_nodeISC_E
000000000001296c W _ZNSt8_Rb_treeINSt7__cxx1112basic_stringIcSt11char_traitsIcESaIcEEESt4pairIKS5_St10shared_ptrIN10LinkerUtil16SectionMergeDataEEESt10_Select1stISC_ESt4lessIS5_ESaISC_EE12_M_drop_nodeEPSt13_Rb_tree_nodeISC_E
0000000000015712 W _ZNSt8_Rb_treeINSt7__cxx1112basic_stringIcSt11char_traitsIcESaIcEEESt4pairIKS5_St10shared_ptrIN10LinkerUtil16SectionMergeDataEEESt10_Select1stISC_ESt4lessIS5_ESaISC_EE12_M_rightmostEv
000000000000d7d0 W _ZNSt8_Rb_treeINSt7__cxx1112basic_stringIcSt11char_traitsIcESaIcEEESt4pairIKS5_St10shared_ptrIN10LinkerUtil16SectionMergeDataEEESt10_Select1stISC_ESt4lessIS5_ESaISC_EE13_Rb_tree_implISG_Lb1EEC1Ev
000000000000d7d0 W _ZNSt8_Rb_treeINSt7__cxx1112basic_stringIcSt11char_traitsIcESaIcEEESt4pairIKS5_St10shared_ptrIN10LinkerUtil16SectionMergeDataEEESt10_Select1stISC_ESt4lessIS5_ESaISC_EE13_Rb_tree_implISG_Lb1EEC2Ev
000000000000b572 W _ZNSt8_Rb_treeINSt7__cxx1112basic_stringIcSt11char_traitsIcESaIcEEESt4pairIKS5_St10shared_ptrIN10LinkerUtil16SectionMergeDataEEESt10_Select1stISC_ESt4lessIS5_ESaISC_EE13_Rb_tree_implISG_Lb1EED1Ev
000000000000b572 W _ZNSt8_Rb_treeINSt7__cxx1112basic_stringIcSt11char_traitsIcESaIcEEESt4pairIKS5_St10shared_ptrIN10LinkerUtil16SectionMergeDataEEESt10_Select1stISC_ESt4lessIS5_ESaISC_EE13_Rb_tree_implISG_Lb1EED2Ev
0000000000012c04 W _ZNSt8_Rb_treeINSt7__cxx1112basic_stringIcSt11char_traitsIcESaIcEEESt4pairIKS5_St10shared_ptrIN10LinkerUtil16SectionMergeDataEEESt10_Select1stISC_ESt4lessIS5_ESaISC_EE14_M_create_nodeIJRKSt21piecewise_construct_tSt5tupleIJRS7_EESN_IJEEEEEPSt13_Rb_tree_nodeISC_EDpOT_
0000000000013080 W _ZNSt8_Rb_treeINSt7__cxx1112basic_stringIcSt11char_traitsIcESaIcEEESt4pairIKS5_St10shared_ptrIN10LinkerUtil16SectionMergeDataEEESt10_Select1stISC_ESt4lessIS5_ESaISC_EE14_M_insert_nodeEPSt18_Rb_tree_node_baseSK_PSt13_Rb_tree_nodeISC_E
00000000000129d6 W _ZNSt8_Rb_treeINSt7__cxx1112basic_stringIcSt11char_traitsIcESaIcEEESt4pairIKS5_St10shared_ptrIN10LinkerUtil16SectionMergeDataEEESt10_Select1stISC_ESt4lessIS5_ESaISC_EE14_M_lower_boundEPSt13_Rb_tree_nodeISC_EPSt18_Rb_tree_node_baseRS7_
00000000000154b4 W _ZNSt8_Rb_treeINSt7__cxx1112basic_stringIcSt11char_traitsIcESaIcEEESt4pairIKS5_St10shared_ptrIN10LinkerUtil16SectionMergeDataEEESt10_Select1stISC_ESt4lessIS5_ESaISC_EE15_M_destroy_nodeEPSt13_Rb_tree_nodeISC_E
00000000000155ce W _ZNSt8_Rb_treeINSt7__cxx1112basic_stringIcSt11char_traitsIcESaIcEEESt4pairIKS5_St10shared_ptrIN10LinkerUtil16SectionMergeDataEEESt10_Select1stISC_ESt4lessIS5_ESaISC_EE17_M_construct_nodeIJRKSt21piecewise_construct_tSt5tupleIJRS7_EESN_IJEEEEEvPSt13_Rb_tree_nodeISC_EDpOT_
0000000000017664 W _ZNSt8_Rb_treeINSt7__cxx1112basic_stringIcSt11char_traitsIcESaIcEEESt4pairIKS5_St10shared_ptrIN10LinkerUtil16SectionMergeDataEEESt10_Select1stISC_ESt4lessIS5_ESaISC_EE21_M_get_Node_allocatorEv
000000000001048a W _ZNSt8_Rb_treeINSt7__cxx1112basic_stringIcSt11char_traitsIcESaIcEEESt4pairIKS5_St10shared_ptrIN10LinkerUtil16SectionMergeDataEEESt10_Select1stISC_ESt4lessIS5_ESaISC_EE22_M_emplace_hint_uniqueIJRKSt21piecewise_construct_tSt5tupleIJRS7_EESN_IJEEEEESt17_Rb_tree_iteratorISC_ESt23_Rb_tree_const_iteratorISC_EDpOT_
0000000000015768 W _ZNSt8_Rb_treeINSt7__cxx1112basic_stringIcSt11char_traitsIcESaIcEEESt4pairIKS5_St10shared_ptrIN10LinkerUtil16SectionMergeDataEEESt10_Select1stISC_ESt4lessIS5_ESaISC_EE24_M_get_insert_unique_posERS7_
0000000000012c84 W _ZNSt8_Rb_treeINSt7__cxx1112basic_stringIcSt11char_traitsIcESaIcEEESt4pairIKS5_St10shared_ptrIN10LinkerUtil16SectionMergeDataEEESt10_Select1stISC_ESt4lessIS5_ESaISC_EE29_M_get_insert_hint_unique_posESt23_Rb_tree_const_iteratorISC_ERS7_
0000000000010304 W _ZNSt8_Rb_treeINSt7__cxx1112basic_stringIcSt11char_traitsIcESaIcEEESt4pairIKS5_St10shared_ptrIN10LinkerUtil16SectionMergeDataEEESt10_Select1stISC_ESt4lessIS5_ESaISC_EE3endEv
000000000001022e W _ZNSt8_Rb_treeINSt7__cxx1112basic_stringIcSt11char_traitsIcESaIcEEESt4pairIKS5_St10shared_ptrIN10LinkerUtil16SectionMergeDataEEESt10_Select1stISC_ESt4lessIS5_ESaISC_EE4findERS7_
00000000000105d0 W _ZNSt8_Rb_treeINSt7__cxx1112basic_stringIcSt11char_traitsIcESaIcEEESt4pairIKS5_St10shared_ptrIN10LinkerUtil16SectionMergeDataEEESt10_Select1stISC_ESt4lessIS5_ESaISC_EE5beginEv
00000000000129c0 W _ZNSt8_Rb_treeINSt7__cxx1112basic_stringIcSt11char_traitsIcESaIcEEESt4pairIKS5_St10shared_ptrIN10LinkerUtil16SectionMergeDataEEESt10_Select1stISC_ESt4lessIS5_ESaISC_EE6_M_endEv
000000000001302c W _ZNSt8_Rb_treeINSt7__cxx1112basic_stringIcSt11char_traitsIcESaIcEEESt4pairIKS5_St10shared_ptrIN10LinkerUtil16SectionMergeDataEEESt10_Select1stISC_ESt4lessIS5_ESaISC_EE6_S_keyEPKSt13_Rb_tree_nodeISC_E
0000000000012a92 W _ZNSt8_Rb_treeINSt7__cxx1112basic_stringIcSt11char_traitsIcESaIcEEESt4pairIKS5_St10shared_ptrIN10LinkerUtil16SectionMergeDataEEESt10_Select1stISC_ESt4lessIS5_ESaISC_EE6_S_keyEPKSt18_Rb_tree_node_base
0000000000012955 W _ZNSt8_Rb_treeINSt7__cxx1112basic_stringIcSt11char_traitsIcESaIcEEESt4pairIKS5_St10shared_ptrIN10LinkerUtil16SectionMergeDataEEESt10_Select1stISC_ESt4lessIS5_ESaISC_EE7_S_leftEPSt18_Rb_tree_node_base
00000000000101a8 W _ZNSt8_Rb_treeINSt7__cxx1112basic_stringIcSt11char_traitsIcESaIcEEESt4pairIKS5_St10shared_ptrIN10LinkerUtil16SectionMergeDataEEESt10_Select1stISC_ESt4lessIS5_ESaISC_EE8_M_beginEv
000000000001013e W _ZNSt8_Rb_treeINSt7__cxx1112basic_stringIcSt11char_traitsIcESaIcEEESt4pairIKS5_St10shared_ptrIN10LinkerUtil16SectionMergeDataEEESt10_Select1stISC_ESt4lessIS5_ESaISC_EE8_M_eraseEPSt13_Rb_tree_nodeISC_E
000000000001293f W _ZNSt8_Rb_treeINSt7__cxx1112basic_stringIcSt11char_traitsIcESaIcEEESt4pairIKS5_St10shared_ptrIN10LinkerUtil16SectionMergeDataEEESt10_Select1stISC_ESt4lessIS5_ESaISC_EE8_S_rightEPSt18_Rb_tree_node_base
000000000000b592 W _ZNSt8_Rb_treeINSt7__cxx1112basic_stringIcSt11char_traitsIcESaIcEEESt4pairIKS5_St10shared_ptrIN10LinkerUtil16SectionMergeDataEEESt10_Select1stISC_ESt4lessIS5_ESaISC_EEC1Ev
000000000000b592 W _ZNSt8_Rb_treeINSt7__cxx1112basic_stringIcSt11char_traitsIcESaIcEEESt4pairIKS5_St10shared_ptrIN10LinkerUtil16SectionMergeDataEEESt10_Select1stISC_ESt4lessIS5_ESaISC_EEC2Ev
000000000000d82c W _ZNSt8_Rb_treeINSt7__cxx1112basic_stringIcSt11char_traitsIcESaIcEEESt4pairIKS5_St10shared_ptrIN10LinkerUtil16SectionMergeDataEEESt10_Select1stISC_ESt4lessIS5_ESaISC_EED1Ev
000000000000d82c W _ZNSt8_Rb_treeINSt7__cxx1112basic_stringIcSt11char_traitsIcESaIcEEESt4pairIKS5_St10shared_ptrIN10LinkerUtil16SectionMergeDataEEESt10_Select1stISC_ESt4lessIS5_ESaISC_EED2Ev
000000000000a8cc W _ZNSt9exceptionC1Ev
000000000000a8cc W _ZNSt9exceptionC2Ev
                 U _ZNSt9exceptionD2Ev@GLIBCXX_3.4
                 U _Znwm@GLIBCXX_3.4
000000000000a8e9 W _ZnwmPv
0000000000016edd W _ZSt10_ConstructINSt7__cxx1112basic_stringIcSt11char_traitsIcESaIcEEEJRKS5_EEvPT_DpOT0_
000000000001bdb5 W _ZSt10_ConstructISt10shared_ptrIN12AssemblyUtil12SectionEntryEEJRKS3_EEvPT_DpOT0_
000000000001bd0b W _ZSt10_ConstructISt10shared_ptrIN12AssemblyUtil16SymbolTableEntryEEJRKS3_EEvPT_DpOT0_
000000000001be5f W _ZSt10_ConstructISt10shared_ptrIN12AssemblyUtil20RelocationTableEntryEEJRKS3_EEvPT_DpOT0_
000000000002d4e2 W _ZSt10_ConstructISt10shared_ptrIN15InstructionUtil14CodePopulationEEJRKS3_EEvPT_DpOT0_
000000000002fd4d W _ZSt10_ConstructISt10shared_ptrIN15InstructionUtil14CodePopulationEEJRS3_EEvPT_DpOT0_
000000000002de1c W _ZSt10_ConstructISt4pairIMN12AssemblyUtil11InstructionEFvtEN15InstructionUtil11eValueToUseEEJRKS7_EEvPT_DpOT0_
000000000002ce89 W _ZSt10_ConstructISt4pairIN12AssemblyUtil11InstructionESt6vectorISt10shared_ptrIN15InstructionUtil14CodePopulationEESaIS7_EEEJRKSA_EEvPT_DpOT0_
000000000002cc7b W _ZSt10_ConstructISt4pairIN12AssemblyUtil11InstructionESt6vectorISt10shared_ptrIN15InstructionUtil14CodePopulationEESaIS7_EEEJRSA_EEvPT_DpOT0_
0000000000016d4c W _ZSt10_ConstructISt4pairINSt7__cxx1112basic_stringIcSt11char_traitsIcESaIcEEEmEJRKS7_EEvPT_DpOT0_
00000000000116a7 W _ZSt10__distanceIPKcENSt15iterator_traitsIT_E15difference_typeES3_S3_St26random_access_iterator_tag
0000000000021c1e W _ZSt10__distanceIPKhENSt15iterator_traitsIT_E15difference_typeES3_S3_St26random_access_iterator_tag
0000000000029f02 W _ZSt10__distanceIPKSt4pairIMN12AssemblyUtil11InstructionEFvtEN15InstructionUtil11eValueToUseEEENSt15iterator_traitsIT_E15difference_typeESB_SB_St26random_access_iterator_tag
0000000000016eb6 W _ZSt11__addressofINSt7__cxx1112basic_stringIcSt11char_traitsIcESaIcEEEEPT_RS6_
0000000000036666 W _ZSt11__addressofINSt8__detail10_Hash_nodeISt4pairIKNSt7__cxx1112basic_stringIcSt11char_traitsIcESaIcEEEN10ParserUtil4eCSREELb1EEEEPT_RSE_
000000000003656e W _ZSt11__addressofINSt8__detail10_Hash_nodeISt4pairIKNSt7__cxx1112basic_stringIcSt11char_traitsIcESaIcEEEN10ParserUtil4eGPREELb1EEEEPT_RSE_
00000000000364f0 W _ZSt11__addressofIPNSt8__detail15_Hash_node_baseEEPT_RS3_
000000000001b9cd W _ZSt11__addressofISaISt23_Sp_counted_ptr_inplaceIN10LinkerUtil16SectionMergeDataESaIS2_ELN9__gnu_cxx12_Lock_policyE2EEEEPT_RS8_
000000000001b705 W _ZSt11__addressofISaISt23_Sp_counted_ptr_inplaceIN12AssemblyUtil12SectionEntryESaIS2_ELN9__gnu_cxx12_Lock_policyE2EEEEPT_RS8_
000000000001bf7c W _ZSt11__addressofISaISt23_Sp_counted_ptr_inplaceIN12AssemblyUtil16SymbolTableEntryESaIS2_ELN9__gnu_cxx12_Lock_policyE2EEEEPT_RS8_
000000000001c226 W _ZSt11__addressofISaISt23_Sp_counted_ptr_inplaceIN12AssemblyUtil20RelocationTableEntryESaIS2_ELN9__gnu_cxx12_Lock_policyE2EEEEPT_RS8_
000000000002e52b W _ZSt11__addressofISaISt23_Sp_counted_ptr_inplaceIN15InstructionUtil14CodePopulationESaIS2_ELN9__gnu_cxx12_Lock_policyE2EEEEPT_RS8_
000000000001722c W _ZSt11__addressofISt10shared_ptrIN10LinkerUtil16SectionMergeDataEEEPT_RS4_
0000000000016b10 W _ZSt11__addressofISt10shared_ptrIN12AssemblyUtil12SectionEntryEEEPT_RS4_
0000000000016adf W _ZSt11__addressofISt10shared_ptrIN12AssemblyUtil16SymbolTableEntryEEEPT_RS4_
0000000000016b41 W _ZSt11__addressofISt10shared_ptrIN12AssemblyUtil20RelocationTableEntryEEEPT_RS4_
000000000002c004 W _ZSt11__addressofISt10shared_ptrIN15InstructionUtil14CodePopulationEEEPT_RS4_
000000000001a6a4 W _ZSt11__addressofISt4pairIiSt10shared_ptrIN12AssemblyUtil12SectionEntryEEEEPT_RS6_
000000000002de0a W _ZSt11__addressofISt4pairIMN12AssemblyUtil11InstructionEFvtEN15InstructionUtil11eValueToUseEEEPT_RS8_
000000000002ca97 W _ZSt11__addressofISt4pairIN12AssemblyUtil11InstructionESt6vectorISt10shared_ptrIN15InstructionUtil14CodePopulationEESaIS7_EEEEPT_RSB_
0000000000016cea W _ZSt11__addressofISt4pairINSt7__cxx1112basic_stringIcSt11char_traitsIcESaIcEEEmEEPT_RS8_
0000000000016ba3 W _ZSt11__addressofISt6vectorISt10shared_ptrIN12AssemblyUtil12SectionEntryEESaIS4_EEEPT_RS7_
0000000000016b72 W _ZSt11__addressofISt6vectorISt10shared_ptrIN12AssemblyUtil16SymbolTableEntryEESaIS4_EEEPT_RS7_
0000000000016bd4 W _ZSt11__addressofISt6vectorISt10shared_ptrIN12AssemblyUtil20RelocationTableEntryEESaIS4_EEEPT_RS7_
                 U _ZSt11_Hash_bytesPKvmm@CXXABI_1.3.5
000000000000db04 W _ZSt11make_sharedIN10LinkerUtil16SectionMergeDataEJEESt10shared_ptrIT_EDpOT0_
000000000000d3e1 W _ZSt11make_sharedIN12AssemblyUtil12SectionEntryEJEESt10shared_ptrIT_EDpOT0_
000000000000e2a3 W _ZSt11make_sharedIN12AssemblyUtil16SymbolTableEntryEJEESt10shared_ptrIT_EDpOT0_
0000000000020379 W _ZSt11make_sharedIN12AssemblyUtil16SymbolTableEntryEJRNSt7__cxx1112basic_stringIcSt11char_traitsIcESaIcEEES8_RiRbSA_S9_EESt10shared_ptrIT_EDpOT0_
000000000000e4cd W _ZSt11make_sharedIN12AssemblyUtil20RelocationTableEntryEJEESt10shared_ptrIT_EDpOT0_
0000000000025e8b W _ZSt11make_sharedIN15InstructionUtil14CodePopulationEJRMN12AssemblyUtil11InstructionEFvtERNS0_11eValueToUseEEESt10shared_ptrIT_EDpOT0_
000000000002f4d5 W _ZSt12__get_helperILm0ERKN10ParserUtil12eOperandTypeEJEERT0_RSt11_Tuple_implIXT_EJS4_DpT1_EE
000000000002f523 W _ZSt12__get_helperILm0ERKN10ParserUtil15eAddressingTypeEJEERT0_RSt11_Tuple_implIXT_EJS4_DpT1_EE
000000000002f487 W _ZSt12__get_helperILm0ERKN10ParserUtil22eInstructionIdentifierEJEERT0_RSt11_Tuple_implIXT_EJS4_DpT1_EE
000000000001cc75 W _ZSt12__get_helperILm0ERKNSt7__cxx1112basic_stringIcSt11char_traitsIcESaIcEEEJEERT0_RSt11_Tuple_implIXT_EJS8_DpT1_EE
00000000000221eb W _ZSt12__miter_baseIN9__gnu_cxx17__normal_iteratorIPKhSt6vectorIhSaIhEEEEET_S8_
000000000002f6f2 W _ZSt12__miter_baseIN9__gnu_cxx17__normal_iteratorIPKSt10shared_ptrIN15InstructionUtil14CodePopulationEESt6vectorIS5_SaIS5_EEEEET_SC_
0000000000029ced W _ZSt12__miter_baseIN9__gnu_cxx17__normal_iteratorIPKSt4pairIN12AssemblyUtil11InstructionESt6vectorISt10shared_ptrIN15InstructionUtil14CodePopulationEESaIS9_EEES5_ISC_SaISC_EEEEET_SI_
00000000000197d7 W _ZSt12__miter_baseIN9__gnu_cxx17__normal_iteratorIPSt10shared_ptrIN10LinkerUtil16SectionMergeDataEESt6vectorIS5_SaIS5_EEEEET_SB_
000000000001912a W _ZSt12__miter_baseIN9__gnu_cxx17__normal_iteratorIPSt4pairINSt7__cxx1112basic_stringIcSt11char_traitsIcESaIcEEEmESt6vectorIS9_SaIS9_EEEEET_SF_
000000000002f5d9 W _ZSt12__miter_baseIPhET_S1_
0000000000021fc0 W _ZSt12__miter_baseIPKhET_S2_
000000000002f79c W _ZSt12__miter_baseIPSt10shared_ptrIN15InstructionUtil14CodePopulationEEET_S5_
0000000000029d97 W _ZSt12__miter_baseIPSt4pairIN12AssemblyUtil11InstructionESt6vectorISt10shared_ptrIN15InstructionUtil14CodePopulationEESaIS7_EEEET_SC_
000000000001b372 W _ZSt12__niter_baseIPhET_S1_
000000000002f8cb W _ZSt12__niter_baseIPhSt6vectorIhSaIhEEET_N9__gnu_cxx17__normal_iteratorIS4_T0_EE
00000000000220e1 W _ZSt12__niter_baseIPKhET_S2_
00000000000222ba W _ZSt12__niter_baseIPKhSt6vectorIhSaIhEEET_N9__gnu_cxx17__normal_iteratorIS5_T0_EE
000000000002f99f W _ZSt12__niter_baseIPKSt10shared_ptrIN15InstructionUtil14CodePopulationEESt6vectorIS3_SaIS3_EEET_N9__gnu_cxx17__normal_iteratorIS9_T0_EE
000000000002bb59 W _ZSt12__niter_baseIPKSt4pairIN12AssemblyUtil11InstructionESt6vectorISt10shared_ptrIN15InstructionUtil14CodePopulationEESaIS7_EEES3_ISA_SaISA_EEET_N9__gnu_cxx17__normal_iteratorISF_T0_EE
000000000001e905 W _ZSt12__niter_baseIPNSt7__cxx1112basic_stringIcSt11char_traitsIcESaIcEEEET_S7_
0000000000019650 W _ZSt12__niter_baseIPSt10shared_ptrIN10LinkerUtil16SectionMergeDataEEET_S5_
000000000001ad87 W _ZSt12__niter_baseIPSt10shared_ptrIN10LinkerUtil16SectionMergeDataEESt6vectorIS3_SaIS3_EEET_N9__gnu_cxx17__normal_iteratorIS8_T0_EE
0000000000018ffe W _ZSt12__niter_baseIPSt10shared_ptrIN12AssemblyUtil12SectionEntryEEET_S5_
0000000000018c72 W _ZSt12__niter_baseIPSt10shared_ptrIN12AssemblyUtil16SymbolTableEntryEEET_S5_
0000000000018d17 W _ZSt12__niter_baseIPSt10shared_ptrIN12AssemblyUtil20RelocationTableEntryEEET_S5_
000000000002deff W _ZSt12__niter_baseIPSt10shared_ptrIN15InstructionUtil14CodePopulationEEET_S5_
000000000002f9c0 W _ZSt12__niter_baseIPSt10shared_ptrIN15InstructionUtil14CodePopulationEESt6vectorIS3_SaIS3_EEET_N9__gnu_cxx17__normal_iteratorIS8_T0_EE
000000000001a61d W _ZSt12__niter_baseIPSt4pairIiSt10shared_ptrIN12AssemblyUtil12SectionEntryEEEET_S7_
000000000002bc78 W _ZSt12__niter_baseIPSt4pairIN12AssemblyUtil11InstructionESt6vectorISt10shared_ptrIN15InstructionUtil14CodePopulationEESaIS7_EEEET_SC_
000000000002bb7a W _ZSt12__niter_baseIPSt4pairIN12AssemblyUtil11InstructionESt6vectorISt10shared_ptrIN15InstructionUtil14CodePopulationEESaIS7_EEES3_ISA_SaISA_EEET_N9__gnu_cxx17__normal_iteratorISE_T0_EE
00000000000317f5 W _ZSt12__niter_baseIPSt4pairINSt7__cxx1112basic_stringIcSt11char_traitsIcESaIcEEEmEET_S9_
000000000001aa9d W _ZSt12__niter_baseIPSt4pairINSt7__cxx1112basic_stringIcSt11char_traitsIcESaIcEEEmESt6vectorIS7_SaIS7_EEET_N9__gnu_cxx17__normal_iteratorISC_T0_EE
0000000000019d55 W _ZSt12__niter_baseIPSt6vectorISt10shared_ptrIN12AssemblyUtil12SectionEntryEESaIS4_EEET_S8_
0000000000019bbd W _ZSt12__niter_baseIPSt6vectorISt10shared_ptrIN12AssemblyUtil16SymbolTableEntryEESaIS4_EEET_S8_
0000000000019eed W _ZSt12__niter_baseIPSt6vectorISt10shared_ptrIN12AssemblyUtil20RelocationTableEntryEESaIS4_EEET_S8_
000000000002f8ec W _ZSt12__niter_wrapIN9__gnu_cxx17__normal_iteratorIPhSt6vectorIhSaIhEEEES2_ET_S7_T0_
000000000001add9 W _ZSt12__niter_wrapIN9__gnu_cxx17__normal_iteratorIPSt10shared_ptrIN10LinkerUtil16SectionMergeDataEESt6vectorIS5_SaIS5_EEEES6_ET_SB_T0_
000000000002fa12 W _ZSt12__niter_wrapIN9__gnu_cxx17__normal_iteratorIPSt10shared_ptrIN15InstructionUtil14CodePopulationEESt6vectorIS5_SaIS5_EEEES6_ET_SB_T0_
000000000002bbcc W _ZSt12__niter_wrapIN9__gnu_cxx17__normal_iteratorIPSt4pairIN12AssemblyUtil11InstructionESt6vectorISt10shared_ptrIN15InstructionUtil14CodePopulationEESaIS9_EEES5_ISC_SaISC_EEEESD_ET_SH_T0_
000000000001aaef W _ZSt12__niter_wrapIN9__gnu_cxx17__normal_iteratorIPSt4pairINSt7__cxx1112basic_stringIcSt11char_traitsIcESaIcEEEmESt6vectorIS9_SaIS9_EEEESA_ET_SF_T0_
0000000000022124 W _ZSt12__niter_wrapIPhET_RKS1_S1_
000000000002fade W _ZSt12__niter_wrapIPSt10shared_ptrIN15InstructionUtil14CodePopulationEEET_RKS5_S5_
000000000002bcbb W _ZSt12__niter_wrapIPSt4pairIN12AssemblyUtil11InstructionESt6vectorISt10shared_ptrIN15InstructionUtil14CodePopulationEESaIS7_EEEET_RKSC_SC_
000000000001a2c4 W _ZSt12__relocate_aIPhS0_SaIhEET0_T_S3_S2_RT1_
000000000001e880 W _ZSt12__relocate_aIPNSt7__cxx1112basic_stringIcSt11char_traitsIcESaIcEEES6_SaIS5_EET0_T_S9_S8_RT1_
0000000000017a21 W _ZSt12__relocate_aIPSt10shared_ptrIN10LinkerUtil16SectionMergeDataEES4_SaIS3_EET0_T_S7_S6_RT1_
0000000000017495 W _ZSt12__relocate_aIPSt10shared_ptrIN12AssemblyUtil12SectionEntryEES4_SaIS3_EET0_T_S7_S6_RT1_
0000000000017065 W _ZSt12__relocate_aIPSt10shared_ptrIN12AssemblyUtil16SymbolTableEntryEES4_SaIS3_EET0_T_S7_S6_RT1_
00000000000171c5 W _ZSt12__relocate_aIPSt10shared_ptrIN12AssemblyUtil20RelocationTableEntryEES4_SaIS3_EET0_T_S7_S6_RT1_
000000000002d0e7 W _ZSt12__relocate_aIPSt10shared_ptrIN15InstructionUtil14CodePopulationEES4_SaIS3_EET0_T_S7_S6_RT1_
00000000000189d8 W _ZSt12__relocate_aIPSt4pairIiSt10shared_ptrIN12AssemblyUtil12SectionEntryEEES6_SaIS5_EET0_T_S9_S8_RT1_
000000000002d68f W _ZSt12__relocate_aIPSt4pairIN12AssemblyUtil11InstructionESt6vectorISt10shared_ptrIN15InstructionUtil14CodePopulationEESaIS7_EEESB_SaISA_EET0_T_SE_SD_RT1_
0000000000031770 W _ZSt12__relocate_aIPSt4pairINSt7__cxx1112basic_stringIcSt11char_traitsIcESaIcEEEmES8_SaIS7_EET0_T_SB_SA_RT1_
0000000000018216 W _ZSt12__relocate_aIPSt6vectorISt10shared_ptrIN12AssemblyUtil12SectionEntryEESaIS4_EES7_SaIS6_EET0_T_SA_S9_RT1_
0000000000017fc2 W _ZSt12__relocate_aIPSt6vectorISt10shared_ptrIN12AssemblyUtil16SymbolTableEntryEESaIS4_EES7_SaIS6_EET0_T_SA_S9_RT1_
000000000001846a W _ZSt12__relocate_aIPSt6vectorISt10shared_ptrIN12AssemblyUtil20RelocationTableEntryEESaIS4_EES7_SaIS6_EET0_T_SA_S9_RT1_
000000000003503c W _ZSt12__to_addressINSt8__detail10_Hash_nodeISt4pairIKNSt7__cxx1112basic_stringIcSt11char_traitsIcESaIcEEEN10ParserUtil4eCSREELb1EEEEPT_SF_
00000000000347d6 W _ZSt12__to_addressINSt8__detail10_Hash_nodeISt4pairIKNSt7__cxx1112basic_stringIcSt11char_traitsIcESaIcEEEN10ParserUtil4eGPREELb1EEEEPT_SF_
0000000000035f69 W _ZSt12__to_addressIPNSt8__detail15_Hash_node_baseEEPT_S4_
000000000001abfc W _ZSt12__to_addressISt23_Sp_counted_ptr_inplaceIN10LinkerUtil16SectionMergeDataESaIS2_ELN9__gnu_cxx12_Lock_policyE2EEEPT_S8_
000000000001a92e W _ZSt12__to_addressISt23_Sp_counted_ptr_inplaceIN12AssemblyUtil12SectionEntryESaIS2_ELN9__gnu_cxx12_Lock_policyE2EEEPT_S8_
000000000001b2bc W _ZSt12__to_addressISt23_Sp_counted_ptr_inplaceIN12AssemblyUtil16SymbolTableEntryESaIS2_ELN9__gnu_cxx12_Lock_policyE2EEEPT_S8_
000000000001b492 W _ZSt12__to_addressISt23_Sp_counted_ptr_inplaceIN12AssemblyUtil20RelocationTableEntryESaIS2_ELN9__gnu_cxx12_Lock_policyE2EEEPT_S8_
000000000002e040 W _ZSt12__to_addressISt23_Sp_counted_ptr_inplaceIN15InstructionUtil14CodePopulationESaIS2_ELN9__gnu_cxx12_Lock_policyE2EEEPT_S8_
000000000002f541 W _ZSt13__copy_move_aILb0EN9__gnu_cxx17__normal_iteratorIPKhSt6vectorIhSaIhEEEENS1_IPhS6_EEET1_T0_SB_SA_
00000000000221fd W _ZSt13__copy_move_aILb0EN9__gnu_cxx17__normal_iteratorIPKhSt6vectorIhSaIhEEEEPhET1_T0_SA_S9_
000000000002f704 W _ZSt13__copy_move_aILb0EN9__gnu_cxx17__normal_iteratorIPKSt10shared_ptrIN15InstructionUtil14CodePopulationEESt6vectorIS5_SaIS5_EEEENS1_IPS5_SA_EEET1_T0_SF_SE_
0000000000029cff W _ZSt13__copy_move_aILb0EN9__gnu_cxx17__normal_iteratorIPKSt4pairIN12AssemblyUtil11InstructionESt6vectorISt10shared_ptrIN15InstructionUtil14CodePopulationEESaIS9_EEES5_ISC_SaISC_EEEENS1_IPSC_SG_EEET1_T0_SL_SK_
000000000002f5eb W _ZSt13__copy_move_aILb0EPhS0_ET1_T0_S2_S1_
0000000000021fd2 W _ZSt13__copy_move_aILb0EPKhPhET1_T0_S4_S3_
000000000002f7ae W _ZSt13__copy_move_aILb0EPSt10shared_ptrIN15InstructionUtil14CodePopulationEES4_ET1_T0_S6_S5_
0000000000029da9 W _ZSt13__copy_move_aILb0EPSt4pairIN12AssemblyUtil11InstructionESt6vectorISt10shared_ptrIN15InstructionUtil14CodePopulationEESaIS7_EEESB_ET1_T0_SD_SC_
0000000000017b79 W _ZSt13move_backwardIN9__gnu_cxx17__normal_iteratorIPSt10shared_ptrIN10LinkerUtil16SectionMergeDataEESt6vectorIS5_SaIS5_EEEESA_ET0_T_SC_SB_
00000000000175c0 W _ZSt13move_backwardIN9__gnu_cxx17__normal_iteratorIPSt4pairINSt7__cxx1112basic_stringIcSt11char_traitsIcESaIcEEEmESt6vectorIS9_SaIS9_EEEESE_ET0_T_SG_SF_
000000000002f93d W _ZSt14__copy_move_a1ILb0EPhS0_ET1_T0_S2_S1_
00000000000220f3 W _ZSt14__copy_move_a1ILb0EPKhPhET1_T0_S4_S3_
000000000002f9e1 W _ZSt14__copy_move_a1ILb0EPKSt10shared_ptrIN15InstructionUtil14CodePopulationEEPS3_ET1_T0_S8_S7_
000000000002bb9b W _ZSt14__copy_move_a1ILb0EPKSt4pairIN12AssemblyUtil11InstructionESt6vectorISt10shared_ptrIN15InstructionUtil14CodePopulationEESaIS7_EEEPSA_ET1_T0_SF_SE_
000000000002faad W _ZSt14__copy_move_a1ILb0EPSt10shared_ptrIN15InstructionUtil14CodePopulationEES4_ET1_T0_S6_S5_
000000000002bc8a W _ZSt14__copy_move_a1ILb0EPSt4pairIN12AssemblyUtil11InstructionESt6vectorISt10shared_ptrIN15InstructionUtil14CodePopulationEESaIS7_EEESB_ET1_T0_SD_SC_
000000000002fbf0 W _ZSt14__copy_move_a2ILb0EPhS0_ET1_T0_S2_S1_
00000000000221ba W _ZSt14__copy_move_a2ILb0EPKhPhET1_T0_S4_S3_
000000000002fc21 W _ZSt14__copy_move_a2ILb0EPKSt10shared_ptrIN15InstructionUtil14CodePopulationEEPS3_ET1_T0_S8_S7_
000000000002cada W _ZSt14__copy_move_a2ILb0EPKSt4pairIN12AssemblyUtil11InstructionESt6vectorISt10shared_ptrIN15InstructionUtil14CodePopulationEESaIS7_EEEPSA_ET1_T0_SF_SE_
000000000002fd1c W _ZSt14__copy_move_a2ILb0EPSt10shared_ptrIN15InstructionUtil14CodePopulationEES4_ET1_T0_S6_S5_
000000000002cbe0 W _ZSt14__copy_move_a2ILb0EPSt4pairIN12AssemblyUtil11InstructionESt6vectorISt10shared_ptrIN15InstructionUtil14CodePopulationEESaIS7_EEESB_ET1_T0_SD_SC_
000000000001b384 W _ZSt14__relocate_a_1IhhENSt9enable_ifIXsrSt24__is_bitwise_relocatableIT_vE5valueEPS2_E4typeES4_S4_S4_RSaIT0_E
000000000001e917 W _ZSt14__relocate_a_1IPNSt7__cxx1112basic_stringIcSt11char_traitsIcESaIcEEES6_SaIS5_EET0_T_S9_S8_RT1_
0000000000019662 W _ZSt14__relocate_a_1IPSt10shared_ptrIN10LinkerUtil16SectionMergeDataEES4_SaIS3_EET0_T_S7_S6_RT1_
0000000000019010 W _ZSt14__relocate_a_1IPSt10shared_ptrIN12AssemblyUtil12SectionEntryEES4_SaIS3_EET0_T_S7_S6_RT1_
0000000000018c84 W _ZSt14__relocate_a_1IPSt10shared_ptrIN12AssemblyUtil16SymbolTableEntryEES4_SaIS3_EET0_T_S7_S6_RT1_
0000000000018d29 W _ZSt14__relocate_a_1IPSt10shared_ptrIN12AssemblyUtil20RelocationTableEntryEES4_SaIS3_EET0_T_S7_S6_RT1_
000000000002df11 W _ZSt14__relocate_a_1IPSt10shared_ptrIN15InstructionUtil14CodePopulationEES4_SaIS3_EET0_T_S7_S6_RT1_
000000000001a62f W _ZSt14__relocate_a_1IPSt4pairIiSt10shared_ptrIN12AssemblyUtil12SectionEntryEEES6_SaIS5_EET0_T_S9_S8_RT1_
000000000002e146 W _ZSt14__relocate_a_1IPSt4pairIN12AssemblyUtil11InstructionESt6vectorISt10shared_ptrIN15InstructionUtil14CodePopulationEESaIS7_EEESB_SaISA_EET0_T_SE_SD_RT1_
0000000000031807 W _ZSt14__relocate_a_1IPSt4pairINSt7__cxx1112basic_stringIcSt11char_traitsIcESaIcEEEmES8_SaIS7_EET0_T_SB_SA_RT1_
0000000000019d67 W _ZSt14__relocate_a_1IPSt6vectorISt10shared_ptrIN12AssemblyUtil12SectionEntryEESaIS4_EES7_SaIS6_EET0_T_SA_S9_RT1_
0000000000019bcf W _ZSt14__relocate_a_1IPSt6vectorISt10shared_ptrIN12AssemblyUtil16SymbolTableEntryEESaIS4_EES7_SaIS6_EET0_T_SA_S9_RT1_
0000000000019eff W _ZSt14__relocate_a_1IPSt6vectorISt10shared_ptrIN12AssemblyUtil20RelocationTableEntryEESaIS4_EES7_SaIS6_EET0_T_SA_S9_RT1_
0000000000010393 W _ZSt15allocate_sharedIN10LinkerUtil16SectionMergeDataESaIS1_EJEESt10shared_ptrIT_ERKT0_DpOT1_
000000000000fe73 W _ZSt15allocate_sharedIN12AssemblyUtil12SectionEntryESaIS1_EJEESt10shared_ptrIT_ERKT0_DpOT1_
00000000000113fb W _ZSt15allocate_sharedIN12AssemblyUtil16SymbolTableEntryESaIS1_EJEESt10shared_ptrIT_ERKT0_DpOT1_
000000000002077c W _ZSt15allocate_sharedIN12AssemblyUtil16SymbolTableEntryESaIS1_EJRNSt7__cxx1112basic_stringIcSt11char_traitsIcESaIcEEES9_RiRbSB_SA_EESt10shared_ptrIT_ERKT0_DpOT1_
00000000000115f5 W _ZSt15allocate_sharedIN12AssemblyUtil20RelocationTableEntryESaIS1_EJEESt10shared_ptrIT_ERKT0_DpOT1_
0000000000026e3d W _ZSt15allocate_sharedIN15InstructionUtil14CodePopulationESaIS1_EJRMN12AssemblyUtil11InstructionEFvtERNS0_11eValueToUseEEESt10shared_ptrIT_ERKT0_DpOT1_
000000000002f0b3 W _ZSt15__alloc_on_copyISaIhEEvRT_RKS1_
000000000002f2a9 W _ZSt15__alloc_on_copyISaISt10shared_ptrIN15InstructionUtil14CodePopulationEEEEvRT_RKS5_
000000000002784f W _ZSt15__alloc_on_copyISaISt4pairIN12AssemblyUtil11InstructionESt6vectorISt10shared_ptrIN15InstructionUtil14CodePopulationEESaIS7_EEEEEvRT_RKSC_
                 U _ZSt17__throw_bad_allocv@GLIBCXX_3.4
0000000000019291 W _ZSt18__allocate_guardedISaISt23_Sp_counted_ptr_inplaceIN10LinkerUtil16SectionMergeDataESaIS2_ELN9__gnu_cxx12_Lock_policyE2EEEESt15__allocated_ptrIT_ERS9_
0000000000018de1 W _ZSt18__allocate_guardedISaISt23_Sp_counted_ptr_inplaceIN12AssemblyUtil12SectionEntryESaIS2_ELN9__gnu_cxx12_Lock_policyE2EEEESt15__allocated_ptrIT_ERS9_
0000000000019fb7 W _ZSt18__allocate_guardedISaISt23_Sp_counted_ptr_inplaceIN12AssemblyUtil16SymbolTableEntryESaIS2_ELN9__gnu_cxx12_Lock_policyE2EEEESt15__allocated_ptrIT_ERS9_
000000000001a3af W _ZSt18__allocate_guardedISaISt23_Sp_counted_ptr_inplaceIN12AssemblyUtil20RelocationTableEntryESaIS2_ELN9__gnu_cxx12_Lock_policyE2EEEESt15__allocated_ptrIT_ERS9_
000000000002d191 W _ZSt18__allocate_guardedISaISt23_Sp_counted_ptr_inplaceIN15InstructionUtil14CodePopulationESaIS2_ELN9__gnu_cxx12_Lock_policyE2EEEESt15__allocated_ptrIT_ERS9_
                 U _ZSt18_Rb_tree_decrementPSt18_Rb_tree_node_base@GLIBCXX_3.4
                 U _ZSt18_Rb_tree_incrementPSt18_Rb_tree_node_base@GLIBCXX_3.4
0000000000021f60 W _ZSt18uninitialized_copyIN9__gnu_cxx17__normal_iteratorIPKhSt6vectorIhSaIhEEEEPhET0_T_SA_S9_
00000000000120f7 W _ZSt18uninitialized_copyIN9__gnu_cxx17__normal_iteratorIPKNSt7__cxx1112basic_stringIcSt11char_traitsIcESaIcEEESt6vectorIS7_SaIS7_EEEEPS7_ET0_T_SG_SF_
0000000000019d02 W _ZSt18uninitialized_copyIN9__gnu_cxx17__normal_iteratorIPKSt10shared_ptrIN12AssemblyUtil12SectionEntryEESt6vectorIS5_SaIS5_EEEEPS5_ET0_T_SE_SD_
0000000000019b6a W _ZSt18uninitialized_copyIN9__gnu_cxx17__normal_iteratorIPKSt10shared_ptrIN12AssemblyUtil16SymbolTableEntryEESt6vectorIS5_SaIS5_EEEEPS5_ET0_T_SE_SD_
0000000000019e9a W _ZSt18uninitialized_copyIN9__gnu_cxx17__normal_iteratorIPKSt10shared_ptrIN12AssemblyUtil20RelocationTableEntryEESt6vectorIS5_SaIS5_EEEEPS5_ET0_T_SE_SD_
000000000002a6cb W _ZSt18uninitialized_copyIN9__gnu_cxx17__normal_iteratorIPKSt10shared_ptrIN15InstructionUtil14CodePopulationEESt6vectorIS5_SaIS5_EEEEPS5_ET0_T_SE_SD_
000000000002a0ed W _ZSt18uninitialized_copyIN9__gnu_cxx17__normal_iteratorIPKSt4pairIN12AssemblyUtil11InstructionESt6vectorISt10shared_ptrIN15InstructionUtil14CodePopulationEESaIS9_EEES5_ISC_SaISC_EEEEPSC_ET0_T_SK_SJ_
0000000000011f6f W _ZSt18uninitialized_copyIN9__gnu_cxx17__normal_iteratorIPKSt4pairINSt7__cxx1112basic_stringIcSt11char_traitsIcESaIcEEEmESt6vectorIS9_SaIS9_EEEEPS9_ET0_T_SI_SH_
000000000002f659 W _ZSt18uninitialized_copyIPhS0_ET0_T_S2_S1_
0000000000022068 W _ZSt18uninitialized_copyIPKhPhET0_T_S4_S3_
000000000002be7f W _ZSt18uninitialized_copyIPKSt4pairIMN12AssemblyUtil11InstructionEFvtEN15InstructionUtil11eValueToUseEEPS7_ET0_T_SC_SB_
000000000002f81c W _ZSt18uninitialized_copyIPSt10shared_ptrIN15InstructionUtil14CodePopulationEES4_ET0_T_S6_S5_
0000000000029e17 W _ZSt18uninitialized_copyIPSt4pairIN12AssemblyUtil11InstructionESt6vectorISt10shared_ptrIN15InstructionUtil14CodePopulationEESaIS7_EEESB_ET0_T_SD_SC_
0000000000011699 W _ZSt19__iterator_categoryIPKcENSt15iterator_traitsIT_E17iterator_categoryERKS3_
0000000000021c10 W _ZSt19__iterator_categoryIPKhENSt15iterator_traitsIT_E17iterator_categoryERKS3_
0000000000029ef4 W _ZSt19__iterator_categoryIPKSt4pairIMN12AssemblyUtil11InstructionEFvtEN15InstructionUtil11eValueToUseEEENSt15iterator_traitsIT_E17iterator_categoryERKSB_
0000000000037004 u _ZSt19piecewise_construct
000000000001e9aa W _ZSt19__relocate_object_aINSt7__cxx1112basic_stringIcSt11char_traitsIcESaIcEEES5_SaIS5_EEvPT_PT0_RT1_
000000000001ad02 W _ZSt19__relocate_object_aISt10shared_ptrIN10LinkerUtil16SectionMergeDataEES3_SaIS3_EEvPT_PT0_RT1_
000000000001aa18 W _ZSt19__relocate_object_aISt10shared_ptrIN12AssemblyUtil12SectionEntryEES3_SaIS3_EEvPT_PT0_RT1_
000000000001a79e W _ZSt19__relocate_object_aISt10shared_ptrIN12AssemblyUtil16SymbolTableEntryEES3_SaIS3_EEvPT_PT0_RT1_
000000000001a818 W _ZSt19__relocate_object_aISt10shared_ptrIN12AssemblyUtil20RelocationTableEntryEES3_SaIS3_EEvPT_PT0_RT1_
000000000002e448 W _ZSt19__relocate_object_aISt10shared_ptrIN15InstructionUtil14CodePopulationEES3_SaIS3_EEvPT_PT0_RT1_
000000000001b548 W _ZSt19__relocate_object_aISt4pairIiSt10shared_ptrIN12AssemblyUtil12SectionEntryEEES5_SaIS5_EEvPT_PT0_RT1_
000000000002e654 W _ZSt19__relocate_object_aISt4pairIN12AssemblyUtil11InstructionESt6vectorISt10shared_ptrIN15InstructionUtil14CodePopulationEESaIS7_EEESA_SaISA_EEvPT_PT0_RT1_
000000000003189a W _ZSt19__relocate_object_aISt4pairINSt7__cxx1112basic_stringIcSt11char_traitsIcESaIcEEEmES7_SaIS7_EEvPT_PT0_RT1_
000000000001b086 W _ZSt19__relocate_object_aISt6vectorISt10shared_ptrIN12AssemblyUtil12SectionEntryEESaIS4_EES6_SaIS6_EEvPT_PT0_RT1_
000000000001af66 W _ZSt19__relocate_object_aISt6vectorISt10shared_ptrIN12AssemblyUtil16SymbolTableEntryEESaIS4_EES6_SaIS6_EEvPT_PT0_RT1_
000000000001b1a6 W _ZSt19__relocate_object_aISt6vectorISt10shared_ptrIN12AssemblyUtil20RelocationTableEntryEESaIS4_EES6_SaIS6_EEvPT_PT0_RT1_
                 U _ZSt19__throw_logic_errorPKc@GLIBCXX_3.4
                 U _ZSt20__throw_length_errorPKc@GLIBCXX_3.4
                 U _ZSt20__throw_out_of_rangePKc@GLIBCXX_3.4
00000000000197e9 W _ZSt22__copy_move_backward_aILb1EN9__gnu_cxx17__normal_iteratorIPSt10shared_ptrIN10LinkerUtil16SectionMergeDataEESt6vectorIS5_SaIS5_EEEESA_ET1_T0_SC_SB_
000000000001913c W _ZSt22__copy_move_backward_aILb1EN9__gnu_cxx17__normal_iteratorIPSt4pairINSt7__cxx1112basic_stringIcSt11char_traitsIcESaIcEEEmESt6vectorIS9_SaIS9_EEEESE_ET1_T0_SG_SF_
0000000000021bc5 W _ZSt22__uninitialized_copy_aIN9__gnu_cxx17__normal_iteratorIPKhSt6vectorIhSaIhEEEEPhhET0_T_SA_S9_RSaIT1_E
000000000000f668 W _ZSt22__uninitialized_copy_aIN9__gnu_cxx17__normal_iteratorIPKNSt7__cxx1112basic_stringIcSt11char_traitsIcESaIcEEESt6vectorIS7_SaIS7_EEEEPS7_S7_ET0_T_SG_SF_RSaIT1_E
00000000000180df W _ZSt22__uninitialized_copy_aIN9__gnu_cxx17__normal_iteratorIPKSt10shared_ptrIN12AssemblyUtil12SectionEntryEESt6vectorIS5_SaIS5_EEEEPS5_S5_ET0_T_SE_SD_RSaIT1_E
0000000000017e8b W _ZSt22__uninitialized_copy_aIN9__gnu_cxx17__normal_iteratorIPKSt10shared_ptrIN12AssemblyUtil16SymbolTableEntryEESt6vectorIS5_SaIS5_EEEEPS5_S5_ET0_T_SE_SD_RSaIT1_E
0000000000018333 W _ZSt22__uninitialized_copy_aIN9__gnu_cxx17__normal_iteratorIPKSt10shared_ptrIN12AssemblyUtil20RelocationTableEntryEESt6vectorIS5_SaIS5_EEEEPS5_S5_ET0_T_SE_SD_RSaIT1_E
00000000000284d6 W _ZSt22__uninitialized_copy_aIN9__gnu_cxx17__normal_iteratorIPKSt10shared_ptrIN15InstructionUtil14CodePopulationEESt6vectorIS5_SaIS5_EEEEPS5_S5_ET0_T_SE_SD_RSaIT1_E
0000000000027e9d W _ZSt22__uninitialized_copy_aIN9__gnu_cxx17__normal_iteratorIPKSt4pairIN12AssemblyUtil11InstructionESt6vectorISt10shared_ptrIN15InstructionUtil14CodePopulationEESaIS9_EEES5_ISC_SaISC_EEEEPSC_SC_ET0_T_SK_SJ_RSaIT1_E
000000000000f3fc W _ZSt22__uninitialized_copy_aIN9__gnu_cxx17__normal_iteratorIPKSt4pairINSt7__cxx1112basic_stringIcSt11char_traitsIcESaIcEEEmESt6vectorIS9_SaIS9_EEEEPS9_S9_ET0_T_SI_SH_RSaIT1_E
000000000002f234 W _ZSt22__uninitialized_copy_aIPhS0_hET0_T_S2_S1_RSaIT1_E
0000000000021e71 W _ZSt22__uninitialized_copy_aIPKhPhhET0_T_S4_S3_RSaIT1_E
0000000000029fef W _ZSt22__uninitialized_copy_aIPKSt4pairIMN12AssemblyUtil11InstructionEFvtEN15InstructionUtil11eValueToUseEEPS7_S7_ET0_T_SC_SB_RSaIT1_E
000000000002f452 W _ZSt22__uninitialized_copy_aIPSt10shared_ptrIN15InstructionUtil14CodePopulationEES4_S3_ET0_T_S6_S5_RSaIT1_E
0000000000027b6f W _ZSt22__uninitialized_copy_aIPSt4pairIN12AssemblyUtil11InstructionESt6vectorISt10shared_ptrIN15InstructionUtil14CodePopulationEESaIS7_EEESB_SA_ET0_T_SD_SC_RSaIT1_E
000000000001ada8 W _ZSt23__copy_move_backward_a1ILb1EPSt10shared_ptrIN10LinkerUtil16SectionMergeDataEES4_ET1_T0_S6_S5_
000000000001aabe W _ZSt23__copy_move_backward_a1ILb1EPSt4pairINSt7__cxx1112basic_stringIcSt11char_traitsIcESaIcEEEmES8_ET1_T0_SA_S9_
000000000001bbee W _ZSt23__copy_move_backward_a2ILb1EPSt10shared_ptrIN10LinkerUtil16SectionMergeDataEES4_ET1_T0_S6_S5_
000000000001b915 W _ZSt23__copy_move_backward_a2ILb1EPSt4pairINSt7__cxx1112basic_stringIcSt11char_traitsIcESaIcEEEmES8_ET1_T0_SA_S9_
                 U _ZSt24__throw_invalid_argumentPKc@GLIBCXX_3.4
                 U _ZSt28__throw_bad_array_new_lengthv@GLIBCXX_3.4.29
                 U _ZSt29_Rb_tree_insert_and_rebalancebPSt18_Rb_tree_node_baseS0_RS_@GLIBCXX_3.4
000000000002efc7 W _ZSt3getILm0EJRKN10ParserUtil12eOperandTypeEEERNSt13tuple_elementIXT_ESt5tupleIJDpT0_EEE4typeERS8_
000000000002f043 W _ZSt3getILm0EJRKN10ParserUtil15eAddressingTypeEEERNSt13tuple_elementIXT_ESt5tupleIJDpT0_EEE4typeERS8_
000000000002ef5b W _ZSt3getILm0EJRKN10ParserUtil22eInstructionIdentifierEEERNSt13tuple_elementIXT_ESt5tupleIJDpT0_EEE4typeERS8_
000000000001c82c W _ZSt3getILm0EJRKNSt7__cxx1112basic_stringIcSt11char_traitsIcESaIcEEEEERNSt13tuple_elementIXT_ESt5tupleIJDpT0_EEE4typeERSC_
0000000000036223 W _ZSt3getILm0EKNSt7__cxx1112basic_stringIcSt11char_traitsIcESaIcEEEN10ParserUtil4eCSREERKNSt13tuple_elementIXT_ESt4pairIT0_T1_EE4typeERKSD_
0000000000035f7b W _ZSt3getILm0EKNSt7__cxx1112basic_stringIcSt11char_traitsIcESaIcEEEN10ParserUtil4eGPREERKNSt13tuple_elementIXT_ESt4pairIT0_T1_EE4typeERKSD_
000000000000ad8a W _ZSt3hexRSt8ios_base
000000000000b9d3 W _ZSt3maxImERKT_S2_S2_
000000000000a960 W _ZSt3minImERKT_S2_S2_
0000000000053060 B _ZSt4cerr@GLIBCXX_3.4
000000000002f168 W _ZSt4copyIN9__gnu_cxx17__normal_iteratorIPKhSt6vectorIhSaIhEEEENS1_IPhS6_EEET0_T_SB_SA_
000000000002216b W _ZSt4copyIN9__gnu_cxx17__normal_iteratorIPKhSt6vectorIhSaIhEEEEPhET0_T_SA_S9_
000000000002f386 W _ZSt4copyIN9__gnu_cxx17__normal_iteratorIPKSt10shared_ptrIN15InstructionUtil14CodePopulationEESt6vectorIS5_SaIS5_EEEENS1_IPS5_SA_EEET0_T_SF_SE_
0000000000027a52 W _ZSt4copyIN9__gnu_cxx17__normal_iteratorIPKSt4pairIN12AssemblyUtil11InstructionESt6vectorISt10shared_ptrIN15InstructionUtil14CodePopulationEESaIS9_EEES5_ISC_SaISC_EEEENS1_IPSC_SG_EEET0_T_SL_SK_
000000000002f1e5 W _ZSt4copyIPhS0_ET0_T_S2_S1_
0000000000021de4 W _ZSt4copyIPKhPhET0_T_S4_S3_
000000000002f403 W _ZSt4copyIPSt10shared_ptrIN15InstructionUtil14CodePopulationEES4_ET0_T_S6_S5_
0000000000027b20 W _ZSt4copyIPSt4pairIN12AssemblyUtil11InstructionESt6vectorISt10shared_ptrIN15InstructionUtil14CodePopulationEESaIS7_EEESB_ET0_T_SD_SC_
000000000000a77e W _ZSt4__lgl
00000000000114fb W _ZSt4moveIRhEONSt16remove_referenceIT_E4typeEOS2_
000000000001c635 W _ZSt4moveIRmEONSt16remove_referenceIT_E4typeEOS2_
000000000002d529 W _ZSt4moveIRNSt12_Vector_baseIhSaIhEE12_Vector_implEEONSt16remove_referenceIT_E4typeEOS6_
000000000001cf38 W _ZSt4moveIRNSt12_Vector_baseISt10shared_ptrIN12AssemblyUtil12SectionEntryEESaIS4_EE12_Vector_implEEONSt16remove_referenceIT_E4typeEOSA_
000000000001ceb9 W _ZSt4moveIRNSt12_Vector_baseISt10shared_ptrIN12AssemblyUtil16SymbolTableEntryEESaIS4_EE12_Vector_implEEONSt16remove_referenceIT_E4typeEOSA_
000000000001cfb6 W _ZSt4moveIRNSt12_Vector_baseISt10shared_ptrIN12AssemblyUtil20RelocationTableEntryEESaIS4_EE12_Vector_implEEONSt16remove_referenceIT_E4typeEOSA_
000000000002d5a8 W _ZSt4moveIRNSt12_Vector_baseISt10shared_ptrIN15InstructionUtil14CodePopulationEESaIS4_EE12_Vector_implEEONSt16remove_referenceIT_E4typeEOSA_
000000000000ea6e W _ZSt4moveIRNSt7__cxx1112basic_stringIcSt11char_traitsIcESaIcEEEEONSt16remove_referenceIT_E4typeEOS8_
000000000001bc1f W _ZSt4moveIRPN10LinkerUtil16SectionMergeDataEEONSt16remove_referenceIT_E4typeEOS5_
00000000000148bf W _ZSt4moveIRSaISt13_Rb_tree_nodeISt4pairIKNSt7__cxx1112basic_stringIcSt11char_traitsIcESaIcEEEN10LinkerUtil15eInputFileStateEEEEEONSt16remove_referenceIT_E4typeEOSG_
0000000000017b30 W _ZSt4moveIRSt10shared_ptrIN10LinkerUtil16SectionMergeDataEEEONSt16remove_referenceIT_E4typeEOS6_
0000000000018869 W _ZSt4moveIRSt10shared_ptrIN12AssemblyUtil12SectionEntryEEEONSt16remove_referenceIT_E4typeEOS6_
000000000001b5e0 W _ZSt4moveIRSt10shared_ptrIN12AssemblyUtil16SymbolTableEntryEEEONSt16remove_referenceIT_E4typeEOS6_
000000000001b62f W _ZSt4moveIRSt10shared_ptrIN12AssemblyUtil20RelocationTableEntryEEEONSt16remove_referenceIT_E4typeEOS6_
0000000000026cec W _ZSt4moveIRSt10shared_ptrIN15InstructionUtil14CodePopulationEEEONSt16remove_referenceIT_E4typeEOS6_
000000000001ae1b W _ZSt4moveIRSt12__shared_ptrIN10LinkerUtil16SectionMergeDataELN9__gnu_cxx12_Lock_policyE2EEEONSt16remove_referenceIT_E4typeEOS8_
000000000000e9b3 W _ZSt4moveIRSt4pairIiSt10shared_ptrIN12AssemblyUtil12SectionEntryEEEEONSt16remove_referenceIT_E4typeEOS8_
0000000000026fd9 W _ZSt4moveIRSt4pairIN12AssemblyUtil11InstructionESt6vectorISt10shared_ptrIN15InstructionUtil14CodePopulationEESaIS7_EEEEONSt16remove_referenceIT_E4typeEOSD_
00000000000175ae W _ZSt4moveIRSt4pairINSt7__cxx1112basic_stringIcSt11char_traitsIcESaIcEEEmEEONSt16remove_referenceIT_E4typeEOSA_
000000000001bdfc W _ZSt4moveIRSt6vectorISt10shared_ptrIN12AssemblyUtil12SectionEntryEESaIS4_EEEONSt16remove_referenceIT_E4typeEOS9_
000000000001bd52 W _ZSt4moveIRSt6vectorISt10shared_ptrIN12AssemblyUtil16SymbolTableEntryEESaIS4_EEEONSt16remove_referenceIT_E4typeEOS9_
000000000001bea6 W _ZSt4moveIRSt6vectorISt10shared_ptrIN12AssemblyUtil20RelocationTableEntryEESaIS4_EEEONSt16remove_referenceIT_E4typeEOS9_
000000000000adb6 W _ZSt4setwi
000000000001c60b W _ZSt4swapIcSt11char_traitsIcESaIcEEvRNSt7__cxx1112basic_stringIT_T0_T1_EES9_
000000000001c647 W _ZSt4swapImENSt9enable_ifIXsrSt6__and_IJSt6__not_ISt15__is_tuple_likeIT_EESt21is_move_constructibleIS4_ESt18is_move_assignableIS4_EEE5valueEvE4typeERS4_SE_
000000000001ad5d W _ZSt4swapIN10LinkerUtil16SectionMergeDataEEvRSt10shared_ptrIT_ES5_
000000000001aa73 W _ZSt4swapINSt7__cxx1112basic_stringIcSt11char_traitsIcESaIcEEEmENSt9enable_ifIXsrSt6__and_IJSt14__is_swappableIT_ES8_IT0_EEE5valueEvE4typeERSt4pairIS9_SB_ESI_
000000000001bc31 W _ZSt4swapIPN10LinkerUtil16SectionMergeDataEENSt9enable_ifIXsrSt6__and_IJSt6__not_ISt15__is_tuple_likeIT_EESt21is_move_constructibleIS7_ESt18is_move_assignableIS7_EEE5valueEvE4typeERS7_SH_
0000000000021e33 W _ZSt7advanceIPKhmEvRT_T0_
00000000000326af W _ZSt7forwardIbEOT_RNSt16remove_referenceIS0_E4typeE
000000000001425a W _ZSt7forwardIhEOT_RNSt16remove_referenceIS0_E4typeE
000000000000e680 W _ZSt7forwardImEOT_RNSt16remove_referenceIS0_E4typeE
000000000000bb8f W _ZSt7forwardIN10LinkerUtil15eInputFileStateEEOT_RNSt16remove_referenceIS2_E4typeE
00000000000325ad W _ZSt7forwardIN10ParserUtil4eCSREEOT_RNSt16remove_referenceIS2_E4typeE
00000000000324ab W _ZSt7forwardIN10ParserUtil4eGPREEOT_RNSt16remove_referenceIS2_E4typeE
00000000000191aa W _ZSt7forwardINSt7__cxx1112basic_stringIcSt11char_traitsIcESaIcEEEEOT_RNSt16remove_referenceIS6_E4typeE
0000000000036241 W _ZSt7forwardINSt8__detail14_Node_iteratorISt4pairIKNSt7__cxx1112basic_stringIcSt11char_traitsIcESaIcEEEN10ParserUtil4eCSREELb0ELb1EEEEOT_RNSt16remove_referenceISE_E4typeE
0000000000035f99 W _ZSt7forwardINSt8__detail14_Node_iteratorISt4pairIKNSt7__cxx1112basic_stringIcSt11char_traitsIcESaIcEEEN10ParserUtil4eGPREELb0ELb1EEEEOT_RNSt16remove_referenceISE_E4typeE
000000000000bba1 W _ZSt7forwardIRA10_KcEOT_RNSt16remove_referenceIS3_E4typeE
000000000000bbb3 W _ZSt7forwardIRA13_KcEOT_RNSt16remove_referenceIS3_E4typeE
000000000000bb7d W _ZSt7forwardIRA14_KcEOT_RNSt16remove_referenceIS3_E4typeE
0000000000032499 W _ZSt7forwardIRA3_KcEOT_RNSt16remove_referenceIS3_E4typeE
00000000000324bd W _ZSt7forwardIRA4_KcEOT_RNSt16remove_referenceIS3_E4typeE
00000000000325d1 W _ZSt7forwardIRA6_KcEOT_RNSt16remove_referenceIS3_E4typeE
000000000003259b W _ZSt7forwardIRA7_KcEOT_RNSt16remove_referenceIS3_E4typeE
00000000000325bf W _ZSt7forwardIRA8_KcEOT_RNSt16remove_referenceIS3_E4typeE
000000000002076a W _ZSt7forwardIRbEOT_RNSt16remove_referenceIS1_E4typeE
000000000000e85d W _ZSt7forwardIRiEOT_RNSt16remove_referenceIS1_E4typeE
0000000000020833 W _ZSt7forwardIRKhEOT_RNSt16remove_referenceIS2_E4typeE
000000000002efe5 W _ZSt7forwardIRKN10ParserUtil12eOperandTypeEEOT_RNSt16remove_referenceIS4_E4typeE
000000000002f061 W _ZSt7forwardIRKN10ParserUtil15eAddressingTypeEEOT_RNSt16remove_referenceIS4_E4typeE
000000000002ef79 W _ZSt7forwardIRKN10ParserUtil22eInstructionIdentifierEEOT_RNSt16remove_referenceIS4_E4typeE
0000000000018c42 W _ZSt7forwardIRKNSt7__cxx1112basic_stringIcSt11char_traitsIcESaIcEEEEOT_RNSt16remove_referenceIS8_E4typeE
0000000000013188 W _ZSt7forwardIRKSt10shared_ptrIN10LinkerUtil16SectionMergeDataEEEOT_RNSt16remove_referenceIS6_E4typeE
00000000000126b4 W _ZSt7forwardIRKSt10shared_ptrIN12AssemblyUtil12SectionEntryEEEOT_RNSt16remove_referenceIS6_E4typeE
000000000001216b W _ZSt7forwardIRKSt10shared_ptrIN12AssemblyUtil16SymbolTableEntryEEEOT_RNSt16remove_referenceIS6_E4typeE
00000000000123a9 W _ZSt7forwardIRKSt10shared_ptrIN12AssemblyUtil20RelocationTableEntryEEEOT_RNSt16remove_referenceIS6_E4typeE
000000000002e116 W _ZSt7forwardIRKSt10shared_ptrIN15InstructionUtil14CodePopulationEEEOT_RNSt16remove_referenceIS6_E4typeE
0000000000012bce W _ZSt7forwardIRKSt21piecewise_construct_tEOT_RNSt16remove_referenceIS3_E4typeE
0000000000036678 W _ZSt7forwardIRKSt4hashINSt7__cxx1112basic_stringIcSt11char_traitsIcESaIcEEEEEOT_RNSt16remove_referenceISA_E4typeE
0000000000014968 W _ZSt7forwardIRKSt4pairIKNSt7__cxx1112basic_stringIcSt11char_traitsIcESaIcEEEN10LinkerUtil15eInputFileStateEEEOT_RNSt16remove_referenceISD_E4typeE
0000000000035b03 W _ZSt7forwardIRKSt4pairIKNSt7__cxx1112basic_stringIcSt11char_traitsIcESaIcEEEN10ParserUtil4eCSREEEOT_RNSt16remove_referenceISD_E4typeE
00000000000354f1 W _ZSt7forwardIRKSt4pairIKNSt7__cxx1112basic_stringIcSt11char_traitsIcESaIcEEEN10ParserUtil4eGPREEEOT_RNSt16remove_referenceISD_E4typeE
000000000002e38e W _ZSt7forwardIRKSt4pairIMN12AssemblyUtil11InstructionEFvtEN15InstructionUtil11eValueToUseEEEOT_RNSt16remove_referenceISA_E4typeE
000000000002de71 W _ZSt7forwardIRKSt4pairIN12AssemblyUtil11InstructionESt6vectorISt10shared_ptrIN15InstructionUtil14CodePopulationEESaIS7_EEEEOT_RNSt16remove_referenceISD_E4typeE
0000000000018ba0 W _ZSt7forwardIRKSt4pairINSt7__cxx1112basic_stringIcSt11char_traitsIcESaIcEEEmEEOT_RNSt16remove_referenceISA_E4typeE
0000000000013d47 W _ZSt7forwardIRKSt6vectorISt10shared_ptrIN12AssemblyUtil12SectionEntryEESaIS4_EEEOT_RNSt16remove_referenceIS9_E4typeE
0000000000013ae3 W _ZSt7forwardIRKSt6vectorISt10shared_ptrIN12AssemblyUtil16SymbolTableEntryEESaIS4_EEEOT_RNSt16remove_referenceIS9_E4typeE
0000000000013fab W _ZSt7forwardIRKSt6vectorISt10shared_ptrIN12AssemblyUtil20RelocationTableEntryEESaIS4_EEEOT_RNSt16remove_referenceIS9_E4typeE
00000000000363e7 W _ZSt7forwardIRKSt8equal_toINSt7__cxx1112basic_stringIcSt11char_traitsIcESaIcEEEEEOT_RNSt16remove_referenceISA_E4typeE
0000000000026e19 W _ZSt7forwardIRMN12AssemblyUtil11InstructionEFvtEEOT_RNSt16remove_referenceIS5_E4typeE
0000000000026e95 W _ZSt7forwardIRN12AssemblyUtil11InstructionEEOT_RNSt16remove_referenceIS3_E4typeE
0000000000026e2b W _ZSt7forwardIRN15InstructionUtil11eValueToUseEEOT_RNSt16remove_referenceIS3_E4typeE
0000000000020758 W _ZSt7forwardIRNSt7__cxx1112basic_stringIcSt11char_traitsIcESaIcEEEEOT_RNSt16remove_referenceIS7_E4typeE
0000000000036347 W _ZSt7forwardIRNSt8__detail14_Node_iteratorISt4pairIKNSt7__cxx1112basic_stringIcSt11char_traitsIcESaIcEEEN10ParserUtil4eCSREELb0ELb1EEEEOT_RNSt16remove_referenceISF_E4typeE
000000000003609f W _ZSt7forwardIRNSt8__detail14_Node_iteratorISt4pairIKNSt7__cxx1112basic_stringIcSt11char_traitsIcESaIcEEEN10ParserUtil4eGPREELb0ELb1EEEEOT_RNSt16remove_referenceISF_E4typeE
000000000002da21 W _ZSt7forwardIRPSt13_Rb_tree_nodeISt4pairIKN10ParserUtil12eOperandTypeESt3mapINS2_15eAddressingTypeESt6vectorIS1_IN12AssemblyUtil11InstructionES7_ISt10shared_ptrIN15InstructionUtil14CodePopulationEESaISD_EEESaISG_EESt4lessIS6_ESaIS1_IKS6_SI_EEEEEEOT_RNSt16remove_referenceIST_E4typeE
000000000002dc65 W _ZSt7forwardIRPSt13_Rb_tree_nodeISt4pairIKN10ParserUtil15eAddressingTypeESt6vectorIS1_IN12AssemblyUtil11InstructionES5_ISt10shared_ptrIN15InstructionUtil14CodePopulationEESaISB_EEESaISE_EEEEEOT_RNSt16remove_referenceISL_E4typeE
000000000002d879 W _ZSt7forwardIRPSt13_Rb_tree_nodeISt4pairIKN10ParserUtil22eInstructionIdentifierESt3mapINS2_12eOperandTypeES5_INS2_15eAddressingTypeESt6vectorIS1_IN12AssemblyUtil11InstructionES8_ISt10shared_ptrIN15InstructionUtil14CodePopulationEESaISE_EEESaISH_EESt4lessIS7_ESaIS1_IKS7_SJ_EEESK_IS6_ESaIS1_IKS6_SP_EEEEEEOT_RNSt16remove_referenceISZ_E4typeE
0000000000019a25 W _ZSt7forwardIRPSt13_Rb_tree_nodeISt4pairIKNSt7__cxx1112basic_stringIcSt11char_traitsIcESaIcEEEN10LinkerUtil15eInputFileStateEEEEOT_RNSt16remove_referenceISF_E4typeE
000000000001960d W _ZSt7forwardIRPSt13_Rb_tree_nodeISt4pairIKNSt7__cxx1112basic_stringIcSt11char_traitsIcESaIcEEESt10shared_ptrIN10LinkerUtil16SectionMergeDataEEEEEOT_RNSt16remove_referenceISH_E4typeE
00000000000178af W _ZSt7forwardIRPSt18_Rb_tree_node_baseEOT_RNSt16remove_referenceIS3_E4typeE
000000000000e86f W _ZSt7forwardIRSt10shared_ptrIN12AssemblyUtil12SectionEntryEEEOT_RNSt16remove_referenceIS5_E4typeE
000000000002feb7 W _ZSt7forwardIRSt10shared_ptrIN15InstructionUtil14CodePopulationEEEOT_RNSt16remove_referenceIS5_E4typeE
000000000002ddda W _ZSt7forwardIRSt4pairIN12AssemblyUtil11InstructionESt6vectorISt10shared_ptrIN15InstructionUtil14CodePopulationEESaIS7_EEEEOT_RNSt16remove_referenceISC_E4typeE
0000000000026ea7 W _ZSt7forwardIRSt6vectorISt10shared_ptrIN15InstructionUtil14CodePopulationEESaIS4_EEEOT_RNSt16remove_referenceIS8_E4typeE
00000000000361dc W _ZSt7forwardISaINSt8__detail10_Hash_nodeISt4pairIKNSt7__cxx1112basic_stringIcSt11char_traitsIcESaIcEEEN10ParserUtil4eCSREELb1EEEEEOT_RNSt16remove_referenceISF_E4typeE
0000000000035ef3 W _ZSt7forwardISaINSt8__detail10_Hash_nodeISt4pairIKNSt7__cxx1112basic_stringIcSt11char_traitsIcESaIcEEEN10ParserUtil4eGPREELb1EEEEEOT_RNSt16remove_referenceISF_E4typeE
000000000001c869 W _ZSt7forwardISt10shared_ptrIN10LinkerUtil16SectionMergeDataEEEOT_RNSt16remove_referenceIS4_E4typeE
000000000001c5ae W _ZSt7forwardISt10shared_ptrIN12AssemblyUtil12SectionEntryEEEOT_RNSt16remove_referenceIS4_E4typeE
000000000001c40f W _ZSt7forwardISt10shared_ptrIN12AssemblyUtil16SymbolTableEntryEEEOT_RNSt16remove_referenceIS4_E4typeE
000000000001c46d W _ZSt7forwardISt10shared_ptrIN12AssemblyUtil20RelocationTableEntryEEEOT_RNSt16remove_referenceIS4_E4typeE
000000000002800f W _ZSt7forwardISt10shared_ptrIN15InstructionUtil14CodePopulationEEEOT_RNSt16remove_referenceIS4_E4typeE
00000000000116f3 W _ZSt7forwardISt4pairIiSt10shared_ptrIN12AssemblyUtil12SectionEntryEEEEOT_RNSt16remove_referenceIS6_E4typeE
000000000002850b W _ZSt7forwardISt4pairIN12AssemblyUtil11InstructionESt6vectorISt10shared_ptrIN15InstructionUtil14CodePopulationEESaIS7_EEEEOT_RNSt16remove_referenceISB_E4typeE
00000000000311e1 W _ZSt7forwardISt4pairINSt7__cxx1112basic_stringIcSt11char_traitsIcESaIcEEEmEEOT_RNSt16remove_referenceIS8_E4typeE
0000000000012bf2 W _ZSt7forwardISt5tupleIJEEEOT_RNSt16remove_referenceIS2_E4typeE
0000000000028f2e W _ZSt7forwardISt5tupleIJRKN10ParserUtil12eOperandTypeEEEEOT_RNSt16remove_referenceIS6_E4typeE
00000000000295fe W _ZSt7forwardISt5tupleIJRKN10ParserUtil15eAddressingTypeEEEEOT_RNSt16remove_referenceIS6_E4typeE
000000000002889c W _ZSt7forwardISt5tupleIJRKN10ParserUtil22eInstructionIdentifierEEEEOT_RNSt16remove_referenceIS6_E4typeE
0000000000012be0 W _ZSt7forwardISt5tupleIJRKNSt7__cxx1112basic_stringIcSt11char_traitsIcESaIcEEEEEEOT_RNSt16remove_referenceISA_E4typeE
000000000001c9dd W _ZSt7forwardISt6vectorISt10shared_ptrIN12AssemblyUtil12SectionEntryEESaIS4_EEEOT_RNSt16remove_referenceIS7_E4typeE
000000000001c92b W _ZSt7forwardISt6vectorISt10shared_ptrIN12AssemblyUtil16SymbolTableEntryEESaIS4_EEEOT_RNSt16remove_referenceIS7_E4typeE
000000000001ca8f W _ZSt7forwardISt6vectorISt10shared_ptrIN12AssemblyUtil20RelocationTableEntryEESaIS4_EEEOT_RNSt16remove_referenceIS7_E4typeE
                 U _ZSt7getlineIcSt11char_traitsIcESaIcEERSt13basic_istreamIT_T0_ES7_RNSt7__cxx1112basic_stringIS4_S5_T1_EE@GLIBCXX_3.4.21
000000000000e66d W _ZSt7setfillIcESt8_SetfillIT_ES1_
000000000002f5af W _ZSt8_DestroyIN9__gnu_cxx17__normal_iteratorIPhSt6vectorIhSaIhEEEEEvT_S7_
000000000002f1b7 W _ZSt8_DestroyIN9__gnu_cxx17__normal_iteratorIPhSt6vectorIhSaIhEEEEhEvT_S7_RSaIT0_E
000000000002f772 W _ZSt8_DestroyIN9__gnu_cxx17__normal_iteratorIPSt10shared_ptrIN15InstructionUtil14CodePopulationEESt6vectorIS5_SaIS5_EEEEEvT_SB_
000000000002f3d5 W _ZSt8_DestroyIN9__gnu_cxx17__normal_iteratorIPSt10shared_ptrIN15InstructionUtil14CodePopulationEESt6vectorIS5_SaIS5_EEEES5_EvT_SB_RSaIT0_E
0000000000029d6d W _ZSt8_DestroyIN9__gnu_cxx17__normal_iteratorIPSt4pairIN12AssemblyUtil11InstructionESt6vectorISt10shared_ptrIN15InstructionUtil14CodePopulationEESaIS9_EEES5_ISC_SaISC_EEEEEvT_SH_
0000000000027af2 W _ZSt8_DestroyIN9__gnu_cxx17__normal_iteratorIPSt4pairIN12AssemblyUtil11InstructionESt6vectorISt10shared_ptrIN15InstructionUtil14CodePopulationEESaIS9_EEES5_ISC_SaISC_EEEESC_EvT_SH_RSaIT0_E
0000000000016f4e W _ZSt8_DestroyINSt7__cxx1112basic_stringIcSt11char_traitsIcESaIcEEEEvPT_
00000000000186ce W _ZSt8_DestroyIPhEvT_S1_
00000000000167f6 W _ZSt8_DestroyIPhhEvT_S1_RSaIT0_E
000000000001212c W _ZSt8_DestroyIPNSt7__cxx1112basic_stringIcSt11char_traitsIcESaIcEEEEvT_S7_
000000000000f69d W _ZSt8_DestroyIPNSt7__cxx1112basic_stringIcSt11char_traitsIcESaIcEEES5_EvT_S7_RSaIT0_E
0000000000012629 W _ZSt8_DestroyIPSt10shared_ptrIN10LinkerUtil16SectionMergeDataEEEvT_S5_
000000000000fdb4 W _ZSt8_DestroyIPSt10shared_ptrIN10LinkerUtil16SectionMergeDataEES3_EvT_S5_RSaIT0_E
0000000000011c61 W _ZSt8_DestroyIPSt10shared_ptrIN12AssemblyUtil12SectionEntryEEEvT_S5_
000000000000ee46 W _ZSt8_DestroyIPSt10shared_ptrIN12AssemblyUtil12SectionEntryEES3_EvT_S5_RSaIT0_E
0000000000011bf5 W _ZSt8_DestroyIPSt10shared_ptrIN12AssemblyUtil16SymbolTableEntryEEEvT_S5_
000000000000ed6a W _ZSt8_DestroyIPSt10shared_ptrIN12AssemblyUtil16SymbolTableEntryEES3_EvT_S5_RSaIT0_E
0000000000011ccd W _ZSt8_DestroyIPSt10shared_ptrIN12AssemblyUtil20RelocationTableEntryEEEvT_S5_
000000000000ef22 W _ZSt8_DestroyIPSt10shared_ptrIN12AssemblyUtil20RelocationTableEntryEES3_EvT_S5_RSaIT0_E
0000000000027fe5 W _ZSt8_DestroyIPSt10shared_ptrIN15InstructionUtil14CodePopulationEEEvT_S5_
0000000000026c90 W _ZSt8_DestroyIPSt10shared_ptrIN15InstructionUtil14CodePopulationEES3_EvT_S5_RSaIT0_E
0000000000016a35 W _ZSt8_DestroyIPSt4pairIiSt10shared_ptrIN12AssemblyUtil12SectionEntryEEEEvT_S7_
00000000000147c6 W _ZSt8_DestroyIPSt4pairIiSt10shared_ptrIN12AssemblyUtil12SectionEntryEEES5_EvT_S7_RSaIT0_E
0000000000029e7e W _ZSt8_DestroyIPSt4pairIMN12AssemblyUtil11InstructionEFvtEN15InstructionUtil11eValueToUseEEEvT_S9_
0000000000027c32 W _ZSt8_DestroyIPSt4pairIMN12AssemblyUtil11InstructionEFvtEN15InstructionUtil11eValueToUseEES7_EvT_S9_RSaIT0_E
0000000000029ca1 W _ZSt8_DestroyIPSt4pairIN12AssemblyUtil11InstructionESt6vectorISt10shared_ptrIN15InstructionUtil14CodePopulationEESaIS7_EEEEvT_SC_
00000000000279d8 W _ZSt8_DestroyIPSt4pairIN12AssemblyUtil11InstructionESt6vectorISt10shared_ptrIN15InstructionUtil14CodePopulationEESaIS7_EEESA_EvT_SC_RSaIT0_E
0000000000011fa4 W _ZSt8_DestroyIPSt4pairINSt7__cxx1112basic_stringIcSt11char_traitsIcESaIcEEEmEEvT_S9_
000000000000f431 W _ZSt8_DestroyIPSt4pairINSt7__cxx1112basic_stringIcSt11char_traitsIcESaIcEEEmES7_EvT_S9_RSaIT0_E
0000000000011da5 W _ZSt8_DestroyIPSt6vectorISt10shared_ptrIN12AssemblyUtil12SectionEntryEESaIS4_EEEvT_S8_
000000000000f0da W _ZSt8_DestroyIPSt6vectorISt10shared_ptrIN12AssemblyUtil12SectionEntryEESaIS4_EES6_EvT_S8_RSaIT0_E
0000000000011d39 W _ZSt8_DestroyIPSt6vectorISt10shared_ptrIN12AssemblyUtil16SymbolTableEntryEESaIS4_EEEvT_S8_
000000000000effe W _ZSt8_DestroyIPSt6vectorISt10shared_ptrIN12AssemblyUtil16SymbolTableEntryEESaIS4_EES6_EvT_S8_RSaIT0_E
0000000000011e11 W _ZSt8_DestroyIPSt6vectorISt10shared_ptrIN12AssemblyUtil20RelocationTableEntryEESaIS4_EEEvT_S8_
000000000000f1b6 W _ZSt8_DestroyIPSt6vectorISt10shared_ptrIN12AssemblyUtil20RelocationTableEntryEESaIS4_EES6_EvT_S8_RSaIT0_E
000000000001723e W _ZSt8_DestroyISt10shared_ptrIN10LinkerUtil16SectionMergeDataEEEvPT_
0000000000016b22 W _ZSt8_DestroyISt10shared_ptrIN12AssemblyUtil12SectionEntryEEEvPT_
0000000000016af1 W _ZSt8_DestroyISt10shared_ptrIN12AssemblyUtil16SymbolTableEntryEEEvPT_
0000000000016b53 W _ZSt8_DestroyISt10shared_ptrIN12AssemblyUtil20RelocationTableEntryEEEvPT_
000000000002c016 W _ZSt8_DestroyISt10shared_ptrIN15InstructionUtil14CodePopulationEEEvPT_
000000000001a6b6 W _ZSt8_DestroyISt4pairIiSt10shared_ptrIN12AssemblyUtil12SectionEntryEEEEvPT_
000000000002caa9 W _ZSt8_DestroyISt4pairIN12AssemblyUtil11InstructionESt6vectorISt10shared_ptrIN15InstructionUtil14CodePopulationEESaIS7_EEEEvPT_
0000000000016dbd W _ZSt8_DestroyISt4pairINSt7__cxx1112basic_stringIcSt11char_traitsIcESaIcEEEmEEvPT_
0000000000016bb5 W _ZSt8_DestroyISt6vectorISt10shared_ptrIN12AssemblyUtil12SectionEntryEESaIS4_EEEvPT_
0000000000016b84 W _ZSt8_DestroyISt6vectorISt10shared_ptrIN12AssemblyUtil16SymbolTableEntryEESaIS4_EEEvPT_
0000000000016be6 W _ZSt8_DestroyISt6vectorISt10shared_ptrIN12AssemblyUtil20RelocationTableEntryEESaIS4_EEEvPT_
000000000000e6e2 W _ZSt8distanceIPKcENSt15iterator_traitsIT_E15difference_typeES3_S3_
00000000000218cf W _ZSt8distanceIPKhENSt15iterator_traitsIT_E15difference_typeES3_S3_
0000000000027cf5 W _ZSt8distanceIPKSt4pairIMN12AssemblyUtil11InstructionEFvtEN15InstructionUtil11eValueToUseEEENSt15iterator_traitsIT_E15difference_typeESB_SB_
00000000000363a6 W _ZSt9addressofINSt8__detail10_Hash_nodeISt4pairIKNSt7__cxx1112basic_stringIcSt11char_traitsIcESaIcEEEN10ParserUtil4eCSREELb1EEEEPT_RSE_
0000000000036184 W _ZSt9addressofINSt8__detail10_Hash_nodeISt4pairIKNSt7__cxx1112basic_stringIcSt11char_traitsIcESaIcEEEN10ParserUtil4eGPREELb1EEEEPT_RSE_
00000000000360b1 W _ZSt9addressofIPNSt8__detail15_Hash_node_baseEEPT_RS3_
0000000000022040 W _ZSt9__advanceIPKhlEvRT_T0_St26random_access_iterator_tag
000000000001973a W _ZSt9iter_swapIN9__gnu_cxx17__normal_iteratorIPSt10shared_ptrIN10LinkerUtil16SectionMergeDataEESt6vectorIS5_SaIS5_EEEESA_EvT_T0_
00000000000190e8 W _ZSt9iter_swapIN9__gnu_cxx17__normal_iteratorIPSt4pairINSt7__cxx1112basic_stringIcSt11char_traitsIcESaIcEEEmESt6vectorIS9_SaIS9_EEEESE_EvT_T0_
000000000000acf3 W _ZStaNRSt13_Ios_FmtflagsS_
000000000000ac84 W _ZStanSt13_Ios_FmtflagsS_
000000000000acb0 W _ZStcoSt13_Ios_Fmtflags
000000000000d0ce W _ZSteqIcEN9__gnu_cxx11__enable_ifIXsrSt9__is_charIT_E7__valueEbE6__typeERKNSt7__cxx1112basic_stringIS3_St11char_traitsIS3_ESaIS3_EEESE_
000000000000df67 W _ZSteqIcSt11char_traitsIcESaIcEEbRKNSt7__cxx1112basic_stringIT_T0_T1_EEPKS5_
00000000000201a7 W _ZSteqIN12AssemblyUtil12SectionEntryEEbRKSt10shared_ptrIT_EDn
000000000000cdde W _ZSteqIN12AssemblyUtil16SymbolTableEntryEEbRKSt10shared_ptrIT_EDn
000000000002734e W _ZSteqRKSt17_Rb_tree_iteratorISt4pairIKN10ParserUtil12eOperandTypeESt3mapINS1_15eAddressingTypeESt6vectorIS0_IN12AssemblyUtil11InstructionES6_ISt10shared_ptrIN15InstructionUtil14CodePopulationEESaISC_EEESaISF_EESt4lessIS5_ESaIS0_IKS5_SH_EEEEESR_
00000000000275c0 W _ZSteqRKSt17_Rb_tree_iteratorISt4pairIKN10ParserUtil15eAddressingTypeESt6vectorIS0_IN12AssemblyUtil11InstructionES4_ISt10shared_ptrIN15InstructionUtil14CodePopulationEESaISA_EEESaISD_EEEESJ_
00000000000270dc W _ZSteqRKSt17_Rb_tree_iteratorISt4pairIKN10ParserUtil22eInstructionIdentifierESt3mapINS1_12eOperandTypeES4_INS1_15eAddressingTypeESt6vectorIS0_IN12AssemblyUtil11InstructionES7_ISt10shared_ptrIN15InstructionUtil14CodePopulationEESaISD_EEESaISG_EESt4lessIS6_ESaIS0_IKS6_SI_EEESJ_IS5_ESaIS0_IKS5_SO_EEEEESX_
00000000000109bb W _ZSteqRKSt17_Rb_tree_iteratorISt4pairIKNSt7__cxx1112basic_stringIcSt11char_traitsIcESaIcEEEN10LinkerUtil15eInputFileStateEEESD_
000000000000dade W _ZSteqRKSt17_Rb_tree_iteratorISt4pairIKNSt7__cxx1112basic_stringIcSt11char_traitsIcESaIcEEESt10shared_ptrIN10LinkerUtil16SectionMergeDataEEEESF_
                 U _ZStlsIcSt11char_traitsIcEERSt13basic_ostreamIT_T0_ES6_St5_Setw@GLIBCXX_3.4
                 U _ZStlsIcSt11char_traitsIcEERSt13basic_ostreamIT_T0_ES6_St8_SetfillIS3_E@GLIBCXX_3.4
                 U _ZStlsIcSt11char_traitsIcESaIcEERSt13basic_ostreamIT_T0_ES7_RKNSt7__cxx1112basic_stringIS4_S5_T1_EE@GLIBCXX_3.4.21
                 U _ZStlsISt11char_traitsIcEERSt13basic_ostreamIcT_ES5_c@GLIBCXX_3.4
                 U _ZStlsISt11char_traitsIcEERSt13basic_ostreamIcT_ES5_PKc@GLIBCXX_3.4
0000000000012b77 W _ZStltIcSt11char_traitsIcESaIcEEbRKNSt7__cxx1112basic_stringIT_T0_T1_EESA_
0000000000036c98 W _ZStneIcSt11char_traitsIcESaIcEEbRKNSt7__cxx1112basic_stringIT_T0_T1_EEPKS5_
000000000000c7ae W _ZStneIN12AssemblyUtil16SymbolTableEntryEEbRKSt10shared_ptrIT_EDn
000000000002f073 W _ZStneRKSaIhES1_
000000000002f269 W _ZStneRKSaISt10shared_ptrIN15InstructionUtil14CodePopulationEEES5_
000000000002780e W _ZStneRKSaISt4pairIN12AssemblyUtil11InstructionESt6vectorISt10shared_ptrIN15InstructionUtil14CodePopulationEESaIS6_EEEESC_
000000000000dfde W _ZStneRKSt17_Rb_tree_iteratorISt4pairIKNSt7__cxx1112basic_stringIcSt11char_traitsIcESaIcEEEN10LinkerUtil15eInputFileStateEEESD_
000000000000dd3a W _ZStneRKSt17_Rb_tree_iteratorISt4pairIKNSt7__cxx1112basic_stringIcSt11char_traitsIcESaIcEEESt10shared_ptrIN10LinkerUtil16SectionMergeDataEEEESF_
000000000000acc2 W _ZStoRRSt13_Ios_FmtflagsS_
000000000000ac9a W _ZStorSt13_Ios_FmtflagsS_
000000000000c941 W _ZStplIcSt11char_traitsIcESaIcEENSt7__cxx1112basic_stringIT_T0_T1_EEOS8_PKS5_
000000000000cb49 W _ZStplIcSt11char_traitsIcESaIcEENSt7__cxx1112basic_stringIT_T0_T1_EEOS8_RKS8_
00000000000201cc W _ZStplIcSt11char_traitsIcESaIcEENSt7__cxx1112basic_stringIT_T0_T1_EEOS8_S9_
000000000000c810 W _ZStplIcSt11char_traitsIcESaIcEENSt7__cxx1112basic_stringIT_T0_T1_EEPKS5_RKS8_
0000000000052a08 V _ZTIN10LinkerUtil15LinkerExceptionE
0000000000052a90 V _ZTIN12AssemblyUtil17AssemblyExceptionE
0000000000052a58 V _ZTISt11_Mutex_baseILN9__gnu_cxx12_Lock_policyE2EE
0000000000052a30 V _ZTISt16_Sp_counted_baseILN9__gnu_cxx12_Lock_policyE2EE
0000000000052a48 V _ZTISt19_Sp_make_shared_tag
00000000000529d8 V _ZTISt23_Sp_counted_ptr_inplaceIN10LinkerUtil16SectionMergeDataESaIS1_ELN9__gnu_cxx12_Lock_policyE2EE
00000000000529f0 V _ZTISt23_Sp_counted_ptr_inplaceIN12AssemblyUtil12SectionEntryESaIS1_ELN9__gnu_cxx12_Lock_policyE2EE
00000000000529c0 V _ZTISt23_Sp_counted_ptr_inplaceIN12AssemblyUtil16SymbolTableEntryESaIS1_ELN9__gnu_cxx12_Lock_policyE2EE
00000000000529a8 V _ZTISt23_Sp_counted_ptr_inplaceIN12AssemblyUtil20RelocationTableEntryESaIS1_ELN9__gnu_cxx12_Lock_policyE2EE
0000000000052aa8 V _ZTISt23_Sp_counted_ptr_inplaceIN15InstructionUtil14CodePopulationESaIS1_ELN9__gnu_cxx12_Lock_policyE2EE
                 U _ZTISt9exception@GLIBCXX_3.4
0000000000037320 V _ZTSN10LinkerUtil15LinkerExceptionE
0000000000037680 V _ZTSN12AssemblyUtil17AssemblyExceptionE
00000000000373a0 V _ZTSSt11_Mutex_baseILN9__gnu_cxx12_Lock_policyE2EE
0000000000037340 V _ZTSSt16_Sp_counted_baseILN9__gnu_cxx12_Lock_policyE2EE
0000000000037380 V _ZTSSt19_Sp_make_shared_tag
0000000000037240 V _ZTSSt23_Sp_counted_ptr_inplaceIN10LinkerUtil16SectionMergeDataESaIS1_ELN9__gnu_cxx12_Lock_policyE2EE
00000000000372c0 V _ZTSSt23_Sp_counted_ptr_inplaceIN12AssemblyUtil12SectionEntryESaIS1_ELN9__gnu_cxx12_Lock_policyE2EE
00000000000371c0 V _ZTSSt23_Sp_counted_ptr_inplaceIN12AssemblyUtil16SymbolTableEntryESaIS1_ELN9__gnu_cxx12_Lock_policyE2EE
0000000000037140 V _ZTSSt23_Sp_counted_ptr_inplaceIN12AssemblyUtil20RelocationTableEntryESaIS1_ELN9__gnu_cxx12_Lock_policyE2EE
0000000000037800 V _ZTSSt23_Sp_counted_ptr_inplaceIN15InstructionUtil14CodePopulationESaIS1_ELN9__gnu_cxx12_Lock_policyE2EE
                 U _ZTVN10__cxxabiv117__class_type_infoE@CXXABI_1.3
                 U _ZTVN10__cxxabiv120__si_class_type_infoE@CXXABI_1.3
                 U _ZTVN10__cxxabiv121__vmi_class_type_infoE@CXXABI_1.3
0000000000052948 V _ZTVN10LinkerUtil15LinkerExceptionE
0000000000052a68 V _ZTVN12AssemblyUtil17AssemblyExceptionE
0000000000052970 V _ZTVSt16_Sp_counted_baseILN9__gnu_cxx12_Lock_policyE2EE
0000000000052870 V _ZTVSt23_Sp_counted_ptr_inplaceIN10LinkerUtil16SectionMergeDataESaIS1_ELN9__gnu_cxx12_Lock_policyE2EE
00000000000528a8 V _ZTVSt23_Sp_counted_ptr_inplaceIN12AssemblyUtil12SectionEntryESaIS1_ELN9__gnu_cxx12_Lock_policyE2EE
0000000000052838 V _ZTVSt23_Sp_counted_ptr_inplaceIN12AssemblyUtil16SymbolTableEntryESaIS1_ELN9__gnu_cxx12_Lock_policyE2EE
0000000000052800 V _ZTVSt23_Sp_counted_ptr_inplaceIN12AssemblyUtil20RelocationTableEntryESaIS1_ELN9__gnu_cxx12_Lock_policyE2EE
00000000000528e0 V _ZTVSt23_Sp_counted_ptr_inplaceIN15InstructionUtil14CodePopulationESaIS1_ELN9__gnu_cxx12_Lock_policyE2EE
0000000000052920 V _ZTVSt9exception@GLIBCXX_3.4
000000000000b86d W _ZZN9__gnu_cxx6__stoaIlicJiEEET0_PFT_PKT1_PPS3_DpT2_EPKcS5_PmS9_EN10_Range_chk6_S_chkElSt17integral_constantIbLb1EE
000000000000b816 W _ZZN9__gnu_cxx6__stoaIlicJiEEET0_PFT_PKT1_PPS3_DpT2_EPKcS5_PmS9_EN11_Save_errnoC1Ev
000000000000b816 W _ZZN9__gnu_cxx6__stoaIlicJiEEET0_PFT_PKT1_PPS3_DpT2_EPKcS5_PmS9_EN11_Save_errnoC2Ev
000000000000b842 W _ZZN9__gnu_cxx6__stoaIlicJiEEET0_PFT_PKT1_PPS3_DpT2_EPKcS5_PmS9_EN11_Save_errnoD1Ev
000000000000b842 W _ZZN9__gnu_cxx6__stoaIlicJiEEET0_PFT_PKT1_PPS3_DpT2_EPKcS5_PmS9_EN11_Save_errnoD2Ev
0000000000030c81 W _ZZN9__gnu_cxx6__stoaImmcJiEEET0_PFT_PKT1_PPS3_DpT2_EPKcS5_PmS9_EN10_Range_chk6_S_chkEmSt17integral_constantIbLb0EE
0000000000030c2a W _ZZN9__gnu_cxx6__stoaImmcJiEEET0_PFT_PKT1_PPS3_DpT2_EPKcS5_PmS9_EN11_Save_errnoC1Ev
0000000000030c2a W _ZZN9__gnu_cxx6__stoaImmcJiEEET0_PFT_PKT1_PPS3_DpT2_EPKcS5_PmS9_EN11_Save_errnoC2Ev
0000000000030c56 W _ZZN9__gnu_cxx6__stoaImmcJiEEET0_PFT_PKT1_PPS3_DpT2_EPKcS5_PmS9_EN11_Save_errnoD1Ev
0000000000030c56 W _ZZN9__gnu_cxx6__stoaImmcJiEEET0_PFT_PKT1_PPS3_DpT2_EPKcS5_PmS9_EN11_Save_errnoD2Ev
0000000000037120 u _ZZNSt19_Sp_make_shared_tag5_S_tiEvE5__tag
00000000000375a0 u _ZZNSt8__detail18__to_chars_10_implIjEEvPcjT_E8__digits
